
ChromaKey.elf:     file format elf32-littlenios2
ChromaKey.elf
architecture: nios2:r1, flags 0x00000112:
EXEC_P, HAS_SYMS, D_PAGED
start address 0x00000248

Program Header:
    LOAD off    0x00001000 vaddr 0x00000000 paddr 0x00000000 align 2**12
         filesz 0x00000020 memsz 0x00000020 flags r-x
    LOAD off    0x00001020 vaddr 0x00000020 paddr 0x00000020 align 2**12
         filesz 0x0000d010 memsz 0x0000d010 flags r-x
    LOAD off    0x0000e030 vaddr 0x0000d030 paddr 0x0000eea8 align 2**12
         filesz 0x00001e78 memsz 0x00001e78 flags rw-
    LOAD off    0x00010d20 vaddr 0x00010d20 paddr 0x00010d20 align 2**12
         filesz 0x00000000 memsz 0x00000154 flags rw-

Sections:
Idx Name          Size      VMA       LMA       File off  Algn
  0 .entry        00000020  00000000  00000000  00001000  2**5
                  CONTENTS, ALLOC, LOAD, READONLY, CODE
  1 .exceptions   00000228  00000020  00000020  00001020  2**2
                  CONTENTS, ALLOC, LOAD, READONLY, CODE
  2 .text         0000cae4  00000248  00000248  00001248  2**2
                  CONTENTS, ALLOC, LOAD, READONLY, CODE
  3 .rodata       00000304  0000cd2c  0000cd2c  0000dd2c  2**2
                  CONTENTS, ALLOC, LOAD, READONLY, DATA
  4 .rwdata       00001e78  0000d030  0000eea8  0000e030  2**2
                  CONTENTS, ALLOC, LOAD, DATA, SMALL_DATA
  5 .bss          00000154  00010d20  00010d20  00010d20  2**2
                  ALLOC, SMALL_DATA
  6 .sdram        00000000  00010e74  00010e74  0000fea8  2**0
                  CONTENTS
  7 .flash_controller 00000000  08000000  08000000  0000fea8  2**0
                  CONTENTS
  8 .onchip_memory 00000000  08800000  08800000  0000fea8  2**0
                  CONTENTS
  9 .comment      00000023  00000000  00000000  0000fea8  2**0
                  CONTENTS, READONLY
 10 .debug_aranges 00000e78  00000000  00000000  0000fed0  2**3
                  CONTENTS, READONLY, DEBUGGING
 11 .debug_info   00022dc9  00000000  00000000  00010d48  2**0
                  CONTENTS, READONLY, DEBUGGING
 12 .debug_abbrev 00008f23  00000000  00000000  00033b11  2**0
                  CONTENTS, READONLY, DEBUGGING
 13 .debug_line   0000a3e8  00000000  00000000  0003ca34  2**0
                  CONTENTS, READONLY, DEBUGGING
 14 .debug_frame  00002a0c  00000000  00000000  00046e1c  2**2
                  CONTENTS, READONLY, DEBUGGING
 15 .debug_str    0000445e  00000000  00000000  00049828  2**0
                  CONTENTS, READONLY, DEBUGGING
 16 .debug_loc    00009261  00000000  00000000  0004dc86  2**0
                  CONTENTS, READONLY, DEBUGGING
 17 .debug_alt_sim_info 00000060  00000000  00000000  00056ee8  2**2
                  CONTENTS, READONLY, DEBUGGING
 18 .debug_ranges 00000db0  00000000  00000000  00056f48  2**3
                  CONTENTS, READONLY, DEBUGGING
 19 .thread_model 00000003  00000000  00000000  0005bbca  2**0
                  CONTENTS, READONLY
 20 .cpu          00000003  00000000  00000000  0005bbcd  2**0
                  CONTENTS, READONLY
 21 .qsys         00000001  00000000  00000000  0005bbd0  2**0
                  CONTENTS, READONLY
 22 .simulation_enabled 00000001  00000000  00000000  0005bbd1  2**0
                  CONTENTS, READONLY
 23 .sysid_hash   00000004  00000000  00000000  0005bbd2  2**0
                  CONTENTS, READONLY
 24 .sysid_base   00000004  00000000  00000000  0005bbd6  2**0
                  CONTENTS, READONLY
 25 .sysid_time   00000004  00000000  00000000  0005bbda  2**0
                  CONTENTS, READONLY
 26 .stderr_dev   00000009  00000000  00000000  0005bbde  2**0
                  CONTENTS, READONLY
 27 .stdin_dev    00000009  00000000  00000000  0005bbe7  2**0
                  CONTENTS, READONLY
 28 .stdout_dev   00000009  00000000  00000000  0005bbf0  2**0
                  CONTENTS, READONLY
 29 .sopc_system_name 0000000b  00000000  00000000  0005bbf9  2**0
                  CONTENTS, READONLY
 30 .quartus_project_dir 00000037  00000000  00000000  0005bc04  2**0
                  CONTENTS, READONLY
 31 .jdi          00003a07  00000000  00000000  0005bc3b  2**0
                  CONTENTS, READONLY
 32 .sopcinfo     0011aa2c  00000000  00000000  0005f642  2**0
                  CONTENTS, READONLY
SYMBOL TABLE:
00000000 l    d  .entry	00000000 .entry
00000020 l    d  .exceptions	00000000 .exceptions
00000248 l    d  .text	00000000 .text
0000cd2c l    d  .rodata	00000000 .rodata
0000d030 l    d  .rwdata	00000000 .rwdata
00010d20 l    d  .bss	00000000 .bss
00010e74 l    d  .sdram	00000000 .sdram
08000000 l    d  .flash_controller	00000000 .flash_controller
08800000 l    d  .onchip_memory	00000000 .onchip_memory
00000000 l    d  .comment	00000000 .comment
00000000 l    d  .debug_aranges	00000000 .debug_aranges
00000000 l    d  .debug_info	00000000 .debug_info
00000000 l    d  .debug_abbrev	00000000 .debug_abbrev
00000000 l    d  .debug_line	00000000 .debug_line
00000000 l    d  .debug_frame	00000000 .debug_frame
00000000 l    d  .debug_str	00000000 .debug_str
00000000 l    d  .debug_loc	00000000 .debug_loc
00000000 l    d  .debug_alt_sim_info	00000000 .debug_alt_sim_info
00000000 l    d  .debug_ranges	00000000 .debug_ranges
00000000 l    df *ABS*	00000000 ../ChromaKey_bsp//obj/HAL/src/crt0.o
00000290 l       .text	00000000 alt_after_alt_main
00000000 l    df *ABS*	00000000 alt_irq_handler.c
00000000 l    df *ABS*	00000000 alt_instruction_exception_entry.c
00000000 l    df *ABS*	00000000 test_mtl.c
00000000 l    df *ABS*	00000000 s_ceil.c
00000000 l    df *ABS*	00000000 divsf3.c
00000000 l    df *ABS*	00000000 floatunsisf.c
00000000 l    df *ABS*	00000000 adddf3.c
00000000 l    df *ABS*	00000000 gedf2.c
00000000 l    df *ABS*	00000000 muldf3.c
00000000 l    df *ABS*	00000000 fixdfsi.c
00000000 l    df *ABS*	00000000 extendsfdf2.c
00000000 l    df *ABS*	00000000 libgcc2.c
00000000 l    df *ABS*	00000000 libgcc2.c
00000000 l    df *ABS*	00000000 fclose.c
00000000 l    df *ABS*	00000000 fflush.c
00000000 l    df *ABS*	00000000 findfp.c
000025bc l     F .text	00000008 __fp_unlock
000025d0 l     F .text	0000019c __sinit.part.1
0000276c l     F .text	00000008 __fp_lock
00000000 l    df *ABS*	00000000 fopen.c
00000000 l    df *ABS*	00000000 fread.c
00000000 l    df *ABS*	00000000 mallocr.c
00000000 l    df *ABS*	00000000 fseek.c
00000000 l    df *ABS*	00000000 fseeko.c
00000000 l    df *ABS*	00000000 fstatr.c
00000000 l    df *ABS*	00000000 fwalk.c
00000000 l    df *ABS*	00000000 impure.c
0000d030 l     O .rwdata	00000424 impure_data
00000000 l    df *ABS*	00000000 int_errno.c
00000000 l    df *ABS*	00000000 makebuf.c
00000000 l    df *ABS*	00000000 malloc.c
00000000 l    df *ABS*	00000000 mallocr.c
00000000 l    df *ABS*	00000000 memcpy.c
00000000 l    df *ABS*	00000000 memset.c
00000000 l    df *ABS*	00000000 openr.c
00000000 l    df *ABS*	00000000 puts.c
00000000 l    df *ABS*	00000000 refill.c
000044f4 l     F .text	0000001c lflush
00000000 l    df *ABS*	00000000 sbrkr.c
00000000 l    df *ABS*	00000000 stdio.c
00000000 l    df *ABS*	00000000 strlen.c
00000000 l    df *ABS*	00000000 writer.c
00000000 l    df *ABS*	00000000 closer.c
00000000 l    df *ABS*	00000000 flags.c
00000000 l    df *ABS*	00000000 fvwrite.c
00000000 l    df *ABS*	00000000 isattyr.c
00000000 l    df *ABS*	00000000 lseekr.c
00000000 l    df *ABS*	00000000 memchr.c
00000000 l    df *ABS*	00000000 memmove.c
00000000 l    df *ABS*	00000000 readr.c
00000000 l    df *ABS*	00000000 mallocr.c
00000000 l    df *ABS*	00000000 wsetup.c
00000000 l    df *ABS*	00000000 lib2-divmod.c
00000000 l    df *ABS*	00000000 alt_close.c
00005ae8 l     F .text	0000003c alt_get_errno
00000000 l    df *ABS*	00000000 alt_dev.c
00005bf4 l     F .text	0000002c alt_dev_null_write
00000000 l    df *ABS*	00000000 alt_errno.c
00000000 l    df *ABS*	00000000 alt_fstat.c
00005c20 l     F .text	0000003c alt_get_errno
00000000 l    df *ABS*	00000000 alt_isatty.c
00005d0c l     F .text	0000003c alt_get_errno
00000000 l    df *ABS*	00000000 alt_load.c
00005dec l     F .text	00000068 alt_load_section
00000000 l    df *ABS*	00000000 alt_lseek.c
00005ed8 l     F .text	0000003c alt_get_errno
00000000 l    df *ABS*	00000000 alt_main.c
00000000 l    df *ABS*	00000000 alt_malloc_lock.c
00000000 l    df *ABS*	00000000 alt_open.c
000060ac l     F .text	0000003c alt_get_errno
000060e8 l     F .text	000000c4 alt_file_locked
00000000 l    df *ABS*	00000000 alt_read.c
00006300 l     F .text	0000003c alt_get_errno
00000000 l    df *ABS*	00000000 alt_release_fd.c
00000000 l    df *ABS*	00000000 alt_sbrk.c
0000ee90 l     O .rwdata	00000004 heap_end
00000000 l    df *ABS*	00000000 alt_write.c
0000654c l     F .text	0000003c alt_get_errno
00000000 l    df *ABS*	00000000 alt_sys_init.c
00006680 l     F .text	00000034 alt_dev_reg
0000da04 l     O .rwdata	000000dc flash_controller
0000dae0 l     O .rwdata	00001060 jtag_uart
0000eb40 l     O .rwdata	00000030 altera_ro_zipfs
0000eb70 l     O .rwdata	00000030 audio_config
0000eba0 l     O .rwdata	00000030 audio
0000ebd0 l     O .rwdata	0000002c char_lcd
0000ebfc l     O .rwdata	0000002c green_leds
0000ec28 l     O .rwdata	0000002c HEX3_HEX0
0000ec54 l     O .rwdata	0000002c HEX4_HEX_7
0000ec80 l     O .rwdata	0000002c pushbuttons
0000ecac l     O .rwdata	0000002c red_leds
0000ecd8 l     O .rwdata	0000002c switches
0000ed04 l     O .rwdata	00000038 ps2_key
0000ed3c l     O .rwdata	00000038 ps2_mouse
0000ed74 l     O .rwdata	0000002c serial_port
0000eda0 l     O .rwdata	00000048 mtl_char_buffer
0000ede8 l     O .rwdata	00000054 pixel_buffer_dma_green
0000ee3c l     O .rwdata	0000002c SD_Card
00000000 l    df *ABS*	00000000 altera_avalon_cfi_flash.c
00006adc l     F .text	00000034 alt_flash_device_register
00000000 l    df *ABS*	00000000 altera_avalon_cfi_flash_table.c
0000792c l     F .text	00000080 alt_read_16bit_query_entry
00000000 l    df *ABS*	00000000 altera_avalon_jtag_uart_fd.c
00000000 l    df *ABS*	00000000 altera_avalon_jtag_uart_init.c
000089d4 l     F .text	00000210 altera_avalon_jtag_uart_irq
00008be4 l     F .text	000000a0 altera_avalon_jtag_uart_timeout
00000000 l    df *ABS*	00000000 altera_avalon_jtag_uart_ioctl.c
00000000 l    df *ABS*	00000000 altera_avalon_jtag_uart_read.c
00000000 l    df *ABS*	00000000 altera_avalon_jtag_uart_write.c
00000000 l    df *ABS*	00000000 altera_avalon_timer_sc.c
0000921c l     F .text	0000007c alt_avalon_timer_sc_irq
00000000 l    df *ABS*	00000000 altera_ro_zipfs.c
0000930c l     F .text	00000074 read_word
00009380 l     F .text	00000054 read_word_inc
000093d4 l     F .text	00000044 read_half_word
00009418 l     F .text	00000054 read_half_word_inc
0000946c l     F .text	00000120 check_file_header
000096c0 l     F .text	000000a4 check_directory_table
00009764 l     F .text	000000ac find_directory_entry
00009810 l     F .text	00000178 find_file_entry_by_name
00009988 l     F .text	0000019c find_file_entry
00000000 l    df *ABS*	00000000 altera_up_avalon_character_lcd.c
00000000 l    df *ABS*	00000000 altera_up_avalon_ps2.c
00000000 l    df *ABS*	00000000 altera_up_avalon_rs232.c
00000000 l    df *ABS*	00000000 altera_up_avalon_video_character_buffer_with_dma.c
00000000 l    df *ABS*	00000000 alt_alarm_start.c
00000000 l    df *ABS*	00000000 alt_dcache_flush.c
00000000 l    df *ABS*	00000000 alt_dcache_flush_all.c
00000000 l    df *ABS*	00000000 alt_dev_llist_insert.c
0000b2a8 l     F .text	0000003c alt_get_errno
00000000 l    df *ABS*	00000000 alt_do_ctors.c
00000000 l    df *ABS*	00000000 alt_do_dtors.c
00000000 l    df *ABS*	00000000 alt_find_dev.c
00000000 l    df *ABS*	00000000 alt_find_file.c
00000000 l    df *ABS*	00000000 alt_flash_dev.c
00000000 l    df *ABS*	00000000 alt_fs_reg.c
00000000 l    df *ABS*	00000000 alt_get_fd.c
00000000 l    df *ABS*	00000000 alt_icache_flush_all.c
00000000 l    df *ABS*	00000000 alt_io_redirect.c
0000b7f4 l     F .text	000000c4 alt_open_fd
00000000 l    df *ABS*	00000000 alt_irq_register.c
00000000 l    df *ABS*	00000000 alt_irq_vars.c
00000000 l    df *ABS*	00000000 alt_tick.c
00000000 l    df *ABS*	00000000 altera_nios2_gen2_irq.c
00000000 l    df *ABS*	00000000 altera_avalon_cfi_flash_amd.c
0000c010 l     F .text	000000cc alt_write_word_amd
0000bef4 l     F .text	0000011c alt_wait_for_command_to_complete_amd
00000000 l    df *ABS*	00000000 altera_avalon_cfi_flash_intel.c
0000c2e8 l     F .text	0000017c alt_unlock_block_intel
0000c464 l     F .text	000000d4 alt_write_word_intel
00000000 l    df *ABS*	00000000 alt_icache_flush.c
00000000 l    df *ABS*	00000000 alt_usleep.c
00000000 l    df *ABS*	00000000 alt_busy_sleep.c
00000000 l    df *ABS*	00000000 atexit.c
00000000 l    df *ABS*	00000000 exit.c
00000000 l    df *ABS*	00000000 memcmp.c
00000000 l    df *ABS*	00000000 strcmp.c
00000000 l    df *ABS*	00000000 strncmp.c
00000000 l    df *ABS*	00000000 __atexit.c
00000000 l    df *ABS*	00000000 __call_atexit.c
00000000 l    df *ABS*	00000000 alt_exit.c
00010d48 g     O .bss	00000004 alt_instruction_exception_handler
00004f28 g     F .text	00000054 _isatty_r
00005fe8 g     F .text	0000007c alt_main
00004420 g     F .text	000000c0 _puts_r
000073f0 g     F .text	00000040 alt_read_query_entry_32bit
00010d74 g     O .bss	00000100 alt_irq
0000a5e8 g     F .text	00000060 alt_up_ps2_disable_read_interrupt
00004f7c g     F .text	00000060 _lseek_r
00006ba0 g     F .text	000002a8 alt_flash_cfi_write
0000eea8 g       *ABS*	00000000 __flash_rwdata_start
00009f1c g     F .text	00000040 alt_up_character_lcd_send_cmd
000049c0 g     F .text	000000ac __sflags
00010e74 g       *ABS*	00000000 __alt_heap_start
00004810 g     F .text	0000005c __sseek
0000290c g     F .text	00000010 __sinit
0000af64 g     F .text	000000fc alt_up_char_buffer_string
0000a400 g     F .text	00000034 read_CE_bit
00002774 g     F .text	00000068 __sfmoreglue
00006088 g     F .text	00000024 __malloc_unlock
0000a788 g     F .text	0000009c alt_up_ps2_read_data_byte_timeout
0000ac7c g     F .text	00000090 alt_up_rs232_read_fd
00000a4c g     F .text	00000440 .hidden __divsf3
00000388 g     F .text	0000006c LCD_cursor
0000ae98 g     F .text	000000cc alt_up_char_buffer_draw
000050c0 g     F .text	0000015c memmove
000028f4 g     F .text	00000018 _cleanup
000005f0 g     F .text	0000027c ReadImage
00001828 g     F .text	000000dc .hidden __gtdf2
0000bc58 g     F .text	00000024 altera_nios2_gen2_irq_init
00009ea8 g     F .text	00000074 get_DDRAM_addr
00007588 g     F .text	00000050 alt_write_flash_command_32bit_device_16bit_mode
00000000 g     F .entry	0000001c __reset
0000086c g     F .text	000001e0 ceil
00000020 g       *ABS*	00000000 __flash_exceptions_start
0000357c g     F .text	0000005c _fstat_r
00007094 g     F .text	000002e0 alt_flash_program_block
00010d20 g     O .bss	00000004 errno
0000478c g     F .text	00000008 __seofread
00010d34 g     O .bss	00000004 alt_argv
00016e68 g       *ABS*	00000000 _gp
0000c5c8 g     F .text	00000030 usleep
0000d884 g     O .rwdata	00000180 alt_fd_list
0000b448 g     F .text	00000090 alt_find_dev
00004150 g     F .text	00000148 memcpy
0000a0c4 g     F .text	00000050 alt_up_character_lcd_write_fd
0000b060 g     F .text	0000005c alt_up_char_buffer_clear
000025c4 g     F .text	0000000c _cleanup_r
0000b69c g     F .text	00000080 alt_fs_reg
0000b8b8 g     F .text	0000007c alt_io_redirect
0000cd2c g       *ABS*	00000000 __DTOR_END__
0000ac08 g     F .text	00000074 alt_up_rs232_read_data
000044e0 g     F .text	00000014 puts
0000c750 g     F .text	0000009c alt_exception_cause_generated_bad_addr
00009b24 g     F .text	00000090 alt_ro_zipfs_open
08000000 g       *ABS*	00000000 __alt_mem_flash_controller
00008ddc g     F .text	0000021c altera_avalon_jtag_uart_read
0000391c g     F .text	00000014 malloc
000003f4 g     F .text	0000006c LCD_text
00005a2c g     F .text	00000064 .hidden __udivsi3
00005d48 g     F .text	000000a4 isatty
0000c538 g     F .text	00000090 alt_icache_flush
00010d2c g     O .bss	00000004 __malloc_top_pad
00004a6c g     F .text	000004bc __sfvwrite_r
000046e4 g     F .text	00000054 _sbrk_r
0000c0dc g     F .text	00000080 alt_program_intel
0000521c g     F .text	00000060 _read_r
0000b1e8 g     F .text	00000078 alt_dcache_flush
0000ee88 g     O .rwdata	00000004 alt_max_fd
0000ab84 g     F .text	00000044 alt_up_rs232_check_parity
00007374 g     F .text	0000003c alt_read_query_entry_8bit
00002210 g     F .text	000000f0 _fclose_r
0000a434 g     F .text	00000030 read_num_bytes_available
0000c15c g     F .text	0000018c alt_erase_block_intel
0000258c g     F .text	00000030 fflush
00010d28 g     O .bss	00000004 __malloc_max_sbrked_mem
0000b934 g     F .text	00000180 alt_irq_register
0000a39c g     F .text	00000034 read_RI_bit
0000209c g     F .text	00000110 .hidden __extendsfdf2
00000f7c g     F .text	000008ac .hidden __adddf3
00005f14 g     F .text	000000d4 lseek
0000ee68 g     O .rwdata	00000004 _global_impure_ptr
0000527c g     F .text	00000564 _realloc_r
00010e74 g       *ABS*	00000000 __bss_end
0000bb50 g     F .text	00000108 alt_tick
0000a498 g     F .text	0000002c read_data_byte
0000292c g     F .text	00000018 __fp_lock_all
0000bab4 g     F .text	0000009c alt_alarm_stop
0000a3d0 g     F .text	00000030 read_RE_bit
00010d3c g     O .bss	00000004 alt_irq_active
0000311c g     F .text	00000444 _fseeko_r
00009c9c g     F .text	0000013c alt_ro_zipfs_seek
000000fc g     F .exceptions	000000d8 alt_irq_handler
0000d85c g     O .rwdata	00000028 alt_dev_null
0000a364 g     F .text	00000038 alt_up_character_lcd_cursor_blink_on
00007890 g     F .text	0000009c alt_set_flash_algorithm_func
0000a648 g     F .text	00000074 alt_up_ps2_write_data_byte
0000b260 g     F .text	00000048 alt_dcache_flush_all
0000201c g     F .text	00000080 .hidden __fixdfsi
00007430 g     F .text	00000044 alt_write_flash_command_8bit_device_8bit_mode
0000eea8 g       *ABS*	00000000 __ram_rwdata_end
08800000 g       *ABS*	00000000 __alt_mem_onchip_memory
0000ee80 g     O .rwdata	00000008 alt_dev_list
00006588 g     F .text	000000f8 write
0000d030 g       *ABS*	00000000 __ram_rodata_end
00005c5c g     F .text	000000b0 fstat
0000ad0c g     F .text	00000094 alt_up_rs232_write_fd
000086e4 g     F .text	000000d8 alt_check_primary_table
00005a90 g     F .text	00000058 .hidden __umodsi3
00006ed4 g     F .text	00000064 alt_flash_cfi_read
00007628 g     F .text	00000038 alt_write_native_8bit
00000498 g     F .text	00000098 MTL_text
00010e74 g       *ABS*	00000000 end
0000a978 g     F .text	00000098 alt_up_ps2_write_fd
00007474 g     F .text	00000078 alt_write_flash_command_16bit_device_8bit_mode
00003560 g     F .text	0000001c fseeko
0000addc g     F .text	00000080 alt_up_char_buffer_init
00003100 g     F .text	0000001c fseek
000079ac g     F .text	000005c8 alt_read_cfi_table
00008920 g     F .text	000000b4 altera_avalon_jtag_uart_init
000001d4 g     F .exceptions	00000074 alt_instruction_exception_entry
0000cd2c g       *ABS*	00000000 __CTOR_LIST__
08000000 g       *ABS*	00000000 __alt_stack_pointer
00009298 g     F .text	00000074 alt_avalon_timer_sc_init
000021ac g     F .text	00000064 .hidden __clzsi2
00008ff8 g     F .text	00000224 altera_avalon_jtag_uart_write
00006b10 g     F .text	00000090 alt_flash_cfi_init
0000291c g     F .text	00000004 __sfp_lock_acquire
00004fdc g     F .text	000000e4 memchr
00009fd0 g     F .text	0000007c alt_up_character_lcd_write
00002dec g     F .text	00000310 _free_r
0000cb78 g     F .text	00000180 __call_exitprocs
0000ee70 g     O .rwdata	00000004 __malloc_sbrk_base
00000248 g     F .text	0000004c _start
00010d40 g     O .bss	00000004 _alt_tick_rate
00010d44 g     O .bss	00000004 _alt_nticks
0000633c g     F .text	000000fc read
000066ec g     F .text	000003f0 alt_sys_init
0000a214 g     F .text	0000008c alt_up_character_lcd_shift_display
000043c0 g     F .text	00000060 _open_r
0000ca60 g     F .text	00000118 __register_exitproc
0000c990 g     F .text	000000d0 strncmp
0000a894 g     F .text	00000058 alt_up_ps2_clear_fifo
0000ab48 g     F .text	0000003c alt_up_rs232_get_available_space_in_write_FIFO
000073b0 g     F .text	00000040 alt_read_query_entry_16bit
0000a2a0 g     F .text	0000008c alt_up_character_lcd_erase_pos
00008c84 g     F .text	00000068 altera_avalon_jtag_uart_close
0000d030 g       *ABS*	00000000 __ram_rwdata_start
0000cd2c g       *ABS*	00000000 __ram_rodata_start
00010d4c g     O .bss	00000028 __malloc_current_mallinfo
000076cc g     F .text	000001c4 alt_set_flash_width_func
000087bc g     F .text	00000060 altera_avalon_jtag_uart_read_fd
0000b71c g     F .text	000000a4 alt_get_fd
0000c5f8 g     F .text	00000158 alt_busy_sleep
0000496c g     F .text	00000054 _close_r
0000bce4 g     F .text	00000210 alt_erase_block_amd
0000c838 g     F .text	0000007c memcmp
0000887c g     F .text	00000050 altera_avalon_jtag_uart_close_fd
00010e74 g       *ABS*	00000000 __alt_stack_base
000088cc g     F .text	00000054 altera_avalon_jtag_uart_ioctl_fd
000057e0 g     F .text	00000154 __swsetup_r
00007f74 g     F .text	00000770 alt_read_cfi_width
000027dc g     F .text	00000118 __sfp
0000d454 g     O .rwdata	00000408 __malloc_av_
00002928 g     F .text	00000004 __sinit_lock_release
00001904 g     F .text	00000718 .hidden __muldf3
00004738 g     F .text	00000054 __sread
00002c94 g     F .text	00000034 fread
0000aaa8 g     F .text	00000060 alt_up_rs232_disable_read_interrupt
0000b4d8 g     F .text	00000108 alt_find_file
0000b2e4 g     F .text	000000a4 alt_dev_llist_insert
00006064 g     F .text	00000024 __malloc_lock
0000649c g     F .text	000000b0 sbrk
00002530 g     F .text	0000005c _fflush_r
0000ee94 g     O .rwdata	00000008 alt_flash_dev_list
0000753c g     F .text	0000004c alt_write_flash_command_16bit_device_16bit_mode
00002a50 g     F .text	00000018 fopen
00010d20 g       *ABS*	00000000 __bss_start
00004298 g     F .text	00000128 memset
00000294 g     F .text	000000f4 main
00010d38 g     O .bss	00000004 alt_envp
00010d24 g     O .bss	00000004 __malloc_max_total_mem
0000ae5c g     F .text	0000003c alt_up_char_buffer_open_dev
0000881c g     F .text	00000060 altera_avalon_jtag_uart_write_fd
00002a68 g     F .text	0000022c _fread_r
00000460 g     F .text	00000038 LCD_cursor_off
0000a188 g     F .text	0000008c alt_up_character_lcd_shift_cursor
0000486c g     F .text	00000008 __sclose
08000000 g       *ABS*	00000000 __alt_heap_limit
00002300 g     F .text	00000014 fclose
0000a824 g     F .text	00000070 alt_up_ps2_read_data_byte
00003944 g     F .text	0000080c _malloc_r
0000ee8c g     O .rwdata	00000004 alt_errno
000075d8 g     F .text	00000050 alt_write_flash_command_32bit_device_32bit_mode
000035d8 g     F .text	000000c4 _fwalk
00006f38 g     F .text	0000015c alt_write_value_to_flash
0000aa10 g     F .text	0000003c alt_up_ps2_open_dev
00007660 g     F .text	00000038 alt_write_native_16bit
00005934 g     F .text	00000084 .hidden __divsi3
00009bb4 g     F .text	000000e8 alt_ro_zipfs_read
00009f94 g     F .text	0000003c alt_up_character_lcd_open_dev
00002cc8 g     F .text	00000124 _malloc_trim_r
0000a58c g     F .text	0000005c alt_up_ps2_enable_read_interrupt
0000cd2c g       *ABS*	00000000 __CTOR_END__
00009e50 g     F .text	00000058 alt_ro_zipfs_check_valid
00009f5c g     F .text	00000038 alt_up_character_lcd_init
0000c8b4 g     F .text	000000dc strcmp
0000cd2c g       *ABS*	00000000 __flash_rodata_start
0000cd2c g       *ABS*	00000000 __DTOR_LIST__
0000ada0 g     F .text	0000003c alt_up_rs232_open_dev
00009dd8 g     F .text	00000078 alt_ro_zipfs_fstat
000066b4 g     F .text	00000038 alt_irq_init
00006438 g     F .text	00000064 alt_release_fd
0000a464 g     F .text	00000034 read_data_valid
0000a32c g     F .text	00000038 alt_up_character_lcd_cursor_off
0000cd93 g     O .rodata	00000100 .hidden __clz_tab
0000a724 g     F .text	00000064 alt_up_ps2_write_data_byte_with_ack
0000c7ec g     F .text	00000014 atexit
0000490c g     F .text	00000060 _write_r
0000ee6c g     O .rwdata	00000004 _impure_ptr
00010d30 g     O .bss	00000004 alt_argc
00002314 g     F .text	0000021c __sflush_r
0000b3e8 g     F .text	00000060 _do_dtors
000030fc g     F .text	00000004 _fseek_r
00004510 g     F .text	000001d4 __srefill_r
00000020 g       .exceptions	00000000 alt_irq_entry
00002944 g     F .text	00000018 __fp_unlock_all
0000ee78 g     O .rwdata	00000008 alt_fs_list
0000aa4c g     F .text	0000005c alt_up_rs232_enable_read_interrupt
000074ec g     F .text	00000050 alt_write_flash_command_32bit_device_8bit_mode
0000abc8 g     F .text	00000040 alt_up_rs232_write_data
00000020 g       *ABS*	00000000 __ram_exceptions_start
0000eea8 g       *ABS*	00000000 _edata
00010e74 g       *ABS*	00000000 _end
0000b5e0 g     F .text	00000068 alt_flash_open_dev
00000248 g       *ABS*	00000000 __ram_exceptions_end
00008cec g     F .text	000000f0 altera_avalon_jtag_uart_ioctl
00004794 g     F .text	0000007c __swrite
0000ee74 g     O .rwdata	00000004 __malloc_trim_threshold
0000c800 g     F .text	00000038 exit
0000369c g     F .text	000000c4 _fwalk_reent
00000e8c g     F .text	000000f0 .hidden __floatunsisf
0000a4c4 g     F .text	000000c8 alt_up_ps2_init
0000b648 g     F .text	00000054 alt_flash_close_dev
000059b8 g     F .text	00000074 .hidden __modsi3
08000000 g       *ABS*	00000000 __alt_data_end
00000020 g     F .exceptions	00000000 alt_exception
00002920 g     F .text	00000004 __sfp_lock_release
00000000 g       *ABS*	00000000 __alt_mem_sdram
0000a04c g     F .text	00000078 alt_up_character_lcd_string
00000530 g     F .text	000000c0 MTL_box
0000295c g     F .text	000000f4 _fopen_r
0000ccf8 g     F .text	00000034 _exit
0000b0bc g     F .text	0000012c alt_alarm_start
00003760 g     F .text	000001bc __smakebuf_r
00007698 g     F .text	00000034 alt_write_native_32bit
0000a6bc g     F .text	00000068 alt_up_ps2_wait_for_ack
00004874 g     F .text	00000098 strlen
000061ac g     F .text	00000154 open
00001828 g     F .text	000000dc .hidden __gedf2
00006e48 g     F .text	0000008c alt_flash_cfi_get_info
0000b7c0 g     F .text	00000034 alt_icache_flush_all
0000a114 g     F .text	00000074 alt_up_character_lcd_set_cursor_pos
0000ee9c g     O .rwdata	00000004 alt_priority_mask
0000a8ec g     F .text	0000008c alt_up_ps2_read_fd
0000eea0 g     O .rwdata	00000008 alt_alarm_list
0000b388 g     F .text	00000060 _do_ctors
0000ab08 g     F .text	00000040 alt_up_rs232_get_used_space_in_read_FIFO
00005b24 g     F .text	000000d0 close
0000bc7c g     F .text	00000068 alt_program_amd
00005e54 g     F .text	00000084 alt_load
00003930 g     F .text	00000014 free
00002924 g     F .text	00000004 __sinit_lock_acquire
0000958c g     F .text	00000134 check_directory_header



Disassembly of section .entry:

00000000 <__reset>:
#if NIOS2_ICACHE_SIZE > 0 && defined(ALT_ALLOW_CODE_AT_RESET) && (!defined(ALT_SIM_OPTIMIZE) || defined(NIOS2_ECC_PRESENT))
    /* Assume the instruction cache size is always a power of two. */
#if NIOS2_ICACHE_SIZE > 0x8000
    movhi r2, %hi(NIOS2_ICACHE_SIZE)
#else
    movui r2, NIOS2_ICACHE_SIZE
   0:	00840014 	movui	r2,4096
#endif

0:
    initi r2
   4:	1001483a 	initi	r2
    addi r2, r2, -NIOS2_ICACHE_LINE_SIZE
   8:	10bff804 	addi	r2,r2,-32
    bgt r2, zero, 0b
   c:	00bffd16 	blt	zero,r2,4 <__alt_mem_onchip_memory+0xf7800004>
 * Jump to the _start entry point in the .text section if reset code
 * is allowed or if optimizing for RTL simulation.
 */
#if defined(ALT_ALLOW_CODE_AT_RESET) || defined(ALT_SIM_OPTIMIZE)
    /* Jump to the _start entry point in the .text section. */
    movhi r1, %hi(_start)
  10:	00400034 	movhi	at,0
    ori r1, r1, %lo(_start)
  14:	08409214 	ori	at,at,584
    jmp r1
  18:	0800683a 	jmp	at
  1c:	00000000 	call	0 <__reset>

Disassembly of section .exceptions:

00000020 <alt_exception>:

#else /* ALT_EXCEPTION_STACK disabled */
        /* 
         * Reserve space on normal stack for registers about to be pushed.
         */
        addi  sp, sp, -76
  20:	deffed04 	addi	sp,sp,-76
         * documentation for details).
         *
         * Leave a gap in the stack frame at 4(sp) for the muldiv handler to
         * store zero into.
         */
        stw   ra,  0(sp)
  24:	dfc00015 	stw	ra,0(sp)
        stw   r1,   8(sp)
  28:	d8400215 	stw	at,8(sp)
        stw   r2,  12(sp)
  2c:	d8800315 	stw	r2,12(sp)
        stw   r3,  16(sp)
  30:	d8c00415 	stw	r3,16(sp)
        stw   r4,  20(sp)
  34:	d9000515 	stw	r4,20(sp)
        stw   r5,  24(sp)
  38:	d9400615 	stw	r5,24(sp)
        stw   r6,  28(sp)
  3c:	d9800715 	stw	r6,28(sp)
        stw   r7,  32(sp)
  40:	d9c00815 	stw	r7,32(sp)
        rdctl r5, estatus   /* Read early to avoid usage stall */
  44:	000b307a 	rdctl	r5,estatus
        stw   r8,  36(sp)
  48:	da000915 	stw	r8,36(sp)
        stw   r9,  40(sp)
  4c:	da400a15 	stw	r9,40(sp)
        stw   r10, 44(sp)
  50:	da800b15 	stw	r10,44(sp)
        stw   r11, 48(sp)
  54:	dac00c15 	stw	r11,48(sp)
        stw   r12, 52(sp)
  58:	db000d15 	stw	r12,52(sp)
        stw   r13, 56(sp)
  5c:	db400e15 	stw	r13,56(sp)
        stw   r14, 60(sp)
  60:	db800f15 	stw	r14,60(sp)
        stw   r15, 64(sp)
  64:	dbc01015 	stw	r15,64(sp)
        /*
         * ea-4 contains the address of the instruction being executed
         * when the exception occured. For interrupt exceptions, we will
         * will be re-issue the isntruction. Store it in 72(sp)
         */
        stw   r5,  68(sp)  /* estatus */
  68:	d9401115 	stw	r5,68(sp)
        addi  r15, ea, -4  /* instruction that caused exception */
  6c:	ebffff04 	addi	r15,ea,-4
        stw   r15,  72(sp)
  70:	dbc01215 	stw	r15,72(sp)
#else
        /*
         * Test to see if the exception was a software exception or caused 
         * by an external interrupt, and vector accordingly.
         */
        rdctl r4, ipending
  74:	0009313a 	rdctl	r4,ipending
        andi  r2, r5, 1
  78:	2880004c 	andi	r2,r5,1
        beq   r2, zero, .Lnot_irq
  7c:	10000326 	beq	r2,zero,8c <alt_exception+0x6c>
        beq   r4, zero, .Lnot_irq
  80:	20000226 	beq	r4,zero,8c <alt_exception+0x6c>
        /*
         * Now that all necessary registers have been preserved, call 
         * alt_irq_handler() to process the interrupts.
         */

        call alt_irq_handler
  84:	00000fc0 	call	fc <alt_irq_handler>

        .section .exceptions.irqreturn, "xa"

        br    .Lexception_exit
  88:	00000706 	br	a8 <alt_exception+0x88>
         * upon completion, so we write ea (address of instruction *after*
         * the one where the exception occured) into 72(sp). The actual
         * instruction that caused the exception is written in r2, which these
         * handlers will utilize.
         */
        stw ea, 72(sp) /* EA is PC+4 so will skip over instruction causing exception */
  8c:	df401215 	stw	ea,72(sp)
.Lunknown_16bit:
        addi.n r4, r4, 2 /* Need PC+2 to skip over instruction causing exception */
        stw r4, 72(sp)

#else /* CDX is not Enabled and all instructions are 32bits */
        ldw r2, -4(ea) /* Instruction value that caused exception */
  90:	e8bfff17 	ldw	r2,-4(ea)
         * debugger is present) or go into an infinite loop since the
         * handling behavior is undefined; in that case we will not return here.
         */

        /* Load exception-causing address as first argument (r4) */
        addi   r4, ea, -4
  94:	e93fff04 	addi	r4,ea,-4

        /* Call the instruction-exception entry */
        call   alt_instruction_exception_entry
  98:	00001d40 	call	1d4 <alt_instruction_exception_entry>
         * instruction
         *
         * Return code was 0: Skip. The instruction after the exception is
         * already stored in 72(sp).
         */
        bne   r2, r0, .Lexception_exit
  9c:	1000021e 	bne	r2,zero,a8 <alt_exception+0x88>

        /*
         * Otherwise, modify 72(sp) to re-issue the instruction that caused the
         * exception.
         */
        addi  r15, ea, -4  /* instruction that caused exception */
  a0:	ebffff04 	addi	r15,ea,-4
        stw   r15,  72(sp)
  a4:	dbc01215 	stw	r15,72(sp)
        /* 
         * Restore the saved registers, so that all general purpose registers 
         * have been restored to their state at the time the interrupt occured.
         */

        ldw   r5,  68(sp)
  a8:	d9401117 	ldw	r5,68(sp)
        ldw   ea,  72(sp)  /* This becomes the PC once eret is executed */
  ac:	df401217 	ldw	ea,72(sp)
        ldw   ra,   0(sp)
  b0:	dfc00017 	ldw	ra,0(sp)

        wrctl estatus, r5
  b4:	2801707a 	wrctl	estatus,r5

        ldw   r1,   8(sp)
  b8:	d8400217 	ldw	at,8(sp)
        ldw   r2,  12(sp)
  bc:	d8800317 	ldw	r2,12(sp)
        ldw   r3,  16(sp)
  c0:	d8c00417 	ldw	r3,16(sp)
        ldw   r4,  20(sp)
  c4:	d9000517 	ldw	r4,20(sp)
        ldw   r5,  24(sp)
  c8:	d9400617 	ldw	r5,24(sp)
        ldw   r6,  28(sp)
  cc:	d9800717 	ldw	r6,28(sp)
        ldw   r7,  32(sp)
  d0:	d9c00817 	ldw	r7,32(sp)

#if defined(ALT_EXCEPTION_STACK) && defined(ALT_STACK_CHECK)
        ldw   et, %gprel(alt_exception_old_stack_limit)(gp)
#endif

        ldw   r8,  36(sp)
  d4:	da000917 	ldw	r8,36(sp)
        ldw   r9,  40(sp)
  d8:	da400a17 	ldw	r9,40(sp)
        ldw   r10, 44(sp)
  dc:	da800b17 	ldw	r10,44(sp)
        ldw   r11, 48(sp)
  e0:	dac00c17 	ldw	r11,48(sp)
        ldw   r12, 52(sp)
  e4:	db000d17 	ldw	r12,52(sp)
        ldw   r13, 56(sp)
  e8:	db400e17 	ldw	r13,56(sp)
        ldw   r14, 60(sp)
  ec:	db800f17 	ldw	r14,60(sp)
        ldw   r15, 64(sp)
  f0:	dbc01017 	ldw	r15,64(sp)
        stw   et, %gprel(alt_stack_limit_value)(gp)
        stw   zero, %gprel(alt_exception_old_stack_limit)(gp)
#endif /* ALT_STACK_CHECK */
        ldw   sp,  76(sp)
#else /* ALT_EXCEPTION_STACK disabled */
        addi  sp, sp, 76
  f4:	dec01304 	addi	sp,sp,76

        /*
         * Return to the interrupted instruction.
         */

        eret
  f8:	ef80083a 	eret

000000fc <alt_irq_handler>:
 * instruction is present if the macro ALT_CI_INTERRUPT_VECTOR defined.
 */

void alt_irq_handler (void) __attribute__ ((section (".exceptions")));
void alt_irq_handler (void)
{
  fc:	defff904 	addi	sp,sp,-28
 100:	dfc00615 	stw	ra,24(sp)
 104:	df000515 	stw	fp,20(sp)
 108:	df000504 	addi	fp,sp,20
  
  /*
   * Notify the operating system that we are at interrupt level.
   */ 
  
  ALT_OS_INT_ENTER();
 10c:	0001883a 	nop
#ifndef NIOS2_EIC_PRESENT
static ALT_INLINE alt_u32 ALT_ALWAYS_INLINE alt_irq_pending (void)
{
  alt_u32 active;

  NIOS2_READ_IPENDING (active);
 110:	0005313a 	rdctl	r2,ipending
 114:	e0bffe15 	stw	r2,-8(fp)

  return active;
 118:	e0bffe17 	ldw	r2,-8(fp)
   * Consider the case where the high priority interupt is asserted during
   * the interrupt entry sequence for a lower priority interrupt to see why
   * this is the case.
   */

  active = alt_irq_pending ();
 11c:	e0bffb15 	stw	r2,-20(fp)

  do
  {
    i = 0;
 120:	e03ffd15 	stw	zero,-12(fp)
    mask = 1;
 124:	00800044 	movi	r2,1
 128:	e0bffc15 	stw	r2,-16(fp)
     * called to clear the interrupt condition.
     */

    do
    {
      if (active & mask)
 12c:	e0fffb17 	ldw	r3,-20(fp)
 130:	e0bffc17 	ldw	r2,-16(fp)
 134:	1884703a 	and	r2,r3,r2
 138:	10001526 	beq	r2,zero,190 <alt_irq_handler+0x94>
      { 
#ifdef ALT_ENHANCED_INTERRUPT_API_PRESENT
        alt_irq[i].handler(alt_irq[i].context); 
#else
        alt_irq[i].handler(alt_irq[i].context, i); 
 13c:	00800074 	movhi	r2,1
 140:	10835d04 	addi	r2,r2,3444
 144:	e0fffd17 	ldw	r3,-12(fp)
 148:	180690fa 	slli	r3,r3,3
 14c:	10c5883a 	add	r2,r2,r3
 150:	10c00017 	ldw	r3,0(r2)
 154:	00800074 	movhi	r2,1
 158:	10835d04 	addi	r2,r2,3444
 15c:	e13ffd17 	ldw	r4,-12(fp)
 160:	200890fa 	slli	r4,r4,3
 164:	1105883a 	add	r2,r2,r4
 168:	10800104 	addi	r2,r2,4
 16c:	10800017 	ldw	r2,0(r2)
 170:	e17ffd17 	ldw	r5,-12(fp)
 174:	1009883a 	mov	r4,r2
 178:	183ee83a 	callr	r3
#endif
        break;
 17c:	0001883a 	nop
#ifndef NIOS2_EIC_PRESENT
static ALT_INLINE alt_u32 ALT_ALWAYS_INLINE alt_irq_pending (void)
{
  alt_u32 active;

  NIOS2_READ_IPENDING (active);
 180:	0005313a 	rdctl	r2,ipending
 184:	e0bfff15 	stw	r2,-4(fp)

  return active;
 188:	e0bfff17 	ldw	r2,-4(fp)
 18c:	00000706 	br	1ac <alt_irq_handler+0xb0>
      }
      mask <<= 1;
 190:	e0bffc17 	ldw	r2,-16(fp)
 194:	1085883a 	add	r2,r2,r2
 198:	e0bffc15 	stw	r2,-16(fp)
      i++;
 19c:	e0bffd17 	ldw	r2,-12(fp)
 1a0:	10800044 	addi	r2,r2,1
 1a4:	e0bffd15 	stw	r2,-12(fp)

    } while (1);
 1a8:	003fe006 	br	12c <__alt_mem_onchip_memory+0xf780012c>

    active = alt_irq_pending ();
 1ac:	e0bffb15 	stw	r2,-20(fp)
    
  } while (active);
 1b0:	e0bffb17 	ldw	r2,-20(fp)
 1b4:	103fda1e 	bne	r2,zero,120 <__alt_mem_onchip_memory+0xf7800120>

  /*
   * Notify the operating system that interrupt processing is complete.
   */ 

  ALT_OS_INT_EXIT();
 1b8:	0001883a 	nop
}
 1bc:	0001883a 	nop
 1c0:	e037883a 	mov	sp,fp
 1c4:	dfc00117 	ldw	ra,4(sp)
 1c8:	df000017 	ldw	fp,0(sp)
 1cc:	dec00204 	addi	sp,sp,8
 1d0:	f800283a 	ret

000001d4 <alt_instruction_exception_entry>:
 * that handler if it has been registered. Absent a handler, it will
 * break break or hang as discussed below.
 */
int 
alt_instruction_exception_entry (alt_u32 exception_pc)
{
 1d4:	defffb04 	addi	sp,sp,-20
 1d8:	dfc00415 	stw	ra,16(sp)
 1dc:	df000315 	stw	fp,12(sp)
 1e0:	df000304 	addi	fp,sp,12
 1e4:	e13fff15 	stw	r4,-4(fp)
 * NIOS2_EXCEPTION_CAUSE_NOT_PRESENT. Your handling routine should
 * check the validity of the cause argument before proceeding.
 */
#ifdef NIOS2_HAS_EXTRA_EXCEPTION_INFO
  /* Get exception cause & "badaddr" */
  NIOS2_READ_EXCEPTION(cause);
 1e8:	000531fa 	rdctl	r2,exception
 1ec:	e0bffd15 	stw	r2,-12(fp)
  cause = ( (cause & NIOS2_EXCEPTION_REG_CAUSE_MASK) >>
 1f0:	e0bffd17 	ldw	r2,-12(fp)
 1f4:	10801f0c 	andi	r2,r2,124
 1f8:	1004d0ba 	srli	r2,r2,2
 1fc:	e0bffd15 	stw	r2,-12(fp)
              NIOS2_EXCEPTION_REG_CAUSE_OFST );

  NIOS2_READ_BADADDR(badaddr);
 200:	0005333a 	rdctl	r2,badaddr
 204:	e0bffe15 	stw	r2,-8(fp)
#else
  cause = NIOS2_EXCEPTION_CAUSE_NOT_PRESENT;
  badaddr = 0;
#endif /* NIOS2_HAS_EXTRA_EXCEPTION_INFO */

  if(alt_instruction_exception_handler) {
 208:	d0a7b817 	ldw	r2,-24864(gp)
 20c:	10000726 	beq	r2,zero,22c <alt_instruction_exception_entry+0x58>
     * Call handler. Its return value indicates whether the exception-causing
     * instruction should be re-issued. The code that called us,
     * alt_eceptions_entry.S, will look at this value and adjust the ea
     * register as necessary
     */
    return alt_instruction_exception_handler(cause, exception_pc, badaddr);
 210:	d0a7b817 	ldw	r2,-24864(gp)
 214:	e0fffd17 	ldw	r3,-12(fp)
 218:	e1bffe17 	ldw	r6,-8(fp)
 21c:	e17fff17 	ldw	r5,-4(fp)
 220:	1809883a 	mov	r4,r3
 224:	103ee83a 	callr	r2
 228:	00000206 	br	234 <alt_instruction_exception_entry+0x60>
   *    (a peripheral which negates its interrupt output before its
   *    interrupt handler has been executed will cause spurious interrupts)
   */
  else {
#ifdef NIOS2_HAS_DEBUG_STUB
    NIOS2_BREAK();
 22c:	003da03a 	break	0
      ;
#endif /* NIOS2_HAS_DEBUG_STUB */
  }

  /* We should not get here. Remove compiler warning. */
  return NIOS2_EXCEPTION_RETURN_REISSUE_INST;
 230:	0005883a 	mov	r2,zero
}
 234:	e037883a 	mov	sp,fp
 238:	dfc00117 	ldw	ra,4(sp)
 23c:	df000017 	ldw	fp,0(sp)
 240:	dec00204 	addi	sp,sp,8
 244:	f800283a 	ret

Disassembly of section .text:

00000248 <_start>:

    /* Assume the data cache size is always a power of two. */
#if NIOS2_DCACHE_SIZE > 0x8000
    movhi r2, %hi(NIOS2_DCACHE_SIZE)
#else
    movui r2, NIOS2_DCACHE_SIZE
     248:	00820014 	movui	r2,2048
#endif

0:
    initd 0(r2)
     24c:	10000033 	initd	0(r2)
#ifdef NIOS2_ECC_PRESENT
    addi r2, r2, -4
#else
    addi r2, r2, -NIOS2_DCACHE_LINE_SIZE
     250:	10bff804 	addi	r2,r2,-32
#endif
    bgt r2, zero, 0b
     254:	00bffd16 	blt	zero,r2,24c <__alt_mem_onchip_memory+0xf780024c>

    /*
     * Now that the caches are initialized, set up the stack pointer and global pointer.
     * The values provided by the linker are assumed to be correctly aligned.
     */
    movhi sp, %hi(__alt_stack_pointer)
     258:	06c20034 	movhi	sp,2048
    ori sp, sp, %lo(__alt_stack_pointer)
     25c:	dec00014 	ori	sp,sp,0
    movhi gp, %hi(_gp)
     260:	06800074 	movhi	gp,1
    ori gp, gp, %lo(_gp)
     264:	d69b9a14 	ori	gp,gp,28264
 */
#ifndef ALT_SIM_OPTIMIZE
    /* Log that the BSS is about to be cleared. */
    ALT_LOG_PUTS(alt_log_msg_bss)

    movhi r2, %hi(__bss_start)
     268:	00800074 	movhi	r2,1
    ori r2, r2, %lo(__bss_start)
     26c:	10834814 	ori	r2,r2,3360

    movhi r3, %hi(__bss_end)
     270:	00c00074 	movhi	r3,1
    ori r3, r3, %lo(__bss_end)
     274:	18c39d14 	ori	r3,r3,3700

    beq r2, r3, 1f
     278:	10c00326 	beq	r2,r3,288 <_start+0x40>

0:
    stw zero, (r2)
     27c:	10000015 	stw	zero,0(r2)
    addi r2, r2, 4
     280:	10800104 	addi	r2,r2,4
    bltu r2, r3, 0b
     284:	10fffd36 	bltu	r2,r3,27c <__alt_mem_onchip_memory+0xf780027c>
     * section aren't defined until alt_load() has been called).
     */
    mov   et, zero
#endif

    call alt_load
     288:	0005e540 	call	5e54 <alt_load>

    /* Log that alt_main is about to be called. */
    ALT_LOG_PUTS(alt_log_msg_alt_main)

    /* Call the C entry point. It should never return. */
    call alt_main
     28c:	0005fe80 	call	5fe8 <alt_main>

00000290 <alt_after_alt_main>:

    /* Wait in infinite loop in case alt_main does return. */
alt_after_alt_main:
    br alt_after_alt_main
     290:	003fff06 	br	290 <__alt_mem_onchip_memory+0xf7800290>

00000294 <main>:
void MTL_text (int, int, char *);
void MTL_box (int, int, int, int, short);
void ReadImage(const char *,byte **, int32 *, int32 *, int32 *);

int main(void)
{
     294:	deffe904 	addi	sp,sp,-92
     298:	dfc01615 	stw	ra,88(sp)
     29c:	df001515 	stw	fp,84(sp)
     2a0:	df001504 	addi	fp,sp,84
    /*byte *pixels;
    int32 width;
    int32 height;
    int32 bytesPerPixel;*/

	printf("Hola desde Nios II\n");
     2a4:	01000074 	movhi	r4,1
     2a8:	21334b04 	addi	r4,r4,-13012
     2ac:	00044e00 	call	44e0 <puts>

	/* mensaje a visualizar en la VGA y en el LCD */
	char text_top_row[40] = "Chroma Key\0";
     2b0:	00800074 	movhi	r2,1
     2b4:	10b35004 	addi	r2,r2,-12992
     2b8:	10c00017 	ldw	r3,0(r2)
     2bc:	e0ffec15 	stw	r3,-80(fp)
     2c0:	10c00117 	ldw	r3,4(r2)
     2c4:	e0ffed15 	stw	r3,-76(fp)
     2c8:	10800217 	ldw	r2,8(r2)
     2cc:	e0bfee15 	stw	r2,-72(fp)
     2d0:	e03fef15 	stw	zero,-68(fp)
     2d4:	e03ff015 	stw	zero,-64(fp)
     2d8:	e03ff115 	stw	zero,-60(fp)
     2dc:	e03ff215 	stw	zero,-56(fp)
     2e0:	e03ff315 	stw	zero,-52(fp)
     2e4:	e03ff415 	stw	zero,-48(fp)
     2e8:	e03ff515 	stw	zero,-44(fp)
	char text_bottom_row[40] = "Grupo 4\0";
     2ec:	00800074 	movhi	r2,1
     2f0:	10b35a04 	addi	r2,r2,-12952
     2f4:	10c00017 	ldw	r3,0(r2)
     2f8:	e0fff615 	stw	r3,-40(fp)
     2fc:	10c00117 	ldw	r3,4(r2)
     300:	e0fff715 	stw	r3,-36(fp)
     304:	10800203 	ldbu	r2,8(r2)
     308:	e0bff805 	stb	r2,-32(fp)
     30c:	e0bff844 	addi	r2,fp,-31
     310:	00c007c4 	movi	r3,31
     314:	180d883a 	mov	r6,r3
     318:	000b883a 	mov	r5,zero
     31c:	1009883a 	mov	r4,r2
     320:	00042980 	call	4298 <memset>

	/* escribe el texto en el LCD */
	LCD_cursor (0,0);						// fija el cursor del LCD en la fila superior
     324:	000b883a 	mov	r5,zero
     328:	0009883a 	mov	r4,zero
     32c:	00003880 	call	388 <LCD_cursor>
	LCD_text (text_top_row);
     330:	e13fec04 	addi	r4,fp,-80
     334:	00003f40 	call	3f4 <LCD_text>
	LCD_cursor (0,1);						// fija el cursor del LCD en la fila inferior
     338:	01400044 	movi	r5,1
     33c:	0009883a 	mov	r4,zero
     340:	00003880 	call	388 <LCD_cursor>
	LCD_text (text_bottom_row);
     344:	e0bff604 	addi	r2,fp,-40
     348:	1009883a 	mov	r4,r2
     34c:	00003f40 	call	3f4 <LCD_text>
	LCD_cursor_off ();						// apaga el cursor del LCD
     350:	00004600 	call	460 <LCD_cursor_off>

	MTL_box (0, 0, 50*8-1, 30*8-1, 0x187F); // Pinta de Negro toda la pantalla
     354:	00861fc4 	movi	r2,6271
     358:	d8800015 	stw	r2,0(sp)
     35c:	01c03bc4 	movi	r7,239
     360:	018063c4 	movi	r6,399
     364:	000b883a 	mov	r5,zero
     368:	0009883a 	mov	r4,zero
     36c:	00005300 	call	530 <MTL_box>
     370:	0005883a 	mov	r2,zero
	//ReadImage("/mnt/rozipfs/imagen00.bmp",&pixels, &width, &height, &bytesPerPixel);
}
     374:	e037883a 	mov	sp,fp
     378:	dfc00117 	ldw	ra,4(sp)
     37c:	df000017 	ldw	fp,0(sp)
     380:	dec00204 	addi	sp,sp,8
     384:	f800283a 	ret

00000388 <LCD_cursor>:

/****************************************************************************************
 * Subrutina para mover el cursor del LCD
****************************************************************************************/
void LCD_cursor(int x, int y)
{
     388:	defffb04 	addi	sp,sp,-20
     38c:	df000415 	stw	fp,16(sp)
     390:	df000404 	addi	fp,sp,16
     394:	e13ffe15 	stw	r4,-8(fp)
     398:	e17fff15 	stw	r5,-4(fp)
  	volatile char * LCD_display_ptr = (char *) CHAR_LCD_BASE;	// 16x2 character display
     39c:	00840034 	movhi	r2,4096
     3a0:	10802404 	addi	r2,r2,144
     3a4:	e0bffd15 	stw	r2,-12(fp)
	char instruction;

	instruction = x;
     3a8:	e0bffe17 	ldw	r2,-8(fp)
     3ac:	e0bffc05 	stb	r2,-16(fp)
	if (y != 0) instruction |= 0x40;			// activar el bit 6 para la fila inferior
     3b0:	e0bfff17 	ldw	r2,-4(fp)
     3b4:	10000326 	beq	r2,zero,3c4 <LCD_cursor+0x3c>
     3b8:	e0bffc03 	ldbu	r2,-16(fp)
     3bc:	10801014 	ori	r2,r2,64
     3c0:	e0bffc05 	stb	r2,-16(fp)
	instruction |= 0x80;						// hay que activar el bit 7 para indicar el lugar
     3c4:	e0fffc03 	ldbu	r3,-16(fp)
     3c8:	00bfe004 	movi	r2,-128
     3cc:	1884b03a 	or	r2,r3,r2
     3d0:	e0bffc05 	stb	r2,-16(fp)
	*(LCD_display_ptr) = instruction;			// escribe registro de instrucciones del LCD
     3d4:	e0bffd17 	ldw	r2,-12(fp)
     3d8:	e0fffc03 	ldbu	r3,-16(fp)
     3dc:	10c00005 	stb	r3,0(r2)
}
     3e0:	0001883a 	nop
     3e4:	e037883a 	mov	sp,fp
     3e8:	df000017 	ldw	fp,0(sp)
     3ec:	dec00104 	addi	sp,sp,4
     3f0:	f800283a 	ret

000003f4 <LCD_text>:

/****************************************************************************************
 * Subrutina para enviar una cadena de texto al LCD
****************************************************************************************/
void LCD_text(char * text_ptr)
{
     3f4:	defffd04 	addi	sp,sp,-12
     3f8:	df000215 	stw	fp,8(sp)
     3fc:	df000204 	addi	fp,sp,8
     400:	e13fff15 	stw	r4,-4(fp)
  	volatile char * LCD_display_ptr = (char *) CHAR_LCD_BASE;	// 16x2 character display
     404:	00840034 	movhi	r2,4096
     408:	10802404 	addi	r2,r2,144
     40c:	e0bffe15 	stw	r2,-8(fp)

	while ( *(text_ptr) )
     410:	00000806 	br	434 <LCD_text+0x40>
	{
		*(LCD_display_ptr + 1) = *(text_ptr);	// escribe los datos en el LCD
     414:	e0bffe17 	ldw	r2,-8(fp)
     418:	10800044 	addi	r2,r2,1
     41c:	e0ffff17 	ldw	r3,-4(fp)
     420:	18c00003 	ldbu	r3,0(r3)
     424:	10c00005 	stb	r3,0(r2)
		++text_ptr;
     428:	e0bfff17 	ldw	r2,-4(fp)
     42c:	10800044 	addi	r2,r2,1
     430:	e0bfff15 	stw	r2,-4(fp)
****************************************************************************************/
void LCD_text(char * text_ptr)
{
  	volatile char * LCD_display_ptr = (char *) CHAR_LCD_BASE;	// 16x2 character display

	while ( *(text_ptr) )
     434:	e0bfff17 	ldw	r2,-4(fp)
     438:	10800003 	ldbu	r2,0(r2)
     43c:	10803fcc 	andi	r2,r2,255
     440:	1080201c 	xori	r2,r2,128
     444:	10bfe004 	addi	r2,r2,-128
     448:	103ff21e 	bne	r2,zero,414 <__alt_mem_onchip_memory+0xf7800414>
	{
		*(LCD_display_ptr + 1) = *(text_ptr);	// escribe los datos en el LCD
		++text_ptr;
	}
}
     44c:	0001883a 	nop
     450:	e037883a 	mov	sp,fp
     454:	df000017 	ldw	fp,0(sp)
     458:	dec00104 	addi	sp,sp,4
     45c:	f800283a 	ret

00000460 <LCD_cursor_off>:

/****************************************************************************************
 * Subrutina para apagar el cursor del LCD
****************************************************************************************/
void LCD_cursor_off(void)
{
     460:	defffe04 	addi	sp,sp,-8
     464:	df000115 	stw	fp,4(sp)
     468:	df000104 	addi	fp,sp,4
  	volatile char * LCD_display_ptr = (char *) CHAR_LCD_BASE;	// 16x2 character display
     46c:	00840034 	movhi	r2,4096
     470:	10802404 	addi	r2,r2,144
     474:	e0bfff15 	stw	r2,-4(fp)
	*(LCD_display_ptr) = 0x0C;										// desactiva el curso del LCD
     478:	e0bfff17 	ldw	r2,-4(fp)
     47c:	00c00304 	movi	r3,12
     480:	10c00005 	stb	r3,0(r2)
}
     484:	0001883a 	nop
     488:	e037883a 	mov	sp,fp
     48c:	df000017 	ldw	fp,0(sp)
     490:	dec00104 	addi	sp,sp,4
     494:	f800283a 	ret

00000498 <MTL_text>:

/****************************************************************************************
 * Subrutina para enviar una cadena de texto a la pantalla MTL
****************************************************************************************/
void MTL_text(int x, int y, char * text_ptr)
{
     498:	defffa04 	addi	sp,sp,-24
     49c:	df000515 	stw	fp,20(sp)
     4a0:	df000504 	addi	fp,sp,20
     4a4:	e13ffd15 	stw	r4,-12(fp)
     4a8:	e17ffe15 	stw	r5,-8(fp)
     4ac:	e1bfff15 	stw	r6,-4(fp)
	int offset;
  	volatile char * character_buffer = (char *)  MTL_CHAR_BUFFER_AVALON_CHAR_BUFFER_SLAVE_BASE;	// MTL character buffer
     4b0:	00840034 	movhi	r2,4096
     4b4:	10860004 	addi	r2,r2,6144
     4b8:	e0bffc15 	stw	r2,-16(fp)

  	/* asume que la cadena de texto comienza en la primera fila */
	offset = (y << 6) + x;
     4bc:	e0bffe17 	ldw	r2,-8(fp)
     4c0:	100691ba 	slli	r3,r2,6
     4c4:	e0bffd17 	ldw	r2,-12(fp)
     4c8:	1885883a 	add	r2,r3,r2
     4cc:	e0bffb15 	stw	r2,-20(fp)
	while ( *(text_ptr) )
     4d0:	00000c06 	br	504 <MTL_text+0x6c>
	{
		*(character_buffer + offset) = *(text_ptr);	// escribe en el buffer
     4d4:	e0bffb17 	ldw	r2,-20(fp)
     4d8:	e0fffc17 	ldw	r3,-16(fp)
     4dc:	1885883a 	add	r2,r3,r2
     4e0:	e0ffff17 	ldw	r3,-4(fp)
     4e4:	18c00003 	ldbu	r3,0(r3)
     4e8:	10c00005 	stb	r3,0(r2)
		++text_ptr;
     4ec:	e0bfff17 	ldw	r2,-4(fp)
     4f0:	10800044 	addi	r2,r2,1
     4f4:	e0bfff15 	stw	r2,-4(fp)
		++offset;
     4f8:	e0bffb17 	ldw	r2,-20(fp)
     4fc:	10800044 	addi	r2,r2,1
     500:	e0bffb15 	stw	r2,-20(fp)
	int offset;
  	volatile char * character_buffer = (char *)  MTL_CHAR_BUFFER_AVALON_CHAR_BUFFER_SLAVE_BASE;	// MTL character buffer

  	/* asume que la cadena de texto comienza en la primera fila */
	offset = (y << 6) + x;
	while ( *(text_ptr) )
     504:	e0bfff17 	ldw	r2,-4(fp)
     508:	10800003 	ldbu	r2,0(r2)
     50c:	10803fcc 	andi	r2,r2,255
     510:	1080201c 	xori	r2,r2,128
     514:	10bfe004 	addi	r2,r2,-128
     518:	103fee1e 	bne	r2,zero,4d4 <__alt_mem_onchip_memory+0xf78004d4>
	{
		*(character_buffer + offset) = *(text_ptr);	// escribe en el buffer
		++text_ptr;
		++offset;
	}
}
     51c:	0001883a 	nop
     520:	e037883a 	mov	sp,fp
     524:	df000017 	ldw	fp,0(sp)
     528:	dec00104 	addi	sp,sp,4
     52c:	f800283a 	ret

00000530 <MTL_box>:

/****************************************************************************************
 * Dibujar un rectangulo en la pantalla MTL
****************************************************************************************/
void MTL_box(int x1, int y1, int x2, int y2, short pixel_color)
{
     530:	defff504 	addi	sp,sp,-44
     534:	df000a15 	stw	fp,40(sp)
     538:	df000a04 	addi	fp,sp,40
     53c:	e13ffb15 	stw	r4,-20(fp)
     540:	e17ffc15 	stw	r5,-16(fp)
     544:	e1bffd15 	stw	r6,-12(fp)
     548:	e1fffe15 	stw	r7,-8(fp)
     54c:	e0800117 	ldw	r2,4(fp)
     550:	e0bfff0d 	sth	r2,-4(fp)
	int offset, row, col;
	int SRAM_BASE_SIN_CACHE = (SRAM_BASE + 0x080000000 + 0x0100000);  //Activando el bit ms significativo se elude la cache de datos
     554:	00a24434 	movhi	r2,35088
     558:	e0bff815 	stw	r2,-32(fp)
  	volatile short * pixel_buffer = (short *) SRAM_BASE_SIN_CACHE;	// MTL pixel buffer
     55c:	e0bff817 	ldw	r2,-32(fp)
     560:	e0bff915 	stw	r2,-28(fp)

  	/* se asume que las coordenadas del rectangulo son correctas */
	for (row = y1; row <= y2; row++)
     564:	e0bffc17 	ldw	r2,-16(fp)
     568:	e0bff615 	stw	r2,-40(fp)
     56c:	00001806 	br	5d0 <MTL_box+0xa0>
	{
		col = x1;
     570:	e0bffb17 	ldw	r2,-20(fp)
     574:	e0bff715 	stw	r2,-36(fp)
		while (col <= x2)
     578:	00000f06 	br	5b8 <MTL_box+0x88>
		{
			offset = (row << 9) + col;
     57c:	e0bff617 	ldw	r2,-40(fp)
     580:	1006927a 	slli	r3,r2,9
     584:	e0bff717 	ldw	r2,-36(fp)
     588:	1885883a 	add	r2,r3,r2
     58c:	e0bffa15 	stw	r2,-24(fp)
			*(pixel_buffer + offset) = pixel_color;	//procesa mitad direcciones
     590:	e0bffa17 	ldw	r2,-24(fp)
     594:	1085883a 	add	r2,r2,r2
     598:	1007883a 	mov	r3,r2
     59c:	e0bff917 	ldw	r2,-28(fp)
     5a0:	10c5883a 	add	r2,r2,r3
     5a4:	e0ffff0b 	ldhu	r3,-4(fp)
     5a8:	10c0000d 	sth	r3,0(r2)
			++col;
     5ac:	e0bff717 	ldw	r2,-36(fp)
     5b0:	10800044 	addi	r2,r2,1
     5b4:	e0bff715 	stw	r2,-36(fp)

  	/* se asume que las coordenadas del rectangulo son correctas */
	for (row = y1; row <= y2; row++)
	{
		col = x1;
		while (col <= x2)
     5b8:	e0bff717 	ldw	r2,-36(fp)
     5bc:	e0fffd17 	ldw	r3,-12(fp)
     5c0:	18bfee0e 	bge	r3,r2,57c <__alt_mem_onchip_memory+0xf780057c>
	int offset, row, col;
	int SRAM_BASE_SIN_CACHE = (SRAM_BASE + 0x080000000 + 0x0100000);  //Activando el bit ms significativo se elude la cache de datos
  	volatile short * pixel_buffer = (short *) SRAM_BASE_SIN_CACHE;	// MTL pixel buffer

  	/* se asume que las coordenadas del rectangulo son correctas */
	for (row = y1; row <= y2; row++)
     5c4:	e0bff617 	ldw	r2,-40(fp)
     5c8:	10800044 	addi	r2,r2,1
     5cc:	e0bff615 	stw	r2,-40(fp)
     5d0:	e0bff617 	ldw	r2,-40(fp)
     5d4:	e0fffe17 	ldw	r3,-8(fp)
     5d8:	18bfe50e 	bge	r3,r2,570 <__alt_mem_onchip_memory+0xf7800570>
			offset = (row << 9) + col;
			*(pixel_buffer + offset) = pixel_color;	//procesa mitad direcciones
			++col;
		}
	}
}
     5dc:	0001883a 	nop
     5e0:	e037883a 	mov	sp,fp
     5e4:	df000017 	ldw	fp,0(sp)
     5e8:	dec00104 	addi	sp,sp,4
     5ec:	f800283a 	ret

000005f0 <ReadImage>:
/****************************************************************************************
 * Lee un fichero bmp imagen guardando los datos de pixel, anchura, altura y bytes por pixel
****************************************************************************************/
void ReadImage(const char *fileName,byte **pixels, int32 *width, int32 *height, int32 *bytesPerPixel)
{
     5f0:	defff204 	addi	sp,sp,-56
     5f4:	dfc00d15 	stw	ra,52(sp)
     5f8:	df000c15 	stw	fp,48(sp)
     5fc:	df000c04 	addi	fp,sp,48
     600:	e13ffc15 	stw	r4,-16(fp)
     604:	e17ffd15 	stw	r5,-12(fp)
     608:	e1bffe15 	stw	r6,-8(fp)
     60c:	e1ffff15 	stw	r7,-4(fp)
	FILE *imageFile = fopen(fileName, "rb");
     610:	01400074 	movhi	r5,1
     614:	29736404 	addi	r5,r5,-12912
     618:	e13ffc17 	ldw	r4,-16(fp)
     61c:	0002a500 	call	2a50 <fopen>
     620:	e0bff615 	stw	r2,-40(fp)
	int32 dataOffset;
	fseek(imageFile, DATA_OFFSET_OFFSET, SEEK_SET);
     624:	000d883a 	mov	r6,zero
     628:	01400284 	movi	r5,10
     62c:	e13ff617 	ldw	r4,-40(fp)
     630:	00031000 	call	3100 <fseek>
	fread(&dataOffset, 4, 1, imageFile);
     634:	e0bffa04 	addi	r2,fp,-24
     638:	e1fff617 	ldw	r7,-40(fp)
     63c:	01800044 	movi	r6,1
     640:	01400104 	movi	r5,4
     644:	1009883a 	mov	r4,r2
     648:	0002c940 	call	2c94 <fread>
	fseek(imageFile, WIDTH_OFFSET, SEEK_SET);
     64c:	000d883a 	mov	r6,zero
     650:	01400484 	movi	r5,18
     654:	e13ff617 	ldw	r4,-40(fp)
     658:	00031000 	call	3100 <fseek>
	fread(width, 4, 1, imageFile);
     65c:	e1fff617 	ldw	r7,-40(fp)
     660:	01800044 	movi	r6,1
     664:	01400104 	movi	r5,4
     668:	e13ffe17 	ldw	r4,-8(fp)
     66c:	0002c940 	call	2c94 <fread>
	fseek(imageFile, HEIGHT_OFFSET, SEEK_SET);
     670:	000d883a 	mov	r6,zero
     674:	01400584 	movi	r5,22
     678:	e13ff617 	ldw	r4,-40(fp)
     67c:	00031000 	call	3100 <fseek>
	fread(height, 4, 1, imageFile);
     680:	e1fff617 	ldw	r7,-40(fp)
     684:	01800044 	movi	r6,1
     688:	01400104 	movi	r5,4
     68c:	e13fff17 	ldw	r4,-4(fp)
     690:	0002c940 	call	2c94 <fread>
	int16 bitsPerPixel;
	fseek(imageFile, BITS_PER_PIXEL_OFFSET, SEEK_SET);
     694:	000d883a 	mov	r6,zero
     698:	01400704 	movi	r5,28
     69c:	e13ff617 	ldw	r4,-40(fp)
     6a0:	00031000 	call	3100 <fseek>
	fread(&bitsPerPixel, 2, 1, imageFile);
     6a4:	e0bffb04 	addi	r2,fp,-20
     6a8:	e1fff617 	ldw	r7,-40(fp)
     6ac:	01800044 	movi	r6,1
     6b0:	01400084 	movi	r5,2
     6b4:	1009883a 	mov	r4,r2
     6b8:	0002c940 	call	2c94 <fread>
	*bytesPerPixel = ((int32)bitsPerPixel) / 8;
     6bc:	e0bffb0b 	ldhu	r2,-20(fp)
     6c0:	10bfffcc 	andi	r2,r2,65535
     6c4:	10a0001c 	xori	r2,r2,32768
     6c8:	10a00004 	addi	r2,r2,-32768
     6cc:	1006d0fa 	srli	r3,r2,3
     6d0:	e0800217 	ldw	r2,8(fp)
     6d4:	10c00015 	stw	r3,0(r2)

	int paddedRowSize = (int)(4 * ceil((float)(*width) / 4.0f))*(*bytesPerPixel);
     6d8:	e0bffe17 	ldw	r2,-8(fp)
     6dc:	10800017 	ldw	r2,0(r2)
     6e0:	1009883a 	mov	r4,r2
     6e4:	0000e8c0 	call	e8c <__floatunsisf>
     6e8:	1007883a 	mov	r3,r2
     6ec:	01502034 	movhi	r5,16512
     6f0:	1809883a 	mov	r4,r3
     6f4:	0000a4c0 	call	a4c <__divsf3>
     6f8:	1007883a 	mov	r3,r2
     6fc:	1805883a 	mov	r2,r3
     700:	1009883a 	mov	r4,r2
     704:	000209c0 	call	209c <__extendsfdf2>
     708:	100b883a 	mov	r5,r2
     70c:	180d883a 	mov	r6,r3
     710:	2809883a 	mov	r4,r5
     714:	300b883a 	mov	r5,r6
     718:	000086c0 	call	86c <ceil>
     71c:	1011883a 	mov	r8,r2
     720:	1813883a 	mov	r9,r3
     724:	000d883a 	mov	r6,zero
     728:	01d00434 	movhi	r7,16400
     72c:	4009883a 	mov	r4,r8
     730:	480b883a 	mov	r5,r9
     734:	00019040 	call	1904 <__muldf3>
     738:	1009883a 	mov	r4,r2
     73c:	180b883a 	mov	r5,r3
     740:	2005883a 	mov	r2,r4
     744:	2807883a 	mov	r3,r5
     748:	1009883a 	mov	r4,r2
     74c:	180b883a 	mov	r5,r3
     750:	000201c0 	call	201c <__fixdfsi>
     754:	1007883a 	mov	r3,r2
     758:	e0800217 	ldw	r2,8(fp)
     75c:	10800017 	ldw	r2,0(r2)
     760:	1885383a 	mul	r2,r3,r2
     764:	e0bff715 	stw	r2,-36(fp)
	int unpaddedRowSize = (*width)*(*bytesPerPixel);
     768:	e0bffe17 	ldw	r2,-8(fp)
     76c:	10c00017 	ldw	r3,0(r2)
     770:	e0800217 	ldw	r2,8(fp)
     774:	10800017 	ldw	r2,0(r2)
     778:	1885383a 	mul	r2,r3,r2
     77c:	e0bff815 	stw	r2,-32(fp)
	int totalSize = unpaddedRowSize*(*height);
     780:	e0bfff17 	ldw	r2,-4(fp)
     784:	10c00017 	ldw	r3,0(r2)
     788:	e0bff817 	ldw	r2,-32(fp)
     78c:	1885383a 	mul	r2,r3,r2
     790:	e0bff915 	stw	r2,-28(fp)
	*pixels = (byte*)malloc(totalSize);
     794:	e0bff917 	ldw	r2,-28(fp)
     798:	1009883a 	mov	r4,r2
     79c:	000391c0 	call	391c <malloc>
     7a0:	1007883a 	mov	r3,r2
     7a4:	e0bffd17 	ldw	r2,-12(fp)
     7a8:	10c00015 	stw	r3,0(r2)
	int i = 0;
     7ac:	e03ff415 	stw	zero,-48(fp)
	byte *currentRowPointer = *pixels+((*height-1)*unpaddedRowSize);
     7b0:	e0bffd17 	ldw	r2,-12(fp)
     7b4:	10c00017 	ldw	r3,0(r2)
     7b8:	e0bfff17 	ldw	r2,-4(fp)
     7bc:	10800017 	ldw	r2,0(r2)
     7c0:	113fffc4 	addi	r4,r2,-1
     7c4:	e0bff817 	ldw	r2,-32(fp)
     7c8:	2085383a 	mul	r2,r4,r2
     7cc:	1885883a 	add	r2,r3,r2
     7d0:	e0bff515 	stw	r2,-44(fp)
	for (i = 0; i < *height; i++)
     7d4:	e03ff415 	stw	zero,-48(fp)
     7d8:	00001806 	br	83c <ReadImage+0x24c>
	{
		fseek(imageFile, dataOffset+(i*paddedRowSize), SEEK_SET);
     7dc:	e0fff417 	ldw	r3,-48(fp)
     7e0:	e0bff717 	ldw	r2,-36(fp)
     7e4:	1885383a 	mul	r2,r3,r2
     7e8:	1007883a 	mov	r3,r2
     7ec:	e0bffa17 	ldw	r2,-24(fp)
     7f0:	1885883a 	add	r2,r3,r2
     7f4:	000d883a 	mov	r6,zero
     7f8:	100b883a 	mov	r5,r2
     7fc:	e13ff617 	ldw	r4,-40(fp)
     800:	00031000 	call	3100 <fseek>
		fread(currentRowPointer, 1, unpaddedRowSize, imageFile);
     804:	e0bff817 	ldw	r2,-32(fp)
     808:	e1fff617 	ldw	r7,-40(fp)
     80c:	100d883a 	mov	r6,r2
     810:	01400044 	movi	r5,1
     814:	e13ff517 	ldw	r4,-44(fp)
     818:	0002c940 	call	2c94 <fread>
		currentRowPointer -= unpaddedRowSize;
     81c:	e0bff817 	ldw	r2,-32(fp)
     820:	0085c83a 	sub	r2,zero,r2
     824:	e0fff517 	ldw	r3,-44(fp)
     828:	1885883a 	add	r2,r3,r2
     82c:	e0bff515 	stw	r2,-44(fp)
	int unpaddedRowSize = (*width)*(*bytesPerPixel);
	int totalSize = unpaddedRowSize*(*height);
	*pixels = (byte*)malloc(totalSize);
	int i = 0;
	byte *currentRowPointer = *pixels+((*height-1)*unpaddedRowSize);
	for (i = 0; i < *height; i++)
     830:	e0bff417 	ldw	r2,-48(fp)
     834:	10800044 	addi	r2,r2,1
     838:	e0bff415 	stw	r2,-48(fp)
     83c:	e0bfff17 	ldw	r2,-4(fp)
     840:	10800017 	ldw	r2,0(r2)
     844:	e0fff417 	ldw	r3,-48(fp)
     848:	18bfe436 	bltu	r3,r2,7dc <__alt_mem_onchip_memory+0xf78007dc>
	{
		fseek(imageFile, dataOffset+(i*paddedRowSize), SEEK_SET);
		fread(currentRowPointer, 1, unpaddedRowSize, imageFile);
		currentRowPointer -= unpaddedRowSize;
	}
	fclose(imageFile);
     84c:	e13ff617 	ldw	r4,-40(fp)
     850:	00023000 	call	2300 <fclose>
}
     854:	0001883a 	nop
     858:	e037883a 	mov	sp,fp
     85c:	dfc00117 	ldw	ra,4(sp)
     860:	df000017 	ldw	fp,0(sp)
     864:	dec00204 	addi	sp,sp,8
     868:	f800283a 	ret

0000086c <ceil>:
     86c:	2811d53a 	srai	r8,r5,20
     870:	defffa04 	addi	sp,sp,-24
     874:	dcc00315 	stw	r19,12(sp)
     878:	4201ffcc 	andi	r8,r8,2047
     87c:	dc800215 	stw	r18,8(sp)
     880:	dc400115 	stw	r17,4(sp)
     884:	dc000015 	stw	r16,0(sp)
     888:	dfc00515 	stw	ra,20(sp)
     88c:	dd000415 	stw	r20,16(sp)
     890:	44bf0044 	addi	r18,r8,-1023
     894:	018004c4 	movi	r6,19
     898:	2821883a 	mov	r16,r5
     89c:	2005883a 	mov	r2,r4
     8a0:	280f883a 	mov	r7,r5
     8a4:	2827883a 	mov	r19,r5
     8a8:	2023883a 	mov	r17,r4
     8ac:	34801c16 	blt	r6,r18,920 <ceil+0xb4>
     8b0:	90004916 	blt	r18,zero,9d8 <ceil+0x16c>
     8b4:	05000434 	movhi	r20,16
     8b8:	a53fffc4 	addi	r20,r20,-1
     8bc:	a4a9d83a 	sra	r20,r20,r18
     8c0:	2d0c703a 	and	r6,r5,r20
     8c4:	310cb03a 	or	r6,r6,r4
     8c8:	30001926 	beq	r6,zero,930 <ceil+0xc4>
     8cc:	01a20034 	movhi	r6,34816
     8d0:	01df8e34 	movhi	r7,32312
     8d4:	319d6704 	addi	r6,r6,30108
     8d8:	39f90f04 	addi	r7,r7,-7108
     8dc:	0000f7c0 	call	f7c <__adddf3>
     8e0:	000d883a 	mov	r6,zero
     8e4:	000f883a 	mov	r7,zero
     8e8:	1009883a 	mov	r4,r2
     8ec:	180b883a 	mov	r5,r3
     8f0:	00018280 	call	1828 <__gedf2>
     8f4:	0080070e 	bge	zero,r2,914 <ceil+0xa8>
     8f8:	0400030e 	bge	zero,r16,908 <ceil+0x9c>
     8fc:	00800434 	movhi	r2,16
     900:	14a5d83a 	sra	r18,r2,r18
     904:	84a7883a 	add	r19,r16,r18
     908:	0520303a 	nor	r16,zero,r20
     90c:	84e0703a 	and	r16,r16,r19
     910:	0023883a 	mov	r17,zero
     914:	8805883a 	mov	r2,r17
     918:	8007883a 	mov	r3,r16
     91c:	00000506 	br	934 <ceil+0xc8>
     920:	01800cc4 	movi	r6,51
     924:	34800b0e 	bge	r6,r18,954 <ceil+0xe8>
     928:	01810004 	movi	r6,1024
     92c:	91803b26 	beq	r18,r6,a1c <ceil+0x1b0>
     930:	3807883a 	mov	r3,r7
     934:	dfc00517 	ldw	ra,20(sp)
     938:	dd000417 	ldw	r20,16(sp)
     93c:	dcc00317 	ldw	r19,12(sp)
     940:	dc800217 	ldw	r18,8(sp)
     944:	dc400117 	ldw	r17,4(sp)
     948:	dc000017 	ldw	r16,0(sp)
     94c:	dec00604 	addi	sp,sp,24
     950:	f800283a 	ret
     954:	423efb44 	addi	r8,r8,-1043
     958:	053fffc4 	movi	r20,-1
     95c:	a228d83a 	srl	r20,r20,r8
     960:	250c703a 	and	r6,r4,r20
     964:	303ff226 	beq	r6,zero,930 <__alt_mem_onchip_memory+0xf7800930>
     968:	01a20034 	movhi	r6,34816
     96c:	01df8e34 	movhi	r7,32312
     970:	319d6704 	addi	r6,r6,30108
     974:	39f90f04 	addi	r7,r7,-7108
     978:	0000f7c0 	call	f7c <__adddf3>
     97c:	000d883a 	mov	r6,zero
     980:	000f883a 	mov	r7,zero
     984:	1009883a 	mov	r4,r2
     988:	180b883a 	mov	r5,r3
     98c:	00018280 	call	1828 <__gedf2>
     990:	00bfe00e 	bge	zero,r2,914 <__alt_mem_onchip_memory+0xf7800914>
     994:	04000a0e 	bge	zero,r16,9c0 <ceil+0x154>
     998:	00800504 	movi	r2,20
     99c:	90802926 	beq	r18,r2,a44 <ceil+0x1d8>
     9a0:	00800d04 	movi	r2,52
     9a4:	14a5c83a 	sub	r18,r2,r18
     9a8:	00800044 	movi	r2,1
     9ac:	1484983a 	sll	r2,r2,r18
     9b0:	1445883a 	add	r2,r2,r17
     9b4:	14401e2e 	bgeu	r2,r17,a30 <ceil+0x1c4>
     9b8:	84c00044 	addi	r19,r16,1
     9bc:	1023883a 	mov	r17,r2
     9c0:	0510303a 	nor	r8,zero,r20
     9c4:	9821883a 	mov	r16,r19
     9c8:	8a22703a 	and	r17,r17,r8
     9cc:	8805883a 	mov	r2,r17
     9d0:	8007883a 	mov	r3,r16
     9d4:	003fd706 	br	934 <__alt_mem_onchip_memory+0xf7800934>
     9d8:	01a20034 	movhi	r6,34816
     9dc:	01df8e34 	movhi	r7,32312
     9e0:	319d6704 	addi	r6,r6,30108
     9e4:	39f90f04 	addi	r7,r7,-7108
     9e8:	0000f7c0 	call	f7c <__adddf3>
     9ec:	000d883a 	mov	r6,zero
     9f0:	000f883a 	mov	r7,zero
     9f4:	1009883a 	mov	r4,r2
     9f8:	180b883a 	mov	r5,r3
     9fc:	00018280 	call	1828 <__gedf2>
     a00:	00bfc40e 	bge	zero,r2,914 <__alt_mem_onchip_memory+0xf7800914>
     a04:	80000c16 	blt	r16,zero,a38 <ceil+0x1cc>
     a08:	8460b03a 	or	r16,r16,r17
     a0c:	0023883a 	mov	r17,zero
     a10:	80000526 	beq	r16,zero,a28 <ceil+0x1bc>
     a14:	040ffc34 	movhi	r16,16368
     a18:	003fbe06 	br	914 <__alt_mem_onchip_memory+0xf7800914>
     a1c:	200d883a 	mov	r6,r4
     a20:	0000f7c0 	call	f7c <__adddf3>
     a24:	003fc306 	br	934 <__alt_mem_onchip_memory+0xf7800934>
     a28:	0021883a 	mov	r16,zero
     a2c:	003fb906 	br	914 <__alt_mem_onchip_memory+0xf7800914>
     a30:	1023883a 	mov	r17,r2
     a34:	003fe206 	br	9c0 <__alt_mem_onchip_memory+0xf78009c0>
     a38:	0023883a 	mov	r17,zero
     a3c:	04200034 	movhi	r16,32768
     a40:	003fb406 	br	914 <__alt_mem_onchip_memory+0xf7800914>
     a44:	84c00044 	addi	r19,r16,1
     a48:	003fdd06 	br	9c0 <__alt_mem_onchip_memory+0xf78009c0>

00000a4c <__divsf3>:
     a4c:	defff504 	addi	sp,sp,-44
     a50:	200cd5fa 	srli	r6,r4,23
     a54:	dcc00415 	stw	r19,16(sp)
     a58:	2026d7fa 	srli	r19,r4,31
     a5c:	00c02034 	movhi	r3,128
     a60:	dd800715 	stw	r22,28(sp)
     a64:	dd000515 	stw	r20,20(sp)
     a68:	dc800315 	stw	r18,12(sp)
     a6c:	18ffffc4 	addi	r3,r3,-1
     a70:	dfc00a15 	stw	ra,40(sp)
     a74:	df000915 	stw	fp,36(sp)
     a78:	ddc00815 	stw	r23,32(sp)
     a7c:	dd400615 	stw	r21,24(sp)
     a80:	dc400215 	stw	r17,8(sp)
     a84:	dc000115 	stw	r16,4(sp)
     a88:	35003fcc 	andi	r20,r6,255
     a8c:	1924703a 	and	r18,r3,r4
     a90:	9d803fcc 	andi	r22,r19,255
     a94:	a0005226 	beq	r20,zero,be0 <__divsf3+0x194>
     a98:	00803fc4 	movi	r2,255
     a9c:	a0802e26 	beq	r20,r2,b58 <__divsf3+0x10c>
     aa0:	91002034 	orhi	r4,r18,128
     aa4:	202490fa 	slli	r18,r4,3
     aa8:	a53fe044 	addi	r20,r20,-127
     aac:	0021883a 	mov	r16,zero
     ab0:	002f883a 	mov	r23,zero
     ab4:	280cd5fa 	srli	r6,r5,23
     ab8:	282ad7fa 	srli	r21,r5,31
     abc:	00c02034 	movhi	r3,128
     ac0:	18ffffc4 	addi	r3,r3,-1
     ac4:	31803fcc 	andi	r6,r6,255
     ac8:	1962703a 	and	r17,r3,r5
     acc:	af003fcc 	andi	fp,r21,255
     ad0:	30004a26 	beq	r6,zero,bfc <__divsf3+0x1b0>
     ad4:	00803fc4 	movi	r2,255
     ad8:	30804526 	beq	r6,r2,bf0 <__divsf3+0x1a4>
     adc:	89402034 	orhi	r5,r17,128
     ae0:	282290fa 	slli	r17,r5,3
     ae4:	31bfe044 	addi	r6,r6,-127
     ae8:	000b883a 	mov	r5,zero
     aec:	2c20b03a 	or	r16,r5,r16
     af0:	802090ba 	slli	r16,r16,2
     af4:	00800034 	movhi	r2,0
     af8:	1082c604 	addi	r2,r2,2840
     afc:	80a1883a 	add	r16,r16,r2
     b00:	81000017 	ldw	r4,0(r16)
     b04:	9d46f03a 	xor	r3,r19,r21
     b08:	180f883a 	mov	r7,r3
     b0c:	18803fcc 	andi	r2,r3,255
     b10:	a18dc83a 	sub	r6,r20,r6
     b14:	2000683a 	jmp	r4
     b18:	00000cfc 	xorhi	zero,zero,51
     b1c:	00000b80 	call	b8 <__flash_exceptions_start+0x98>
     b20:	00000cf0 	cmpltui	zero,zero,51
     b24:	00000b6c 	andhi	zero,zero,45
     b28:	00000cf0 	cmpltui	zero,zero,51
     b2c:	00000cc8 	cmpgei	zero,zero,51
     b30:	00000cf0 	cmpltui	zero,zero,51
     b34:	00000b6c 	andhi	zero,zero,45
     b38:	00000b80 	call	b8 <__flash_exceptions_start+0x98>
     b3c:	00000b80 	call	b8 <__flash_exceptions_start+0x98>
     b40:	00000cc8 	cmpgei	zero,zero,51
     b44:	00000b6c 	andhi	zero,zero,45
     b48:	00000ddc 	xori	zero,zero,55
     b4c:	00000ddc 	xori	zero,zero,55
     b50:	00000ddc 	xori	zero,zero,55
     b54:	00000d90 	cmplti	zero,zero,54
     b58:	9000581e 	bne	r18,zero,cbc <__divsf3+0x270>
     b5c:	04000204 	movi	r16,8
     b60:	05c00084 	movi	r23,2
     b64:	003fd306 	br	ab4 <__alt_mem_onchip_memory+0xf7800ab4>
     b68:	0023883a 	mov	r17,zero
     b6c:	e02d883a 	mov	r22,fp
     b70:	282f883a 	mov	r23,r5
     b74:	00800084 	movi	r2,2
     b78:	b8808f1e 	bne	r23,r2,db8 <__divsf3+0x36c>
     b7c:	b005883a 	mov	r2,r22
     b80:	11c0004c 	andi	r7,r2,1
     b84:	013fffc4 	movi	r4,-1
     b88:	000d883a 	mov	r6,zero
     b8c:	21003fcc 	andi	r4,r4,255
     b90:	200895fa 	slli	r4,r4,23
     b94:	38803fcc 	andi	r2,r7,255
     b98:	00c02034 	movhi	r3,128
     b9c:	100497fa 	slli	r2,r2,31
     ba0:	18ffffc4 	addi	r3,r3,-1
     ba4:	30c6703a 	and	r3,r6,r3
     ba8:	1906b03a 	or	r3,r3,r4
     bac:	1884b03a 	or	r2,r3,r2
     bb0:	dfc00a17 	ldw	ra,40(sp)
     bb4:	df000917 	ldw	fp,36(sp)
     bb8:	ddc00817 	ldw	r23,32(sp)
     bbc:	dd800717 	ldw	r22,28(sp)
     bc0:	dd400617 	ldw	r21,24(sp)
     bc4:	dd000517 	ldw	r20,20(sp)
     bc8:	dcc00417 	ldw	r19,16(sp)
     bcc:	dc800317 	ldw	r18,12(sp)
     bd0:	dc400217 	ldw	r17,8(sp)
     bd4:	dc000117 	ldw	r16,4(sp)
     bd8:	dec00b04 	addi	sp,sp,44
     bdc:	f800283a 	ret
     be0:	90002b1e 	bne	r18,zero,c90 <__divsf3+0x244>
     be4:	04000104 	movi	r16,4
     be8:	05c00044 	movi	r23,1
     bec:	003fb106 	br	ab4 <__alt_mem_onchip_memory+0xf7800ab4>
     bf0:	8800251e 	bne	r17,zero,c88 <__divsf3+0x23c>
     bf4:	01400084 	movi	r5,2
     bf8:	00000206 	br	c04 <__divsf3+0x1b8>
     bfc:	88001a1e 	bne	r17,zero,c68 <__divsf3+0x21c>
     c00:	01400044 	movi	r5,1
     c04:	8160b03a 	or	r16,r16,r5
     c08:	802090ba 	slli	r16,r16,2
     c0c:	00c00034 	movhi	r3,0
     c10:	18c30a04 	addi	r3,r3,3112
     c14:	80e1883a 	add	r16,r16,r3
     c18:	80c00017 	ldw	r3,0(r16)
     c1c:	9d44f03a 	xor	r2,r19,r21
     c20:	a18dc83a 	sub	r6,r20,r6
     c24:	1800683a 	jmp	r3
     c28:	00000b80 	call	b8 <__flash_exceptions_start+0x98>
     c2c:	00000b80 	call	b8 <__flash_exceptions_start+0x98>
     c30:	00000dcc 	andi	zero,zero,55
     c34:	00000b68 	cmpgeui	zero,zero,45
     c38:	00000dcc 	andi	zero,zero,55
     c3c:	00000cc8 	cmpgei	zero,zero,51
     c40:	00000dcc 	andi	zero,zero,55
     c44:	00000b68 	cmpgeui	zero,zero,45
     c48:	00000b80 	call	b8 <__flash_exceptions_start+0x98>
     c4c:	00000b80 	call	b8 <__flash_exceptions_start+0x98>
     c50:	00000cc8 	cmpgei	zero,zero,51
     c54:	00000b68 	cmpgeui	zero,zero,45
     c58:	00000ddc 	xori	zero,zero,55
     c5c:	00000ddc 	xori	zero,zero,55
     c60:	00000ddc 	xori	zero,zero,55
     c64:	00000df4 	movhi	zero,55
     c68:	8809883a 	mov	r4,r17
     c6c:	00021ac0 	call	21ac <__clzsi2>
     c70:	10fffec4 	addi	r3,r2,-5
     c74:	10801d84 	addi	r2,r2,118
     c78:	88e2983a 	sll	r17,r17,r3
     c7c:	008dc83a 	sub	r6,zero,r2
     c80:	000b883a 	mov	r5,zero
     c84:	003f9906 	br	aec <__alt_mem_onchip_memory+0xf7800aec>
     c88:	014000c4 	movi	r5,3
     c8c:	003f9706 	br	aec <__alt_mem_onchip_memory+0xf7800aec>
     c90:	9009883a 	mov	r4,r18
     c94:	d9400015 	stw	r5,0(sp)
     c98:	00021ac0 	call	21ac <__clzsi2>
     c9c:	10fffec4 	addi	r3,r2,-5
     ca0:	11801d84 	addi	r6,r2,118
     ca4:	90e4983a 	sll	r18,r18,r3
     ca8:	01a9c83a 	sub	r20,zero,r6
     cac:	0021883a 	mov	r16,zero
     cb0:	002f883a 	mov	r23,zero
     cb4:	d9400017 	ldw	r5,0(sp)
     cb8:	003f7e06 	br	ab4 <__alt_mem_onchip_memory+0xf7800ab4>
     cbc:	04000304 	movi	r16,12
     cc0:	05c000c4 	movi	r23,3
     cc4:	003f7b06 	br	ab4 <__alt_mem_onchip_memory+0xf7800ab4>
     cc8:	01802034 	movhi	r6,128
     ccc:	000f883a 	mov	r7,zero
     cd0:	31bfffc4 	addi	r6,r6,-1
     cd4:	013fffc4 	movi	r4,-1
     cd8:	003fac06 	br	b8c <__alt_mem_onchip_memory+0xf7800b8c>
     cdc:	01400044 	movi	r5,1
     ce0:	2909c83a 	sub	r4,r5,r4
     ce4:	00c006c4 	movi	r3,27
     ce8:	19004b0e 	bge	r3,r4,e18 <__divsf3+0x3cc>
     cec:	114e703a 	and	r7,r2,r5
     cf0:	0009883a 	mov	r4,zero
     cf4:	000d883a 	mov	r6,zero
     cf8:	003fa406 	br	b8c <__alt_mem_onchip_memory+0xf7800b8c>
     cfc:	9006917a 	slli	r3,r18,5
     d00:	8822917a 	slli	r17,r17,5
     d04:	1c40372e 	bgeu	r3,r17,de4 <__divsf3+0x398>
     d08:	31bfffc4 	addi	r6,r6,-1
     d0c:	010006c4 	movi	r4,27
     d10:	000b883a 	mov	r5,zero
     d14:	180f883a 	mov	r7,r3
     d18:	294b883a 	add	r5,r5,r5
     d1c:	18c7883a 	add	r3,r3,r3
     d20:	38000116 	blt	r7,zero,d28 <__divsf3+0x2dc>
     d24:	1c400236 	bltu	r3,r17,d30 <__divsf3+0x2e4>
     d28:	1c47c83a 	sub	r3,r3,r17
     d2c:	29400054 	ori	r5,r5,1
     d30:	213fffc4 	addi	r4,r4,-1
     d34:	203ff71e 	bne	r4,zero,d14 <__alt_mem_onchip_memory+0xf7800d14>
     d38:	1806c03a 	cmpne	r3,r3,zero
     d3c:	1962b03a 	or	r17,r3,r5
     d40:	31001fc4 	addi	r4,r6,127
     d44:	013fe50e 	bge	zero,r4,cdc <__alt_mem_onchip_memory+0xf7800cdc>
     d48:	88c001cc 	andi	r3,r17,7
     d4c:	18000426 	beq	r3,zero,d60 <__divsf3+0x314>
     d50:	88c003cc 	andi	r3,r17,15
     d54:	01400104 	movi	r5,4
     d58:	19400126 	beq	r3,r5,d60 <__divsf3+0x314>
     d5c:	8963883a 	add	r17,r17,r5
     d60:	88c2002c 	andhi	r3,r17,2048
     d64:	18000426 	beq	r3,zero,d78 <__divsf3+0x32c>
     d68:	00fe0034 	movhi	r3,63488
     d6c:	18ffffc4 	addi	r3,r3,-1
     d70:	31002004 	addi	r4,r6,128
     d74:	88e2703a 	and	r17,r17,r3
     d78:	00c03f84 	movi	r3,254
     d7c:	193f8016 	blt	r3,r4,b80 <__alt_mem_onchip_memory+0xf7800b80>
     d80:	880c91ba 	slli	r6,r17,6
     d84:	11c0004c 	andi	r7,r2,1
     d88:	300cd27a 	srli	r6,r6,9
     d8c:	003f7f06 	br	b8c <__alt_mem_onchip_memory+0xf7800b8c>
     d90:	9080102c 	andhi	r2,r18,64
     d94:	10000226 	beq	r2,zero,da0 <__divsf3+0x354>
     d98:	8880102c 	andhi	r2,r17,64
     d9c:	10001826 	beq	r2,zero,e00 <__divsf3+0x3b4>
     da0:	00802034 	movhi	r2,128
     da4:	91801034 	orhi	r6,r18,64
     da8:	10bfffc4 	addi	r2,r2,-1
     dac:	980f883a 	mov	r7,r19
     db0:	308c703a 	and	r6,r6,r2
     db4:	003fc706 	br	cd4 <__alt_mem_onchip_memory+0xf7800cd4>
     db8:	008000c4 	movi	r2,3
     dbc:	b8802d26 	beq	r23,r2,e74 <__divsf3+0x428>
     dc0:	00c00044 	movi	r3,1
     dc4:	b005883a 	mov	r2,r22
     dc8:	b8ffdd1e 	bne	r23,r3,d40 <__alt_mem_onchip_memory+0xf7800d40>
     dcc:	11c0004c 	andi	r7,r2,1
     dd0:	0009883a 	mov	r4,zero
     dd4:	000d883a 	mov	r6,zero
     dd8:	003f6c06 	br	b8c <__alt_mem_onchip_memory+0xf7800b8c>
     ddc:	9023883a 	mov	r17,r18
     de0:	003f6406 	br	b74 <__alt_mem_onchip_memory+0xf7800b74>
     de4:	1c47c83a 	sub	r3,r3,r17
     de8:	01000684 	movi	r4,26
     dec:	01400044 	movi	r5,1
     df0:	003fc806 	br	d14 <__alt_mem_onchip_memory+0xf7800d14>
     df4:	9080102c 	andhi	r2,r18,64
     df8:	103fe926 	beq	r2,zero,da0 <__alt_mem_onchip_memory+0xf7800da0>
     dfc:	0023883a 	mov	r17,zero
     e00:	00802034 	movhi	r2,128
     e04:	89801034 	orhi	r6,r17,64
     e08:	10bfffc4 	addi	r2,r2,-1
     e0c:	a80f883a 	mov	r7,r21
     e10:	308c703a 	and	r6,r6,r2
     e14:	003faf06 	br	cd4 <__alt_mem_onchip_memory+0xf7800cd4>
     e18:	01c00804 	movi	r7,32
     e1c:	390fc83a 	sub	r7,r7,r4
     e20:	89ce983a 	sll	r7,r17,r7
     e24:	890ad83a 	srl	r5,r17,r4
     e28:	380ec03a 	cmpne	r7,r7,zero
     e2c:	29cab03a 	or	r5,r5,r7
     e30:	28c001cc 	andi	r3,r5,7
     e34:	18000426 	beq	r3,zero,e48 <__divsf3+0x3fc>
     e38:	28c003cc 	andi	r3,r5,15
     e3c:	01000104 	movi	r4,4
     e40:	19000126 	beq	r3,r4,e48 <__divsf3+0x3fc>
     e44:	290b883a 	add	r5,r5,r4
     e48:	28c1002c 	andhi	r3,r5,1024
     e4c:	18000426 	beq	r3,zero,e60 <__divsf3+0x414>
     e50:	11c0004c 	andi	r7,r2,1
     e54:	01000044 	movi	r4,1
     e58:	000d883a 	mov	r6,zero
     e5c:	003f4b06 	br	b8c <__alt_mem_onchip_memory+0xf7800b8c>
     e60:	280a91ba 	slli	r5,r5,6
     e64:	11c0004c 	andi	r7,r2,1
     e68:	0009883a 	mov	r4,zero
     e6c:	280cd27a 	srli	r6,r5,9
     e70:	003f4606 	br	b8c <__alt_mem_onchip_memory+0xf7800b8c>
     e74:	00802034 	movhi	r2,128
     e78:	89801034 	orhi	r6,r17,64
     e7c:	10bfffc4 	addi	r2,r2,-1
     e80:	b00f883a 	mov	r7,r22
     e84:	308c703a 	and	r6,r6,r2
     e88:	003f9206 	br	cd4 <__alt_mem_onchip_memory+0xf7800cd4>

00000e8c <__floatunsisf>:
     e8c:	defffe04 	addi	sp,sp,-8
     e90:	dfc00115 	stw	ra,4(sp)
     e94:	dc000015 	stw	r16,0(sp)
     e98:	20002c26 	beq	r4,zero,f4c <__floatunsisf+0xc0>
     e9c:	2021883a 	mov	r16,r4
     ea0:	00021ac0 	call	21ac <__clzsi2>
     ea4:	00c02784 	movi	r3,158
     ea8:	1887c83a 	sub	r3,r3,r2
     eac:	01002584 	movi	r4,150
     eb0:	20c00f16 	blt	r4,r3,ef0 <__floatunsisf+0x64>
     eb4:	20c9c83a 	sub	r4,r4,r3
     eb8:	8108983a 	sll	r4,r16,r4
     ebc:	00802034 	movhi	r2,128
     ec0:	10bfffc4 	addi	r2,r2,-1
     ec4:	2088703a 	and	r4,r4,r2
     ec8:	18803fcc 	andi	r2,r3,255
     ecc:	100695fa 	slli	r3,r2,23
     ed0:	00802034 	movhi	r2,128
     ed4:	10bfffc4 	addi	r2,r2,-1
     ed8:	2084703a 	and	r2,r4,r2
     edc:	10c4b03a 	or	r2,r2,r3
     ee0:	dfc00117 	ldw	ra,4(sp)
     ee4:	dc000017 	ldw	r16,0(sp)
     ee8:	dec00204 	addi	sp,sp,8
     eec:	f800283a 	ret
     ef0:	01002644 	movi	r4,153
     ef4:	20c01816 	blt	r4,r3,f58 <__floatunsisf+0xcc>
     ef8:	20c9c83a 	sub	r4,r4,r3
     efc:	8108983a 	sll	r4,r16,r4
     f00:	017f0034 	movhi	r5,64512
     f04:	297fffc4 	addi	r5,r5,-1
     f08:	218001cc 	andi	r6,r4,7
     f0c:	214a703a 	and	r5,r4,r5
     f10:	30000426 	beq	r6,zero,f24 <__floatunsisf+0x98>
     f14:	210003cc 	andi	r4,r4,15
     f18:	01800104 	movi	r6,4
     f1c:	21800126 	beq	r4,r6,f24 <__floatunsisf+0x98>
     f20:	298b883a 	add	r5,r5,r6
     f24:	2901002c 	andhi	r4,r5,1024
     f28:	20000526 	beq	r4,zero,f40 <__floatunsisf+0xb4>
     f2c:	00c027c4 	movi	r3,159
     f30:	1887c83a 	sub	r3,r3,r2
     f34:	00bf0034 	movhi	r2,64512
     f38:	10bfffc4 	addi	r2,r2,-1
     f3c:	288a703a 	and	r5,r5,r2
     f40:	280891ba 	slli	r4,r5,6
     f44:	2008d27a 	srli	r4,r4,9
     f48:	003fdf06 	br	ec8 <__alt_mem_onchip_memory+0xf7800ec8>
     f4c:	0007883a 	mov	r3,zero
     f50:	0009883a 	mov	r4,zero
     f54:	003fdc06 	br	ec8 <__alt_mem_onchip_memory+0xf7800ec8>
     f58:	01402e44 	movi	r5,185
     f5c:	28cbc83a 	sub	r5,r5,r3
     f60:	01000144 	movi	r4,5
     f64:	2089c83a 	sub	r4,r4,r2
     f68:	814a983a 	sll	r5,r16,r5
     f6c:	8108d83a 	srl	r4,r16,r4
     f70:	2820c03a 	cmpne	r16,r5,zero
     f74:	2408b03a 	or	r4,r4,r16
     f78:	003fe106 	br	f00 <__alt_mem_onchip_memory+0xf7800f00>

00000f7c <__adddf3>:
     f7c:	02c00434 	movhi	r11,16
     f80:	5affffc4 	addi	r11,r11,-1
     f84:	2806d7fa 	srli	r3,r5,31
     f88:	2ad4703a 	and	r10,r5,r11
     f8c:	3ad2703a 	and	r9,r7,r11
     f90:	3804d53a 	srli	r2,r7,20
     f94:	3018d77a 	srli	r12,r6,29
     f98:	280ad53a 	srli	r5,r5,20
     f9c:	501490fa 	slli	r10,r10,3
     fa0:	2010d77a 	srli	r8,r4,29
     fa4:	481290fa 	slli	r9,r9,3
     fa8:	380ed7fa 	srli	r7,r7,31
     fac:	defffb04 	addi	sp,sp,-20
     fb0:	dc800215 	stw	r18,8(sp)
     fb4:	dc400115 	stw	r17,4(sp)
     fb8:	dc000015 	stw	r16,0(sp)
     fbc:	dfc00415 	stw	ra,16(sp)
     fc0:	dcc00315 	stw	r19,12(sp)
     fc4:	1c803fcc 	andi	r18,r3,255
     fc8:	2c01ffcc 	andi	r16,r5,2047
     fcc:	5210b03a 	or	r8,r10,r8
     fd0:	202290fa 	slli	r17,r4,3
     fd4:	1081ffcc 	andi	r2,r2,2047
     fd8:	4b12b03a 	or	r9,r9,r12
     fdc:	300c90fa 	slli	r6,r6,3
     fe0:	91c07526 	beq	r18,r7,11b8 <__adddf3+0x23c>
     fe4:	8087c83a 	sub	r3,r16,r2
     fe8:	00c0ab0e 	bge	zero,r3,1298 <__adddf3+0x31c>
     fec:	10002a1e 	bne	r2,zero,1098 <__adddf3+0x11c>
     ff0:	4984b03a 	or	r2,r9,r6
     ff4:	1000961e 	bne	r2,zero,1250 <__adddf3+0x2d4>
     ff8:	888001cc 	andi	r2,r17,7
     ffc:	10000726 	beq	r2,zero,101c <__adddf3+0xa0>
    1000:	888003cc 	andi	r2,r17,15
    1004:	00c00104 	movi	r3,4
    1008:	10c00426 	beq	r2,r3,101c <__adddf3+0xa0>
    100c:	88c7883a 	add	r3,r17,r3
    1010:	1c63803a 	cmpltu	r17,r3,r17
    1014:	4451883a 	add	r8,r8,r17
    1018:	1823883a 	mov	r17,r3
    101c:	4080202c 	andhi	r2,r8,128
    1020:	10005926 	beq	r2,zero,1188 <__adddf3+0x20c>
    1024:	84000044 	addi	r16,r16,1
    1028:	0081ffc4 	movi	r2,2047
    102c:	8080ba26 	beq	r16,r2,1318 <__adddf3+0x39c>
    1030:	00bfe034 	movhi	r2,65408
    1034:	10bfffc4 	addi	r2,r2,-1
    1038:	4090703a 	and	r8,r8,r2
    103c:	4004977a 	slli	r2,r8,29
    1040:	4010927a 	slli	r8,r8,9
    1044:	8822d0fa 	srli	r17,r17,3
    1048:	8401ffcc 	andi	r16,r16,2047
    104c:	4010d33a 	srli	r8,r8,12
    1050:	9007883a 	mov	r3,r18
    1054:	1444b03a 	or	r2,r2,r17
    1058:	8401ffcc 	andi	r16,r16,2047
    105c:	8020953a 	slli	r16,r16,20
    1060:	18c03fcc 	andi	r3,r3,255
    1064:	01000434 	movhi	r4,16
    1068:	213fffc4 	addi	r4,r4,-1
    106c:	180697fa 	slli	r3,r3,31
    1070:	4110703a 	and	r8,r8,r4
    1074:	4410b03a 	or	r8,r8,r16
    1078:	40c6b03a 	or	r3,r8,r3
    107c:	dfc00417 	ldw	ra,16(sp)
    1080:	dcc00317 	ldw	r19,12(sp)
    1084:	dc800217 	ldw	r18,8(sp)
    1088:	dc400117 	ldw	r17,4(sp)
    108c:	dc000017 	ldw	r16,0(sp)
    1090:	dec00504 	addi	sp,sp,20
    1094:	f800283a 	ret
    1098:	0081ffc4 	movi	r2,2047
    109c:	80bfd626 	beq	r16,r2,ff8 <__alt_mem_onchip_memory+0xf7800ff8>
    10a0:	4a402034 	orhi	r9,r9,128
    10a4:	00800e04 	movi	r2,56
    10a8:	10c09f16 	blt	r2,r3,1328 <__adddf3+0x3ac>
    10ac:	008007c4 	movi	r2,31
    10b0:	10c0c216 	blt	r2,r3,13bc <__adddf3+0x440>
    10b4:	00800804 	movi	r2,32
    10b8:	10c5c83a 	sub	r2,r2,r3
    10bc:	488a983a 	sll	r5,r9,r2
    10c0:	30c8d83a 	srl	r4,r6,r3
    10c4:	3084983a 	sll	r2,r6,r2
    10c8:	48c6d83a 	srl	r3,r9,r3
    10cc:	290cb03a 	or	r6,r5,r4
    10d0:	1004c03a 	cmpne	r2,r2,zero
    10d4:	308cb03a 	or	r6,r6,r2
    10d8:	898dc83a 	sub	r6,r17,r6
    10dc:	89a3803a 	cmpltu	r17,r17,r6
    10e0:	40d1c83a 	sub	r8,r8,r3
    10e4:	4451c83a 	sub	r8,r8,r17
    10e8:	3023883a 	mov	r17,r6
    10ec:	4080202c 	andhi	r2,r8,128
    10f0:	10002326 	beq	r2,zero,1180 <__adddf3+0x204>
    10f4:	04c02034 	movhi	r19,128
    10f8:	9cffffc4 	addi	r19,r19,-1
    10fc:	44e6703a 	and	r19,r8,r19
    1100:	98007626 	beq	r19,zero,12dc <__adddf3+0x360>
    1104:	9809883a 	mov	r4,r19
    1108:	00021ac0 	call	21ac <__clzsi2>
    110c:	10fffe04 	addi	r3,r2,-8
    1110:	010007c4 	movi	r4,31
    1114:	20c07716 	blt	r4,r3,12f4 <__adddf3+0x378>
    1118:	00800804 	movi	r2,32
    111c:	10c5c83a 	sub	r2,r2,r3
    1120:	8884d83a 	srl	r2,r17,r2
    1124:	98d0983a 	sll	r8,r19,r3
    1128:	88e2983a 	sll	r17,r17,r3
    112c:	1204b03a 	or	r2,r2,r8
    1130:	1c007416 	blt	r3,r16,1304 <__adddf3+0x388>
    1134:	1c21c83a 	sub	r16,r3,r16
    1138:	82000044 	addi	r8,r16,1
    113c:	00c007c4 	movi	r3,31
    1140:	1a009116 	blt	r3,r8,1388 <__adddf3+0x40c>
    1144:	00c00804 	movi	r3,32
    1148:	1a07c83a 	sub	r3,r3,r8
    114c:	8a08d83a 	srl	r4,r17,r8
    1150:	88e2983a 	sll	r17,r17,r3
    1154:	10c6983a 	sll	r3,r2,r3
    1158:	1210d83a 	srl	r8,r2,r8
    115c:	8804c03a 	cmpne	r2,r17,zero
    1160:	1906b03a 	or	r3,r3,r4
    1164:	18a2b03a 	or	r17,r3,r2
    1168:	0021883a 	mov	r16,zero
    116c:	003fa206 	br	ff8 <__alt_mem_onchip_memory+0xf7800ff8>
    1170:	1890b03a 	or	r8,r3,r2
    1174:	40017d26 	beq	r8,zero,176c <__adddf3+0x7f0>
    1178:	1011883a 	mov	r8,r2
    117c:	1823883a 	mov	r17,r3
    1180:	888001cc 	andi	r2,r17,7
    1184:	103f9e1e 	bne	r2,zero,1000 <__alt_mem_onchip_memory+0xf7801000>
    1188:	4004977a 	slli	r2,r8,29
    118c:	8822d0fa 	srli	r17,r17,3
    1190:	4010d0fa 	srli	r8,r8,3
    1194:	9007883a 	mov	r3,r18
    1198:	1444b03a 	or	r2,r2,r17
    119c:	0101ffc4 	movi	r4,2047
    11a0:	81002426 	beq	r16,r4,1234 <__adddf3+0x2b8>
    11a4:	8120703a 	and	r16,r16,r4
    11a8:	01000434 	movhi	r4,16
    11ac:	213fffc4 	addi	r4,r4,-1
    11b0:	4110703a 	and	r8,r8,r4
    11b4:	003fa806 	br	1058 <__alt_mem_onchip_memory+0xf7801058>
    11b8:	8089c83a 	sub	r4,r16,r2
    11bc:	01005e0e 	bge	zero,r4,1338 <__adddf3+0x3bc>
    11c0:	10002b26 	beq	r2,zero,1270 <__adddf3+0x2f4>
    11c4:	0081ffc4 	movi	r2,2047
    11c8:	80bf8b26 	beq	r16,r2,ff8 <__alt_mem_onchip_memory+0xf7800ff8>
    11cc:	4a402034 	orhi	r9,r9,128
    11d0:	00800e04 	movi	r2,56
    11d4:	1100a40e 	bge	r2,r4,1468 <__adddf3+0x4ec>
    11d8:	498cb03a 	or	r6,r9,r6
    11dc:	300ac03a 	cmpne	r5,r6,zero
    11e0:	0013883a 	mov	r9,zero
    11e4:	2c4b883a 	add	r5,r5,r17
    11e8:	2c63803a 	cmpltu	r17,r5,r17
    11ec:	4a11883a 	add	r8,r9,r8
    11f0:	8a11883a 	add	r8,r17,r8
    11f4:	2823883a 	mov	r17,r5
    11f8:	4080202c 	andhi	r2,r8,128
    11fc:	103fe026 	beq	r2,zero,1180 <__alt_mem_onchip_memory+0xf7801180>
    1200:	84000044 	addi	r16,r16,1
    1204:	0081ffc4 	movi	r2,2047
    1208:	8080d226 	beq	r16,r2,1554 <__adddf3+0x5d8>
    120c:	00bfe034 	movhi	r2,65408
    1210:	10bfffc4 	addi	r2,r2,-1
    1214:	4090703a 	and	r8,r8,r2
    1218:	880ad07a 	srli	r5,r17,1
    121c:	400897fa 	slli	r4,r8,31
    1220:	88c0004c 	andi	r3,r17,1
    1224:	28e2b03a 	or	r17,r5,r3
    1228:	4010d07a 	srli	r8,r8,1
    122c:	2462b03a 	or	r17,r4,r17
    1230:	003f7106 	br	ff8 <__alt_mem_onchip_memory+0xf7800ff8>
    1234:	4088b03a 	or	r4,r8,r2
    1238:	20014526 	beq	r4,zero,1750 <__adddf3+0x7d4>
    123c:	01000434 	movhi	r4,16
    1240:	42000234 	orhi	r8,r8,8
    1244:	213fffc4 	addi	r4,r4,-1
    1248:	4110703a 	and	r8,r8,r4
    124c:	003f8206 	br	1058 <__alt_mem_onchip_memory+0xf7801058>
    1250:	18ffffc4 	addi	r3,r3,-1
    1254:	1800491e 	bne	r3,zero,137c <__adddf3+0x400>
    1258:	898bc83a 	sub	r5,r17,r6
    125c:	8963803a 	cmpltu	r17,r17,r5
    1260:	4251c83a 	sub	r8,r8,r9
    1264:	4451c83a 	sub	r8,r8,r17
    1268:	2823883a 	mov	r17,r5
    126c:	003f9f06 	br	10ec <__alt_mem_onchip_memory+0xf78010ec>
    1270:	4984b03a 	or	r2,r9,r6
    1274:	103f6026 	beq	r2,zero,ff8 <__alt_mem_onchip_memory+0xf7800ff8>
    1278:	213fffc4 	addi	r4,r4,-1
    127c:	2000931e 	bne	r4,zero,14cc <__adddf3+0x550>
    1280:	898d883a 	add	r6,r17,r6
    1284:	3463803a 	cmpltu	r17,r6,r17
    1288:	4251883a 	add	r8,r8,r9
    128c:	8a11883a 	add	r8,r17,r8
    1290:	3023883a 	mov	r17,r6
    1294:	003fd806 	br	11f8 <__alt_mem_onchip_memory+0xf78011f8>
    1298:	1800541e 	bne	r3,zero,13ec <__adddf3+0x470>
    129c:	80800044 	addi	r2,r16,1
    12a0:	1081ffcc 	andi	r2,r2,2047
    12a4:	00c00044 	movi	r3,1
    12a8:	1880a00e 	bge	r3,r2,152c <__adddf3+0x5b0>
    12ac:	8989c83a 	sub	r4,r17,r6
    12b0:	8905803a 	cmpltu	r2,r17,r4
    12b4:	4267c83a 	sub	r19,r8,r9
    12b8:	98a7c83a 	sub	r19,r19,r2
    12bc:	9880202c 	andhi	r2,r19,128
    12c0:	10006326 	beq	r2,zero,1450 <__adddf3+0x4d4>
    12c4:	3463c83a 	sub	r17,r6,r17
    12c8:	4a07c83a 	sub	r3,r9,r8
    12cc:	344d803a 	cmpltu	r6,r6,r17
    12d0:	19a7c83a 	sub	r19,r3,r6
    12d4:	3825883a 	mov	r18,r7
    12d8:	983f8a1e 	bne	r19,zero,1104 <__alt_mem_onchip_memory+0xf7801104>
    12dc:	8809883a 	mov	r4,r17
    12e0:	00021ac0 	call	21ac <__clzsi2>
    12e4:	10800804 	addi	r2,r2,32
    12e8:	10fffe04 	addi	r3,r2,-8
    12ec:	010007c4 	movi	r4,31
    12f0:	20ff890e 	bge	r4,r3,1118 <__alt_mem_onchip_memory+0xf7801118>
    12f4:	10bff604 	addi	r2,r2,-40
    12f8:	8884983a 	sll	r2,r17,r2
    12fc:	0023883a 	mov	r17,zero
    1300:	1c3f8c0e 	bge	r3,r16,1134 <__alt_mem_onchip_memory+0xf7801134>
    1304:	023fe034 	movhi	r8,65408
    1308:	423fffc4 	addi	r8,r8,-1
    130c:	80e1c83a 	sub	r16,r16,r3
    1310:	1210703a 	and	r8,r2,r8
    1314:	003f3806 	br	ff8 <__alt_mem_onchip_memory+0xf7800ff8>
    1318:	9007883a 	mov	r3,r18
    131c:	0011883a 	mov	r8,zero
    1320:	0005883a 	mov	r2,zero
    1324:	003f4c06 	br	1058 <__alt_mem_onchip_memory+0xf7801058>
    1328:	498cb03a 	or	r6,r9,r6
    132c:	300cc03a 	cmpne	r6,r6,zero
    1330:	0007883a 	mov	r3,zero
    1334:	003f6806 	br	10d8 <__alt_mem_onchip_memory+0xf78010d8>
    1338:	20009c1e 	bne	r4,zero,15ac <__adddf3+0x630>
    133c:	80800044 	addi	r2,r16,1
    1340:	1141ffcc 	andi	r5,r2,2047
    1344:	01000044 	movi	r4,1
    1348:	2140670e 	bge	r4,r5,14e8 <__adddf3+0x56c>
    134c:	0101ffc4 	movi	r4,2047
    1350:	11007f26 	beq	r2,r4,1550 <__adddf3+0x5d4>
    1354:	898d883a 	add	r6,r17,r6
    1358:	4247883a 	add	r3,r8,r9
    135c:	3451803a 	cmpltu	r8,r6,r17
    1360:	40d1883a 	add	r8,r8,r3
    1364:	402297fa 	slli	r17,r8,31
    1368:	300cd07a 	srli	r6,r6,1
    136c:	4010d07a 	srli	r8,r8,1
    1370:	1021883a 	mov	r16,r2
    1374:	89a2b03a 	or	r17,r17,r6
    1378:	003f1f06 	br	ff8 <__alt_mem_onchip_memory+0xf7800ff8>
    137c:	0081ffc4 	movi	r2,2047
    1380:	80bf481e 	bne	r16,r2,10a4 <__alt_mem_onchip_memory+0xf78010a4>
    1384:	003f1c06 	br	ff8 <__alt_mem_onchip_memory+0xf7800ff8>
    1388:	843ff844 	addi	r16,r16,-31
    138c:	01000804 	movi	r4,32
    1390:	1406d83a 	srl	r3,r2,r16
    1394:	41005026 	beq	r8,r4,14d8 <__adddf3+0x55c>
    1398:	01001004 	movi	r4,64
    139c:	2211c83a 	sub	r8,r4,r8
    13a0:	1204983a 	sll	r2,r2,r8
    13a4:	88a2b03a 	or	r17,r17,r2
    13a8:	8822c03a 	cmpne	r17,r17,zero
    13ac:	1c62b03a 	or	r17,r3,r17
    13b0:	0011883a 	mov	r8,zero
    13b4:	0021883a 	mov	r16,zero
    13b8:	003f7106 	br	1180 <__alt_mem_onchip_memory+0xf7801180>
    13bc:	193ff804 	addi	r4,r3,-32
    13c0:	00800804 	movi	r2,32
    13c4:	4908d83a 	srl	r4,r9,r4
    13c8:	18804526 	beq	r3,r2,14e0 <__adddf3+0x564>
    13cc:	00801004 	movi	r2,64
    13d0:	10c5c83a 	sub	r2,r2,r3
    13d4:	4886983a 	sll	r3,r9,r2
    13d8:	198cb03a 	or	r6,r3,r6
    13dc:	300cc03a 	cmpne	r6,r6,zero
    13e0:	218cb03a 	or	r6,r4,r6
    13e4:	0007883a 	mov	r3,zero
    13e8:	003f3b06 	br	10d8 <__alt_mem_onchip_memory+0xf78010d8>
    13ec:	80002a26 	beq	r16,zero,1498 <__adddf3+0x51c>
    13f0:	0101ffc4 	movi	r4,2047
    13f4:	11006826 	beq	r2,r4,1598 <__adddf3+0x61c>
    13f8:	00c7c83a 	sub	r3,zero,r3
    13fc:	42002034 	orhi	r8,r8,128
    1400:	01000e04 	movi	r4,56
    1404:	20c07c16 	blt	r4,r3,15f8 <__adddf3+0x67c>
    1408:	010007c4 	movi	r4,31
    140c:	20c0da16 	blt	r4,r3,1778 <__adddf3+0x7fc>
    1410:	01000804 	movi	r4,32
    1414:	20c9c83a 	sub	r4,r4,r3
    1418:	4114983a 	sll	r10,r8,r4
    141c:	88cad83a 	srl	r5,r17,r3
    1420:	8908983a 	sll	r4,r17,r4
    1424:	40c6d83a 	srl	r3,r8,r3
    1428:	5162b03a 	or	r17,r10,r5
    142c:	2008c03a 	cmpne	r4,r4,zero
    1430:	8922b03a 	or	r17,r17,r4
    1434:	3463c83a 	sub	r17,r6,r17
    1438:	48c7c83a 	sub	r3,r9,r3
    143c:	344d803a 	cmpltu	r6,r6,r17
    1440:	1991c83a 	sub	r8,r3,r6
    1444:	1021883a 	mov	r16,r2
    1448:	3825883a 	mov	r18,r7
    144c:	003f2706 	br	10ec <__alt_mem_onchip_memory+0xf78010ec>
    1450:	24d0b03a 	or	r8,r4,r19
    1454:	40001b1e 	bne	r8,zero,14c4 <__adddf3+0x548>
    1458:	0005883a 	mov	r2,zero
    145c:	0007883a 	mov	r3,zero
    1460:	0021883a 	mov	r16,zero
    1464:	003f4d06 	br	119c <__alt_mem_onchip_memory+0xf780119c>
    1468:	008007c4 	movi	r2,31
    146c:	11003c16 	blt	r2,r4,1560 <__adddf3+0x5e4>
    1470:	00800804 	movi	r2,32
    1474:	1105c83a 	sub	r2,r2,r4
    1478:	488e983a 	sll	r7,r9,r2
    147c:	310ad83a 	srl	r5,r6,r4
    1480:	3084983a 	sll	r2,r6,r2
    1484:	4912d83a 	srl	r9,r9,r4
    1488:	394ab03a 	or	r5,r7,r5
    148c:	1004c03a 	cmpne	r2,r2,zero
    1490:	288ab03a 	or	r5,r5,r2
    1494:	003f5306 	br	11e4 <__alt_mem_onchip_memory+0xf78011e4>
    1498:	4448b03a 	or	r4,r8,r17
    149c:	20003e26 	beq	r4,zero,1598 <__adddf3+0x61c>
    14a0:	00c6303a 	nor	r3,zero,r3
    14a4:	18003a1e 	bne	r3,zero,1590 <__adddf3+0x614>
    14a8:	3463c83a 	sub	r17,r6,r17
    14ac:	4a07c83a 	sub	r3,r9,r8
    14b0:	344d803a 	cmpltu	r6,r6,r17
    14b4:	1991c83a 	sub	r8,r3,r6
    14b8:	1021883a 	mov	r16,r2
    14bc:	3825883a 	mov	r18,r7
    14c0:	003f0a06 	br	10ec <__alt_mem_onchip_memory+0xf78010ec>
    14c4:	2023883a 	mov	r17,r4
    14c8:	003f0d06 	br	1100 <__alt_mem_onchip_memory+0xf7801100>
    14cc:	0081ffc4 	movi	r2,2047
    14d0:	80bf3f1e 	bne	r16,r2,11d0 <__alt_mem_onchip_memory+0xf78011d0>
    14d4:	003ec806 	br	ff8 <__alt_mem_onchip_memory+0xf7800ff8>
    14d8:	0005883a 	mov	r2,zero
    14dc:	003fb106 	br	13a4 <__alt_mem_onchip_memory+0xf78013a4>
    14e0:	0007883a 	mov	r3,zero
    14e4:	003fbc06 	br	13d8 <__alt_mem_onchip_memory+0xf78013d8>
    14e8:	4444b03a 	or	r2,r8,r17
    14ec:	8000871e 	bne	r16,zero,170c <__adddf3+0x790>
    14f0:	1000ba26 	beq	r2,zero,17dc <__adddf3+0x860>
    14f4:	4984b03a 	or	r2,r9,r6
    14f8:	103ebf26 	beq	r2,zero,ff8 <__alt_mem_onchip_memory+0xf7800ff8>
    14fc:	8985883a 	add	r2,r17,r6
    1500:	4247883a 	add	r3,r8,r9
    1504:	1451803a 	cmpltu	r8,r2,r17
    1508:	40d1883a 	add	r8,r8,r3
    150c:	40c0202c 	andhi	r3,r8,128
    1510:	1023883a 	mov	r17,r2
    1514:	183f1a26 	beq	r3,zero,1180 <__alt_mem_onchip_memory+0xf7801180>
    1518:	00bfe034 	movhi	r2,65408
    151c:	10bfffc4 	addi	r2,r2,-1
    1520:	2021883a 	mov	r16,r4
    1524:	4090703a 	and	r8,r8,r2
    1528:	003eb306 	br	ff8 <__alt_mem_onchip_memory+0xf7800ff8>
    152c:	4444b03a 	or	r2,r8,r17
    1530:	8000291e 	bne	r16,zero,15d8 <__adddf3+0x65c>
    1534:	10004b1e 	bne	r2,zero,1664 <__adddf3+0x6e8>
    1538:	4990b03a 	or	r8,r9,r6
    153c:	40008b26 	beq	r8,zero,176c <__adddf3+0x7f0>
    1540:	4811883a 	mov	r8,r9
    1544:	3023883a 	mov	r17,r6
    1548:	3825883a 	mov	r18,r7
    154c:	003eaa06 	br	ff8 <__alt_mem_onchip_memory+0xf7800ff8>
    1550:	1021883a 	mov	r16,r2
    1554:	0011883a 	mov	r8,zero
    1558:	0005883a 	mov	r2,zero
    155c:	003f0f06 	br	119c <__alt_mem_onchip_memory+0xf780119c>
    1560:	217ff804 	addi	r5,r4,-32
    1564:	00800804 	movi	r2,32
    1568:	494ad83a 	srl	r5,r9,r5
    156c:	20807d26 	beq	r4,r2,1764 <__adddf3+0x7e8>
    1570:	00801004 	movi	r2,64
    1574:	1109c83a 	sub	r4,r2,r4
    1578:	4912983a 	sll	r9,r9,r4
    157c:	498cb03a 	or	r6,r9,r6
    1580:	300cc03a 	cmpne	r6,r6,zero
    1584:	298ab03a 	or	r5,r5,r6
    1588:	0013883a 	mov	r9,zero
    158c:	003f1506 	br	11e4 <__alt_mem_onchip_memory+0xf78011e4>
    1590:	0101ffc4 	movi	r4,2047
    1594:	113f9a1e 	bne	r2,r4,1400 <__alt_mem_onchip_memory+0xf7801400>
    1598:	4811883a 	mov	r8,r9
    159c:	3023883a 	mov	r17,r6
    15a0:	1021883a 	mov	r16,r2
    15a4:	3825883a 	mov	r18,r7
    15a8:	003e9306 	br	ff8 <__alt_mem_onchip_memory+0xf7800ff8>
    15ac:	8000161e 	bne	r16,zero,1608 <__adddf3+0x68c>
    15b0:	444ab03a 	or	r5,r8,r17
    15b4:	28005126 	beq	r5,zero,16fc <__adddf3+0x780>
    15b8:	0108303a 	nor	r4,zero,r4
    15bc:	20004d1e 	bne	r4,zero,16f4 <__adddf3+0x778>
    15c0:	89a3883a 	add	r17,r17,r6
    15c4:	4253883a 	add	r9,r8,r9
    15c8:	898d803a 	cmpltu	r6,r17,r6
    15cc:	3251883a 	add	r8,r6,r9
    15d0:	1021883a 	mov	r16,r2
    15d4:	003f0806 	br	11f8 <__alt_mem_onchip_memory+0xf78011f8>
    15d8:	1000301e 	bne	r2,zero,169c <__adddf3+0x720>
    15dc:	4984b03a 	or	r2,r9,r6
    15e0:	10007126 	beq	r2,zero,17a8 <__adddf3+0x82c>
    15e4:	4811883a 	mov	r8,r9
    15e8:	3023883a 	mov	r17,r6
    15ec:	3825883a 	mov	r18,r7
    15f0:	0401ffc4 	movi	r16,2047
    15f4:	003e8006 	br	ff8 <__alt_mem_onchip_memory+0xf7800ff8>
    15f8:	4462b03a 	or	r17,r8,r17
    15fc:	8822c03a 	cmpne	r17,r17,zero
    1600:	0007883a 	mov	r3,zero
    1604:	003f8b06 	br	1434 <__alt_mem_onchip_memory+0xf7801434>
    1608:	0141ffc4 	movi	r5,2047
    160c:	11403b26 	beq	r2,r5,16fc <__adddf3+0x780>
    1610:	0109c83a 	sub	r4,zero,r4
    1614:	42002034 	orhi	r8,r8,128
    1618:	01400e04 	movi	r5,56
    161c:	29006716 	blt	r5,r4,17bc <__adddf3+0x840>
    1620:	014007c4 	movi	r5,31
    1624:	29007016 	blt	r5,r4,17e8 <__adddf3+0x86c>
    1628:	01400804 	movi	r5,32
    162c:	290bc83a 	sub	r5,r5,r4
    1630:	4154983a 	sll	r10,r8,r5
    1634:	890ed83a 	srl	r7,r17,r4
    1638:	894a983a 	sll	r5,r17,r5
    163c:	4108d83a 	srl	r4,r8,r4
    1640:	51e2b03a 	or	r17,r10,r7
    1644:	280ac03a 	cmpne	r5,r5,zero
    1648:	8962b03a 	or	r17,r17,r5
    164c:	89a3883a 	add	r17,r17,r6
    1650:	2253883a 	add	r9,r4,r9
    1654:	898d803a 	cmpltu	r6,r17,r6
    1658:	3251883a 	add	r8,r6,r9
    165c:	1021883a 	mov	r16,r2
    1660:	003ee506 	br	11f8 <__alt_mem_onchip_memory+0xf78011f8>
    1664:	4984b03a 	or	r2,r9,r6
    1668:	103e6326 	beq	r2,zero,ff8 <__alt_mem_onchip_memory+0xf7800ff8>
    166c:	8987c83a 	sub	r3,r17,r6
    1670:	88c9803a 	cmpltu	r4,r17,r3
    1674:	4245c83a 	sub	r2,r8,r9
    1678:	1105c83a 	sub	r2,r2,r4
    167c:	1100202c 	andhi	r4,r2,128
    1680:	203ebb26 	beq	r4,zero,1170 <__alt_mem_onchip_memory+0xf7801170>
    1684:	3463c83a 	sub	r17,r6,r17
    1688:	4a07c83a 	sub	r3,r9,r8
    168c:	344d803a 	cmpltu	r6,r6,r17
    1690:	1991c83a 	sub	r8,r3,r6
    1694:	3825883a 	mov	r18,r7
    1698:	003e5706 	br	ff8 <__alt_mem_onchip_memory+0xf7800ff8>
    169c:	4984b03a 	or	r2,r9,r6
    16a0:	10002e26 	beq	r2,zero,175c <__adddf3+0x7e0>
    16a4:	4004d0fa 	srli	r2,r8,3
    16a8:	8822d0fa 	srli	r17,r17,3
    16ac:	4010977a 	slli	r8,r8,29
    16b0:	10c0022c 	andhi	r3,r2,8
    16b4:	4462b03a 	or	r17,r8,r17
    16b8:	18000826 	beq	r3,zero,16dc <__adddf3+0x760>
    16bc:	4808d0fa 	srli	r4,r9,3
    16c0:	20c0022c 	andhi	r3,r4,8
    16c4:	1800051e 	bne	r3,zero,16dc <__adddf3+0x760>
    16c8:	300cd0fa 	srli	r6,r6,3
    16cc:	4806977a 	slli	r3,r9,29
    16d0:	2005883a 	mov	r2,r4
    16d4:	3825883a 	mov	r18,r7
    16d8:	19a2b03a 	or	r17,r3,r6
    16dc:	8810d77a 	srli	r8,r17,29
    16e0:	100490fa 	slli	r2,r2,3
    16e4:	882290fa 	slli	r17,r17,3
    16e8:	0401ffc4 	movi	r16,2047
    16ec:	4090b03a 	or	r8,r8,r2
    16f0:	003e4106 	br	ff8 <__alt_mem_onchip_memory+0xf7800ff8>
    16f4:	0141ffc4 	movi	r5,2047
    16f8:	117fc71e 	bne	r2,r5,1618 <__alt_mem_onchip_memory+0xf7801618>
    16fc:	4811883a 	mov	r8,r9
    1700:	3023883a 	mov	r17,r6
    1704:	1021883a 	mov	r16,r2
    1708:	003e3b06 	br	ff8 <__alt_mem_onchip_memory+0xf7800ff8>
    170c:	10002f26 	beq	r2,zero,17cc <__adddf3+0x850>
    1710:	4984b03a 	or	r2,r9,r6
    1714:	10001126 	beq	r2,zero,175c <__adddf3+0x7e0>
    1718:	4004d0fa 	srli	r2,r8,3
    171c:	8822d0fa 	srli	r17,r17,3
    1720:	4010977a 	slli	r8,r8,29
    1724:	10c0022c 	andhi	r3,r2,8
    1728:	4462b03a 	or	r17,r8,r17
    172c:	183feb26 	beq	r3,zero,16dc <__alt_mem_onchip_memory+0xf78016dc>
    1730:	4808d0fa 	srli	r4,r9,3
    1734:	20c0022c 	andhi	r3,r4,8
    1738:	183fe81e 	bne	r3,zero,16dc <__alt_mem_onchip_memory+0xf78016dc>
    173c:	300cd0fa 	srli	r6,r6,3
    1740:	4806977a 	slli	r3,r9,29
    1744:	2005883a 	mov	r2,r4
    1748:	19a2b03a 	or	r17,r3,r6
    174c:	003fe306 	br	16dc <__alt_mem_onchip_memory+0xf78016dc>
    1750:	0011883a 	mov	r8,zero
    1754:	0005883a 	mov	r2,zero
    1758:	003e3f06 	br	1058 <__alt_mem_onchip_memory+0xf7801058>
    175c:	0401ffc4 	movi	r16,2047
    1760:	003e2506 	br	ff8 <__alt_mem_onchip_memory+0xf7800ff8>
    1764:	0013883a 	mov	r9,zero
    1768:	003f8406 	br	157c <__alt_mem_onchip_memory+0xf780157c>
    176c:	0005883a 	mov	r2,zero
    1770:	0007883a 	mov	r3,zero
    1774:	003e8906 	br	119c <__alt_mem_onchip_memory+0xf780119c>
    1778:	197ff804 	addi	r5,r3,-32
    177c:	01000804 	movi	r4,32
    1780:	414ad83a 	srl	r5,r8,r5
    1784:	19002426 	beq	r3,r4,1818 <__adddf3+0x89c>
    1788:	01001004 	movi	r4,64
    178c:	20c7c83a 	sub	r3,r4,r3
    1790:	40c6983a 	sll	r3,r8,r3
    1794:	1c46b03a 	or	r3,r3,r17
    1798:	1806c03a 	cmpne	r3,r3,zero
    179c:	28e2b03a 	or	r17,r5,r3
    17a0:	0007883a 	mov	r3,zero
    17a4:	003f2306 	br	1434 <__alt_mem_onchip_memory+0xf7801434>
    17a8:	0007883a 	mov	r3,zero
    17ac:	5811883a 	mov	r8,r11
    17b0:	00bfffc4 	movi	r2,-1
    17b4:	0401ffc4 	movi	r16,2047
    17b8:	003e7806 	br	119c <__alt_mem_onchip_memory+0xf780119c>
    17bc:	4462b03a 	or	r17,r8,r17
    17c0:	8822c03a 	cmpne	r17,r17,zero
    17c4:	0009883a 	mov	r4,zero
    17c8:	003fa006 	br	164c <__alt_mem_onchip_memory+0xf780164c>
    17cc:	4811883a 	mov	r8,r9
    17d0:	3023883a 	mov	r17,r6
    17d4:	0401ffc4 	movi	r16,2047
    17d8:	003e0706 	br	ff8 <__alt_mem_onchip_memory+0xf7800ff8>
    17dc:	4811883a 	mov	r8,r9
    17e0:	3023883a 	mov	r17,r6
    17e4:	003e0406 	br	ff8 <__alt_mem_onchip_memory+0xf7800ff8>
    17e8:	21fff804 	addi	r7,r4,-32
    17ec:	01400804 	movi	r5,32
    17f0:	41ced83a 	srl	r7,r8,r7
    17f4:	21400a26 	beq	r4,r5,1820 <__adddf3+0x8a4>
    17f8:	01401004 	movi	r5,64
    17fc:	2909c83a 	sub	r4,r5,r4
    1800:	4108983a 	sll	r4,r8,r4
    1804:	2448b03a 	or	r4,r4,r17
    1808:	2008c03a 	cmpne	r4,r4,zero
    180c:	3922b03a 	or	r17,r7,r4
    1810:	0009883a 	mov	r4,zero
    1814:	003f8d06 	br	164c <__alt_mem_onchip_memory+0xf780164c>
    1818:	0007883a 	mov	r3,zero
    181c:	003fdd06 	br	1794 <__alt_mem_onchip_memory+0xf7801794>
    1820:	0009883a 	mov	r4,zero
    1824:	003ff706 	br	1804 <__alt_mem_onchip_memory+0xf7801804>

00001828 <__gedf2>:
    1828:	2804d53a 	srli	r2,r5,20
    182c:	3806d53a 	srli	r3,r7,20
    1830:	02000434 	movhi	r8,16
    1834:	423fffc4 	addi	r8,r8,-1
    1838:	1081ffcc 	andi	r2,r2,2047
    183c:	0241ffc4 	movi	r9,2047
    1840:	2a14703a 	and	r10,r5,r8
    1844:	18c1ffcc 	andi	r3,r3,2047
    1848:	3a10703a 	and	r8,r7,r8
    184c:	280ad7fa 	srli	r5,r5,31
    1850:	380ed7fa 	srli	r7,r7,31
    1854:	12401d26 	beq	r2,r9,18cc <__gedf2+0xa4>
    1858:	0241ffc4 	movi	r9,2047
    185c:	1a401226 	beq	r3,r9,18a8 <__gedf2+0x80>
    1860:	1000081e 	bne	r2,zero,1884 <__gedf2+0x5c>
    1864:	2296b03a 	or	r11,r4,r10
    1868:	5813003a 	cmpeq	r9,r11,zero
    186c:	1800091e 	bne	r3,zero,1894 <__gedf2+0x6c>
    1870:	3218b03a 	or	r12,r6,r8
    1874:	6000071e 	bne	r12,zero,1894 <__gedf2+0x6c>
    1878:	0005883a 	mov	r2,zero
    187c:	5800101e 	bne	r11,zero,18c0 <__gedf2+0x98>
    1880:	f800283a 	ret
    1884:	18000c1e 	bne	r3,zero,18b8 <__gedf2+0x90>
    1888:	3212b03a 	or	r9,r6,r8
    188c:	48000c26 	beq	r9,zero,18c0 <__gedf2+0x98>
    1890:	0013883a 	mov	r9,zero
    1894:	39c03fcc 	andi	r7,r7,255
    1898:	48000826 	beq	r9,zero,18bc <__gedf2+0x94>
    189c:	38000926 	beq	r7,zero,18c4 <__gedf2+0x9c>
    18a0:	00800044 	movi	r2,1
    18a4:	f800283a 	ret
    18a8:	3212b03a 	or	r9,r6,r8
    18ac:	483fec26 	beq	r9,zero,1860 <__alt_mem_onchip_memory+0xf7801860>
    18b0:	00bfff84 	movi	r2,-2
    18b4:	f800283a 	ret
    18b8:	39c03fcc 	andi	r7,r7,255
    18bc:	29c00626 	beq	r5,r7,18d8 <__gedf2+0xb0>
    18c0:	283ff726 	beq	r5,zero,18a0 <__alt_mem_onchip_memory+0xf78018a0>
    18c4:	00bfffc4 	movi	r2,-1
    18c8:	f800283a 	ret
    18cc:	2292b03a 	or	r9,r4,r10
    18d0:	483fe126 	beq	r9,zero,1858 <__alt_mem_onchip_memory+0xf7801858>
    18d4:	003ff606 	br	18b0 <__alt_mem_onchip_memory+0xf78018b0>
    18d8:	18bff916 	blt	r3,r2,18c0 <__alt_mem_onchip_memory+0xf78018c0>
    18dc:	10c00316 	blt	r2,r3,18ec <__gedf2+0xc4>
    18e0:	42bff736 	bltu	r8,r10,18c0 <__alt_mem_onchip_memory+0xf78018c0>
    18e4:	52000326 	beq	r10,r8,18f4 <__gedf2+0xcc>
    18e8:	5200042e 	bgeu	r10,r8,18fc <__gedf2+0xd4>
    18ec:	283fec1e 	bne	r5,zero,18a0 <__alt_mem_onchip_memory+0xf78018a0>
    18f0:	003ff406 	br	18c4 <__alt_mem_onchip_memory+0xf78018c4>
    18f4:	313ff236 	bltu	r6,r4,18c0 <__alt_mem_onchip_memory+0xf78018c0>
    18f8:	21bffc36 	bltu	r4,r6,18ec <__alt_mem_onchip_memory+0xf78018ec>
    18fc:	0005883a 	mov	r2,zero
    1900:	f800283a 	ret

00001904 <__muldf3>:
    1904:	defff304 	addi	sp,sp,-52
    1908:	2804d53a 	srli	r2,r5,20
    190c:	dd800915 	stw	r22,36(sp)
    1910:	282cd7fa 	srli	r22,r5,31
    1914:	dc000315 	stw	r16,12(sp)
    1918:	04000434 	movhi	r16,16
    191c:	dd400815 	stw	r21,32(sp)
    1920:	dc800515 	stw	r18,20(sp)
    1924:	843fffc4 	addi	r16,r16,-1
    1928:	dfc00c15 	stw	ra,48(sp)
    192c:	df000b15 	stw	fp,44(sp)
    1930:	ddc00a15 	stw	r23,40(sp)
    1934:	dd000715 	stw	r20,28(sp)
    1938:	dcc00615 	stw	r19,24(sp)
    193c:	dc400415 	stw	r17,16(sp)
    1940:	1481ffcc 	andi	r18,r2,2047
    1944:	2c20703a 	and	r16,r5,r16
    1948:	b02b883a 	mov	r21,r22
    194c:	b2403fcc 	andi	r9,r22,255
    1950:	90006026 	beq	r18,zero,1ad4 <__muldf3+0x1d0>
    1954:	0081ffc4 	movi	r2,2047
    1958:	2029883a 	mov	r20,r4
    195c:	90803626 	beq	r18,r2,1a38 <__muldf3+0x134>
    1960:	80800434 	orhi	r2,r16,16
    1964:	100490fa 	slli	r2,r2,3
    1968:	2020d77a 	srli	r16,r4,29
    196c:	202890fa 	slli	r20,r4,3
    1970:	94bf0044 	addi	r18,r18,-1023
    1974:	80a0b03a 	or	r16,r16,r2
    1978:	0027883a 	mov	r19,zero
    197c:	0039883a 	mov	fp,zero
    1980:	3804d53a 	srli	r2,r7,20
    1984:	382ed7fa 	srli	r23,r7,31
    1988:	04400434 	movhi	r17,16
    198c:	8c7fffc4 	addi	r17,r17,-1
    1990:	1081ffcc 	andi	r2,r2,2047
    1994:	3011883a 	mov	r8,r6
    1998:	3c62703a 	and	r17,r7,r17
    199c:	ba803fcc 	andi	r10,r23,255
    19a0:	10006d26 	beq	r2,zero,1b58 <__muldf3+0x254>
    19a4:	00c1ffc4 	movi	r3,2047
    19a8:	10c06526 	beq	r2,r3,1b40 <__muldf3+0x23c>
    19ac:	88c00434 	orhi	r3,r17,16
    19b0:	180690fa 	slli	r3,r3,3
    19b4:	3022d77a 	srli	r17,r6,29
    19b8:	301090fa 	slli	r8,r6,3
    19bc:	10bf0044 	addi	r2,r2,-1023
    19c0:	88e2b03a 	or	r17,r17,r3
    19c4:	000b883a 	mov	r5,zero
    19c8:	9085883a 	add	r2,r18,r2
    19cc:	2cc8b03a 	or	r4,r5,r19
    19d0:	00c003c4 	movi	r3,15
    19d4:	bdacf03a 	xor	r22,r23,r22
    19d8:	12c00044 	addi	r11,r2,1
    19dc:	19009936 	bltu	r3,r4,1c44 <__muldf3+0x340>
    19e0:	200890ba 	slli	r4,r4,2
    19e4:	00c00034 	movhi	r3,0
    19e8:	18c67e04 	addi	r3,r3,6648
    19ec:	20c9883a 	add	r4,r4,r3
    19f0:	20c00017 	ldw	r3,0(r4)
    19f4:	1800683a 	jmp	r3
    19f8:	00001c44 	movi	zero,113
    19fc:	00001a58 	cmpnei	zero,zero,105
    1a00:	00001a58 	cmpnei	zero,zero,105
    1a04:	00001a54 	movui	zero,105
    1a08:	00001c20 	cmpeqi	zero,zero,112
    1a0c:	00001c20 	cmpeqi	zero,zero,112
    1a10:	00001c08 	cmpgei	zero,zero,112
    1a14:	00001a54 	movui	zero,105
    1a18:	00001c20 	cmpeqi	zero,zero,112
    1a1c:	00001c08 	cmpgei	zero,zero,112
    1a20:	00001c20 	cmpeqi	zero,zero,112
    1a24:	00001a54 	movui	zero,105
    1a28:	00001c30 	cmpltui	zero,zero,112
    1a2c:	00001c30 	cmpltui	zero,zero,112
    1a30:	00001c30 	cmpltui	zero,zero,112
    1a34:	00001e4c 	andi	zero,zero,121
    1a38:	2404b03a 	or	r2,r4,r16
    1a3c:	10006f1e 	bne	r2,zero,1bfc <__muldf3+0x2f8>
    1a40:	04c00204 	movi	r19,8
    1a44:	0021883a 	mov	r16,zero
    1a48:	0029883a 	mov	r20,zero
    1a4c:	07000084 	movi	fp,2
    1a50:	003fcb06 	br	1980 <__alt_mem_onchip_memory+0xf7801980>
    1a54:	502d883a 	mov	r22,r10
    1a58:	00800084 	movi	r2,2
    1a5c:	28805726 	beq	r5,r2,1bbc <__muldf3+0x2b8>
    1a60:	008000c4 	movi	r2,3
    1a64:	28816626 	beq	r5,r2,2000 <__muldf3+0x6fc>
    1a68:	00800044 	movi	r2,1
    1a6c:	2881411e 	bne	r5,r2,1f74 <__muldf3+0x670>
    1a70:	b02b883a 	mov	r21,r22
    1a74:	0005883a 	mov	r2,zero
    1a78:	000b883a 	mov	r5,zero
    1a7c:	0029883a 	mov	r20,zero
    1a80:	1004953a 	slli	r2,r2,20
    1a84:	a8c03fcc 	andi	r3,r21,255
    1a88:	04400434 	movhi	r17,16
    1a8c:	8c7fffc4 	addi	r17,r17,-1
    1a90:	180697fa 	slli	r3,r3,31
    1a94:	2c4a703a 	and	r5,r5,r17
    1a98:	288ab03a 	or	r5,r5,r2
    1a9c:	28c6b03a 	or	r3,r5,r3
    1aa0:	a005883a 	mov	r2,r20
    1aa4:	dfc00c17 	ldw	ra,48(sp)
    1aa8:	df000b17 	ldw	fp,44(sp)
    1aac:	ddc00a17 	ldw	r23,40(sp)
    1ab0:	dd800917 	ldw	r22,36(sp)
    1ab4:	dd400817 	ldw	r21,32(sp)
    1ab8:	dd000717 	ldw	r20,28(sp)
    1abc:	dcc00617 	ldw	r19,24(sp)
    1ac0:	dc800517 	ldw	r18,20(sp)
    1ac4:	dc400417 	ldw	r17,16(sp)
    1ac8:	dc000317 	ldw	r16,12(sp)
    1acc:	dec00d04 	addi	sp,sp,52
    1ad0:	f800283a 	ret
    1ad4:	2404b03a 	or	r2,r4,r16
    1ad8:	2027883a 	mov	r19,r4
    1adc:	10004226 	beq	r2,zero,1be8 <__muldf3+0x2e4>
    1ae0:	8000fc26 	beq	r16,zero,1ed4 <__muldf3+0x5d0>
    1ae4:	8009883a 	mov	r4,r16
    1ae8:	d9800215 	stw	r6,8(sp)
    1aec:	d9c00015 	stw	r7,0(sp)
    1af0:	da400115 	stw	r9,4(sp)
    1af4:	00021ac0 	call	21ac <__clzsi2>
    1af8:	d9800217 	ldw	r6,8(sp)
    1afc:	d9c00017 	ldw	r7,0(sp)
    1b00:	da400117 	ldw	r9,4(sp)
    1b04:	113ffd44 	addi	r4,r2,-11
    1b08:	00c00704 	movi	r3,28
    1b0c:	1900ed16 	blt	r3,r4,1ec4 <__muldf3+0x5c0>
    1b10:	00c00744 	movi	r3,29
    1b14:	147ffe04 	addi	r17,r2,-8
    1b18:	1907c83a 	sub	r3,r3,r4
    1b1c:	8460983a 	sll	r16,r16,r17
    1b20:	98c6d83a 	srl	r3,r19,r3
    1b24:	9c68983a 	sll	r20,r19,r17
    1b28:	1c20b03a 	or	r16,r3,r16
    1b2c:	1080fcc4 	addi	r2,r2,1011
    1b30:	00a5c83a 	sub	r18,zero,r2
    1b34:	0027883a 	mov	r19,zero
    1b38:	0039883a 	mov	fp,zero
    1b3c:	003f9006 	br	1980 <__alt_mem_onchip_memory+0xf7801980>
    1b40:	3446b03a 	or	r3,r6,r17
    1b44:	1800261e 	bne	r3,zero,1be0 <__muldf3+0x2dc>
    1b48:	0023883a 	mov	r17,zero
    1b4c:	0011883a 	mov	r8,zero
    1b50:	01400084 	movi	r5,2
    1b54:	003f9c06 	br	19c8 <__alt_mem_onchip_memory+0xf78019c8>
    1b58:	3446b03a 	or	r3,r6,r17
    1b5c:	18001c26 	beq	r3,zero,1bd0 <__muldf3+0x2cc>
    1b60:	8800ce26 	beq	r17,zero,1e9c <__muldf3+0x598>
    1b64:	8809883a 	mov	r4,r17
    1b68:	d9800215 	stw	r6,8(sp)
    1b6c:	da400115 	stw	r9,4(sp)
    1b70:	da800015 	stw	r10,0(sp)
    1b74:	00021ac0 	call	21ac <__clzsi2>
    1b78:	d9800217 	ldw	r6,8(sp)
    1b7c:	da400117 	ldw	r9,4(sp)
    1b80:	da800017 	ldw	r10,0(sp)
    1b84:	113ffd44 	addi	r4,r2,-11
    1b88:	00c00704 	movi	r3,28
    1b8c:	1900bf16 	blt	r3,r4,1e8c <__muldf3+0x588>
    1b90:	00c00744 	movi	r3,29
    1b94:	123ffe04 	addi	r8,r2,-8
    1b98:	1907c83a 	sub	r3,r3,r4
    1b9c:	8a22983a 	sll	r17,r17,r8
    1ba0:	30c6d83a 	srl	r3,r6,r3
    1ba4:	3210983a 	sll	r8,r6,r8
    1ba8:	1c62b03a 	or	r17,r3,r17
    1bac:	1080fcc4 	addi	r2,r2,1011
    1bb0:	0085c83a 	sub	r2,zero,r2
    1bb4:	000b883a 	mov	r5,zero
    1bb8:	003f8306 	br	19c8 <__alt_mem_onchip_memory+0xf78019c8>
    1bbc:	b02b883a 	mov	r21,r22
    1bc0:	0081ffc4 	movi	r2,2047
    1bc4:	000b883a 	mov	r5,zero
    1bc8:	0029883a 	mov	r20,zero
    1bcc:	003fac06 	br	1a80 <__alt_mem_onchip_memory+0xf7801a80>
    1bd0:	0023883a 	mov	r17,zero
    1bd4:	0011883a 	mov	r8,zero
    1bd8:	01400044 	movi	r5,1
    1bdc:	003f7a06 	br	19c8 <__alt_mem_onchip_memory+0xf78019c8>
    1be0:	014000c4 	movi	r5,3
    1be4:	003f7806 	br	19c8 <__alt_mem_onchip_memory+0xf78019c8>
    1be8:	04c00104 	movi	r19,4
    1bec:	0021883a 	mov	r16,zero
    1bf0:	0029883a 	mov	r20,zero
    1bf4:	07000044 	movi	fp,1
    1bf8:	003f6106 	br	1980 <__alt_mem_onchip_memory+0xf7801980>
    1bfc:	04c00304 	movi	r19,12
    1c00:	070000c4 	movi	fp,3
    1c04:	003f5e06 	br	1980 <__alt_mem_onchip_memory+0xf7801980>
    1c08:	01400434 	movhi	r5,16
    1c0c:	002b883a 	mov	r21,zero
    1c10:	297fffc4 	addi	r5,r5,-1
    1c14:	053fffc4 	movi	r20,-1
    1c18:	0081ffc4 	movi	r2,2047
    1c1c:	003f9806 	br	1a80 <__alt_mem_onchip_memory+0xf7801a80>
    1c20:	8023883a 	mov	r17,r16
    1c24:	a011883a 	mov	r8,r20
    1c28:	e00b883a 	mov	r5,fp
    1c2c:	003f8a06 	br	1a58 <__alt_mem_onchip_memory+0xf7801a58>
    1c30:	8023883a 	mov	r17,r16
    1c34:	a011883a 	mov	r8,r20
    1c38:	482d883a 	mov	r22,r9
    1c3c:	e00b883a 	mov	r5,fp
    1c40:	003f8506 	br	1a58 <__alt_mem_onchip_memory+0xf7801a58>
    1c44:	a00ad43a 	srli	r5,r20,16
    1c48:	401ad43a 	srli	r13,r8,16
    1c4c:	a53fffcc 	andi	r20,r20,65535
    1c50:	423fffcc 	andi	r8,r8,65535
    1c54:	4519383a 	mul	r12,r8,r20
    1c58:	4147383a 	mul	r3,r8,r5
    1c5c:	6d09383a 	mul	r4,r13,r20
    1c60:	600cd43a 	srli	r6,r12,16
    1c64:	2b5d383a 	mul	r14,r5,r13
    1c68:	20c9883a 	add	r4,r4,r3
    1c6c:	310d883a 	add	r6,r6,r4
    1c70:	30c0022e 	bgeu	r6,r3,1c7c <__muldf3+0x378>
    1c74:	00c00074 	movhi	r3,1
    1c78:	70dd883a 	add	r14,r14,r3
    1c7c:	8826d43a 	srli	r19,r17,16
    1c80:	8bffffcc 	andi	r15,r17,65535
    1c84:	7d23383a 	mul	r17,r15,r20
    1c88:	7949383a 	mul	r4,r15,r5
    1c8c:	9d29383a 	mul	r20,r19,r20
    1c90:	8814d43a 	srli	r10,r17,16
    1c94:	3012943a 	slli	r9,r6,16
    1c98:	a129883a 	add	r20,r20,r4
    1c9c:	633fffcc 	andi	r12,r12,65535
    1ca0:	5515883a 	add	r10,r10,r20
    1ca4:	3006d43a 	srli	r3,r6,16
    1ca8:	4b13883a 	add	r9,r9,r12
    1cac:	2ccb383a 	mul	r5,r5,r19
    1cb0:	5100022e 	bgeu	r10,r4,1cbc <__muldf3+0x3b8>
    1cb4:	01000074 	movhi	r4,1
    1cb8:	290b883a 	add	r5,r5,r4
    1cbc:	802ad43a 	srli	r21,r16,16
    1cc0:	843fffcc 	andi	r16,r16,65535
    1cc4:	440d383a 	mul	r6,r8,r16
    1cc8:	4565383a 	mul	r18,r8,r21
    1ccc:	8349383a 	mul	r4,r16,r13
    1cd0:	500e943a 	slli	r7,r10,16
    1cd4:	3010d43a 	srli	r8,r6,16
    1cd8:	5028d43a 	srli	r20,r10,16
    1cdc:	2489883a 	add	r4,r4,r18
    1ce0:	8abfffcc 	andi	r10,r17,65535
    1ce4:	3a95883a 	add	r10,r7,r10
    1ce8:	4119883a 	add	r12,r8,r4
    1cec:	a169883a 	add	r20,r20,r5
    1cf0:	1a87883a 	add	r3,r3,r10
    1cf4:	6d5b383a 	mul	r13,r13,r21
    1cf8:	6480022e 	bgeu	r12,r18,1d04 <__muldf3+0x400>
    1cfc:	01000074 	movhi	r4,1
    1d00:	691b883a 	add	r13,r13,r4
    1d04:	7c25383a 	mul	r18,r15,r16
    1d08:	7d4b383a 	mul	r5,r15,r21
    1d0c:	84cf383a 	mul	r7,r16,r19
    1d10:	901ed43a 	srli	r15,r18,16
    1d14:	6008d43a 	srli	r4,r12,16
    1d18:	6010943a 	slli	r8,r12,16
    1d1c:	394f883a 	add	r7,r7,r5
    1d20:	333fffcc 	andi	r12,r6,65535
    1d24:	79df883a 	add	r15,r15,r7
    1d28:	235b883a 	add	r13,r4,r13
    1d2c:	9d63383a 	mul	r17,r19,r21
    1d30:	4309883a 	add	r4,r8,r12
    1d34:	7940022e 	bgeu	r15,r5,1d40 <__muldf3+0x43c>
    1d38:	01400074 	movhi	r5,1
    1d3c:	8963883a 	add	r17,r17,r5
    1d40:	780a943a 	slli	r5,r15,16
    1d44:	91bfffcc 	andi	r6,r18,65535
    1d48:	70c7883a 	add	r3,r14,r3
    1d4c:	298d883a 	add	r6,r5,r6
    1d50:	1a8f803a 	cmpltu	r7,r3,r10
    1d54:	350b883a 	add	r5,r6,r20
    1d58:	20c7883a 	add	r3,r4,r3
    1d5c:	3955883a 	add	r10,r7,r5
    1d60:	1909803a 	cmpltu	r4,r3,r4
    1d64:	6a91883a 	add	r8,r13,r10
    1d68:	780cd43a 	srli	r6,r15,16
    1d6c:	2219883a 	add	r12,r4,r8
    1d70:	2d0b803a 	cmpltu	r5,r5,r20
    1d74:	51cf803a 	cmpltu	r7,r10,r7
    1d78:	29ceb03a 	or	r7,r5,r7
    1d7c:	4351803a 	cmpltu	r8,r8,r13
    1d80:	610b803a 	cmpltu	r5,r12,r4
    1d84:	4148b03a 	or	r4,r8,r5
    1d88:	398f883a 	add	r7,r7,r6
    1d8c:	3909883a 	add	r4,r7,r4
    1d90:	1810927a 	slli	r8,r3,9
    1d94:	2449883a 	add	r4,r4,r17
    1d98:	2008927a 	slli	r4,r4,9
    1d9c:	6022d5fa 	srli	r17,r12,23
    1da0:	1806d5fa 	srli	r3,r3,23
    1da4:	4252b03a 	or	r9,r8,r9
    1da8:	600a927a 	slli	r5,r12,9
    1dac:	4810c03a 	cmpne	r8,r9,zero
    1db0:	2462b03a 	or	r17,r4,r17
    1db4:	40c6b03a 	or	r3,r8,r3
    1db8:	8900402c 	andhi	r4,r17,256
    1dbc:	1950b03a 	or	r8,r3,r5
    1dc0:	20000726 	beq	r4,zero,1de0 <__muldf3+0x4dc>
    1dc4:	4006d07a 	srli	r3,r8,1
    1dc8:	880497fa 	slli	r2,r17,31
    1dcc:	4200004c 	andi	r8,r8,1
    1dd0:	8822d07a 	srli	r17,r17,1
    1dd4:	1a10b03a 	or	r8,r3,r8
    1dd8:	1210b03a 	or	r8,r2,r8
    1ddc:	5805883a 	mov	r2,r11
    1de0:	1140ffc4 	addi	r5,r2,1023
    1de4:	0140440e 	bge	zero,r5,1ef8 <__muldf3+0x5f4>
    1de8:	40c001cc 	andi	r3,r8,7
    1dec:	18000726 	beq	r3,zero,1e0c <__muldf3+0x508>
    1df0:	40c003cc 	andi	r3,r8,15
    1df4:	01000104 	movi	r4,4
    1df8:	19000426 	beq	r3,r4,1e0c <__muldf3+0x508>
    1dfc:	4107883a 	add	r3,r8,r4
    1e00:	1a11803a 	cmpltu	r8,r3,r8
    1e04:	8a23883a 	add	r17,r17,r8
    1e08:	1811883a 	mov	r8,r3
    1e0c:	88c0402c 	andhi	r3,r17,256
    1e10:	18000426 	beq	r3,zero,1e24 <__muldf3+0x520>
    1e14:	11410004 	addi	r5,r2,1024
    1e18:	00bfc034 	movhi	r2,65280
    1e1c:	10bfffc4 	addi	r2,r2,-1
    1e20:	88a2703a 	and	r17,r17,r2
    1e24:	0081ff84 	movi	r2,2046
    1e28:	117f6416 	blt	r2,r5,1bbc <__alt_mem_onchip_memory+0xf7801bbc>
    1e2c:	8828977a 	slli	r20,r17,29
    1e30:	4010d0fa 	srli	r8,r8,3
    1e34:	8822927a 	slli	r17,r17,9
    1e38:	2881ffcc 	andi	r2,r5,2047
    1e3c:	a228b03a 	or	r20,r20,r8
    1e40:	880ad33a 	srli	r5,r17,12
    1e44:	b02b883a 	mov	r21,r22
    1e48:	003f0d06 	br	1a80 <__alt_mem_onchip_memory+0xf7801a80>
    1e4c:	8080022c 	andhi	r2,r16,8
    1e50:	10000926 	beq	r2,zero,1e78 <__muldf3+0x574>
    1e54:	8880022c 	andhi	r2,r17,8
    1e58:	1000071e 	bne	r2,zero,1e78 <__muldf3+0x574>
    1e5c:	00800434 	movhi	r2,16
    1e60:	89400234 	orhi	r5,r17,8
    1e64:	10bfffc4 	addi	r2,r2,-1
    1e68:	b82b883a 	mov	r21,r23
    1e6c:	288a703a 	and	r5,r5,r2
    1e70:	4029883a 	mov	r20,r8
    1e74:	003f6806 	br	1c18 <__alt_mem_onchip_memory+0xf7801c18>
    1e78:	00800434 	movhi	r2,16
    1e7c:	81400234 	orhi	r5,r16,8
    1e80:	10bfffc4 	addi	r2,r2,-1
    1e84:	288a703a 	and	r5,r5,r2
    1e88:	003f6306 	br	1c18 <__alt_mem_onchip_memory+0xf7801c18>
    1e8c:	147ff604 	addi	r17,r2,-40
    1e90:	3462983a 	sll	r17,r6,r17
    1e94:	0011883a 	mov	r8,zero
    1e98:	003f4406 	br	1bac <__alt_mem_onchip_memory+0xf7801bac>
    1e9c:	3009883a 	mov	r4,r6
    1ea0:	d9800215 	stw	r6,8(sp)
    1ea4:	da400115 	stw	r9,4(sp)
    1ea8:	da800015 	stw	r10,0(sp)
    1eac:	00021ac0 	call	21ac <__clzsi2>
    1eb0:	10800804 	addi	r2,r2,32
    1eb4:	da800017 	ldw	r10,0(sp)
    1eb8:	da400117 	ldw	r9,4(sp)
    1ebc:	d9800217 	ldw	r6,8(sp)
    1ec0:	003f3006 	br	1b84 <__alt_mem_onchip_memory+0xf7801b84>
    1ec4:	143ff604 	addi	r16,r2,-40
    1ec8:	9c20983a 	sll	r16,r19,r16
    1ecc:	0029883a 	mov	r20,zero
    1ed0:	003f1606 	br	1b2c <__alt_mem_onchip_memory+0xf7801b2c>
    1ed4:	d9800215 	stw	r6,8(sp)
    1ed8:	d9c00015 	stw	r7,0(sp)
    1edc:	da400115 	stw	r9,4(sp)
    1ee0:	00021ac0 	call	21ac <__clzsi2>
    1ee4:	10800804 	addi	r2,r2,32
    1ee8:	da400117 	ldw	r9,4(sp)
    1eec:	d9c00017 	ldw	r7,0(sp)
    1ef0:	d9800217 	ldw	r6,8(sp)
    1ef4:	003f0306 	br	1b04 <__alt_mem_onchip_memory+0xf7801b04>
    1ef8:	00c00044 	movi	r3,1
    1efc:	1947c83a 	sub	r3,r3,r5
    1f00:	00800e04 	movi	r2,56
    1f04:	10feda16 	blt	r2,r3,1a70 <__alt_mem_onchip_memory+0xf7801a70>
    1f08:	008007c4 	movi	r2,31
    1f0c:	10c01b16 	blt	r2,r3,1f7c <__muldf3+0x678>
    1f10:	00800804 	movi	r2,32
    1f14:	10c5c83a 	sub	r2,r2,r3
    1f18:	888a983a 	sll	r5,r17,r2
    1f1c:	40c8d83a 	srl	r4,r8,r3
    1f20:	4084983a 	sll	r2,r8,r2
    1f24:	88e2d83a 	srl	r17,r17,r3
    1f28:	2906b03a 	or	r3,r5,r4
    1f2c:	1004c03a 	cmpne	r2,r2,zero
    1f30:	1886b03a 	or	r3,r3,r2
    1f34:	188001cc 	andi	r2,r3,7
    1f38:	10000726 	beq	r2,zero,1f58 <__muldf3+0x654>
    1f3c:	188003cc 	andi	r2,r3,15
    1f40:	01000104 	movi	r4,4
    1f44:	11000426 	beq	r2,r4,1f58 <__muldf3+0x654>
    1f48:	1805883a 	mov	r2,r3
    1f4c:	10c00104 	addi	r3,r2,4
    1f50:	1885803a 	cmpltu	r2,r3,r2
    1f54:	88a3883a 	add	r17,r17,r2
    1f58:	8880202c 	andhi	r2,r17,128
    1f5c:	10001c26 	beq	r2,zero,1fd0 <__muldf3+0x6cc>
    1f60:	b02b883a 	mov	r21,r22
    1f64:	00800044 	movi	r2,1
    1f68:	000b883a 	mov	r5,zero
    1f6c:	0029883a 	mov	r20,zero
    1f70:	003ec306 	br	1a80 <__alt_mem_onchip_memory+0xf7801a80>
    1f74:	5805883a 	mov	r2,r11
    1f78:	003f9906 	br	1de0 <__alt_mem_onchip_memory+0xf7801de0>
    1f7c:	00bff844 	movi	r2,-31
    1f80:	1145c83a 	sub	r2,r2,r5
    1f84:	8888d83a 	srl	r4,r17,r2
    1f88:	00800804 	movi	r2,32
    1f8c:	18801a26 	beq	r3,r2,1ff8 <__muldf3+0x6f4>
    1f90:	00801004 	movi	r2,64
    1f94:	10c5c83a 	sub	r2,r2,r3
    1f98:	8884983a 	sll	r2,r17,r2
    1f9c:	1204b03a 	or	r2,r2,r8
    1fa0:	1004c03a 	cmpne	r2,r2,zero
    1fa4:	2084b03a 	or	r2,r4,r2
    1fa8:	144001cc 	andi	r17,r2,7
    1fac:	88000d1e 	bne	r17,zero,1fe4 <__muldf3+0x6e0>
    1fb0:	000b883a 	mov	r5,zero
    1fb4:	1028d0fa 	srli	r20,r2,3
    1fb8:	b02b883a 	mov	r21,r22
    1fbc:	0005883a 	mov	r2,zero
    1fc0:	a468b03a 	or	r20,r20,r17
    1fc4:	003eae06 	br	1a80 <__alt_mem_onchip_memory+0xf7801a80>
    1fc8:	1007883a 	mov	r3,r2
    1fcc:	0023883a 	mov	r17,zero
    1fd0:	880a927a 	slli	r5,r17,9
    1fd4:	1805883a 	mov	r2,r3
    1fd8:	8822977a 	slli	r17,r17,29
    1fdc:	280ad33a 	srli	r5,r5,12
    1fe0:	003ff406 	br	1fb4 <__alt_mem_onchip_memory+0xf7801fb4>
    1fe4:	10c003cc 	andi	r3,r2,15
    1fe8:	01000104 	movi	r4,4
    1fec:	193ff626 	beq	r3,r4,1fc8 <__alt_mem_onchip_memory+0xf7801fc8>
    1ff0:	0023883a 	mov	r17,zero
    1ff4:	003fd506 	br	1f4c <__alt_mem_onchip_memory+0xf7801f4c>
    1ff8:	0005883a 	mov	r2,zero
    1ffc:	003fe706 	br	1f9c <__alt_mem_onchip_memory+0xf7801f9c>
    2000:	00800434 	movhi	r2,16
    2004:	89400234 	orhi	r5,r17,8
    2008:	10bfffc4 	addi	r2,r2,-1
    200c:	b02b883a 	mov	r21,r22
    2010:	288a703a 	and	r5,r5,r2
    2014:	4029883a 	mov	r20,r8
    2018:	003eff06 	br	1c18 <__alt_mem_onchip_memory+0xf7801c18>

0000201c <__fixdfsi>:
    201c:	280cd53a 	srli	r6,r5,20
    2020:	00c00434 	movhi	r3,16
    2024:	18ffffc4 	addi	r3,r3,-1
    2028:	3181ffcc 	andi	r6,r6,2047
    202c:	01c0ff84 	movi	r7,1022
    2030:	28c6703a 	and	r3,r5,r3
    2034:	280ad7fa 	srli	r5,r5,31
    2038:	3980120e 	bge	r7,r6,2084 <__fixdfsi+0x68>
    203c:	00810744 	movi	r2,1053
    2040:	11800c16 	blt	r2,r6,2074 <__fixdfsi+0x58>
    2044:	00810cc4 	movi	r2,1075
    2048:	1185c83a 	sub	r2,r2,r6
    204c:	01c007c4 	movi	r7,31
    2050:	18c00434 	orhi	r3,r3,16
    2054:	38800d16 	blt	r7,r2,208c <__fixdfsi+0x70>
    2058:	31befb44 	addi	r6,r6,-1043
    205c:	2084d83a 	srl	r2,r4,r2
    2060:	1986983a 	sll	r3,r3,r6
    2064:	1884b03a 	or	r2,r3,r2
    2068:	28000726 	beq	r5,zero,2088 <__fixdfsi+0x6c>
    206c:	0085c83a 	sub	r2,zero,r2
    2070:	f800283a 	ret
    2074:	00a00034 	movhi	r2,32768
    2078:	10bfffc4 	addi	r2,r2,-1
    207c:	2885883a 	add	r2,r5,r2
    2080:	f800283a 	ret
    2084:	0005883a 	mov	r2,zero
    2088:	f800283a 	ret
    208c:	008104c4 	movi	r2,1043
    2090:	1185c83a 	sub	r2,r2,r6
    2094:	1884d83a 	srl	r2,r3,r2
    2098:	003ff306 	br	2068 <__alt_mem_onchip_memory+0xf7802068>

0000209c <__extendsfdf2>:
    209c:	200ad5fa 	srli	r5,r4,23
    20a0:	defffd04 	addi	sp,sp,-12
    20a4:	dc400115 	stw	r17,4(sp)
    20a8:	29403fcc 	andi	r5,r5,255
    20ac:	29800044 	addi	r6,r5,1
    20b0:	04402034 	movhi	r17,128
    20b4:	dc000015 	stw	r16,0(sp)
    20b8:	8c7fffc4 	addi	r17,r17,-1
    20bc:	dfc00215 	stw	ra,8(sp)
    20c0:	31803fcc 	andi	r6,r6,255
    20c4:	00800044 	movi	r2,1
    20c8:	8922703a 	and	r17,r17,r4
    20cc:	2020d7fa 	srli	r16,r4,31
    20d0:	1180110e 	bge	r2,r6,2118 <__extendsfdf2+0x7c>
    20d4:	880cd0fa 	srli	r6,r17,3
    20d8:	8822977a 	slli	r17,r17,29
    20dc:	2940e004 	addi	r5,r5,896
    20e0:	2941ffcc 	andi	r5,r5,2047
    20e4:	2804953a 	slli	r2,r5,20
    20e8:	01400434 	movhi	r5,16
    20ec:	800697fa 	slli	r3,r16,31
    20f0:	297fffc4 	addi	r5,r5,-1
    20f4:	314a703a 	and	r5,r6,r5
    20f8:	288ab03a 	or	r5,r5,r2
    20fc:	28c6b03a 	or	r3,r5,r3
    2100:	8805883a 	mov	r2,r17
    2104:	dfc00217 	ldw	ra,8(sp)
    2108:	dc400117 	ldw	r17,4(sp)
    210c:	dc000017 	ldw	r16,0(sp)
    2110:	dec00304 	addi	sp,sp,12
    2114:	f800283a 	ret
    2118:	2800111e 	bne	r5,zero,2160 <__extendsfdf2+0xc4>
    211c:	88001c26 	beq	r17,zero,2190 <__extendsfdf2+0xf4>
    2120:	8809883a 	mov	r4,r17
    2124:	00021ac0 	call	21ac <__clzsi2>
    2128:	00c00284 	movi	r3,10
    212c:	18801b16 	blt	r3,r2,219c <__extendsfdf2+0x100>
    2130:	018002c4 	movi	r6,11
    2134:	308dc83a 	sub	r6,r6,r2
    2138:	11000544 	addi	r4,r2,21
    213c:	8986d83a 	srl	r3,r17,r6
    2140:	8922983a 	sll	r17,r17,r4
    2144:	0180e244 	movi	r6,905
    2148:	01400434 	movhi	r5,16
    214c:	3085c83a 	sub	r2,r6,r2
    2150:	297fffc4 	addi	r5,r5,-1
    2154:	194c703a 	and	r6,r3,r5
    2158:	1141ffcc 	andi	r5,r2,2047
    215c:	003fe006 	br	20e0 <__alt_mem_onchip_memory+0xf78020e0>
    2160:	88000826 	beq	r17,zero,2184 <__extendsfdf2+0xe8>
    2164:	880cd0fa 	srli	r6,r17,3
    2168:	00800434 	movhi	r2,16
    216c:	10bfffc4 	addi	r2,r2,-1
    2170:	31800234 	orhi	r6,r6,8
    2174:	8822977a 	slli	r17,r17,29
    2178:	308c703a 	and	r6,r6,r2
    217c:	0141ffc4 	movi	r5,2047
    2180:	003fd706 	br	20e0 <__alt_mem_onchip_memory+0xf78020e0>
    2184:	0141ffc4 	movi	r5,2047
    2188:	000d883a 	mov	r6,zero
    218c:	003fd406 	br	20e0 <__alt_mem_onchip_memory+0xf78020e0>
    2190:	000b883a 	mov	r5,zero
    2194:	000d883a 	mov	r6,zero
    2198:	003fd106 	br	20e0 <__alt_mem_onchip_memory+0xf78020e0>
    219c:	11bffd44 	addi	r6,r2,-11
    21a0:	8986983a 	sll	r3,r17,r6
    21a4:	0023883a 	mov	r17,zero
    21a8:	003fe606 	br	2144 <__alt_mem_onchip_memory+0xf7802144>

000021ac <__clzsi2>:
    21ac:	00bfffd4 	movui	r2,65535
    21b0:	11000536 	bltu	r2,r4,21c8 <__clzsi2+0x1c>
    21b4:	00803fc4 	movi	r2,255
    21b8:	11000f36 	bltu	r2,r4,21f8 <__clzsi2+0x4c>
    21bc:	00800804 	movi	r2,32
    21c0:	0007883a 	mov	r3,zero
    21c4:	00000506 	br	21dc <__clzsi2+0x30>
    21c8:	00804034 	movhi	r2,256
    21cc:	10bfffc4 	addi	r2,r2,-1
    21d0:	11000c2e 	bgeu	r2,r4,2204 <__clzsi2+0x58>
    21d4:	00800204 	movi	r2,8
    21d8:	00c00604 	movi	r3,24
    21dc:	20c8d83a 	srl	r4,r4,r3
    21e0:	00c00074 	movhi	r3,1
    21e4:	18f364c4 	addi	r3,r3,-12909
    21e8:	1909883a 	add	r4,r3,r4
    21ec:	20c00003 	ldbu	r3,0(r4)
    21f0:	10c5c83a 	sub	r2,r2,r3
    21f4:	f800283a 	ret
    21f8:	00800604 	movi	r2,24
    21fc:	00c00204 	movi	r3,8
    2200:	003ff606 	br	21dc <__alt_mem_onchip_memory+0xf78021dc>
    2204:	00800404 	movi	r2,16
    2208:	1007883a 	mov	r3,r2
    220c:	003ff306 	br	21dc <__alt_mem_onchip_memory+0xf78021dc>

00002210 <_fclose_r>:
    2210:	28003926 	beq	r5,zero,22f8 <_fclose_r+0xe8>
    2214:	defffc04 	addi	sp,sp,-16
    2218:	dc400115 	stw	r17,4(sp)
    221c:	dc000015 	stw	r16,0(sp)
    2220:	dfc00315 	stw	ra,12(sp)
    2224:	dc800215 	stw	r18,8(sp)
    2228:	2023883a 	mov	r17,r4
    222c:	2821883a 	mov	r16,r5
    2230:	20000226 	beq	r4,zero,223c <_fclose_r+0x2c>
    2234:	20800e17 	ldw	r2,56(r4)
    2238:	10002726 	beq	r2,zero,22d8 <_fclose_r+0xc8>
    223c:	8080030f 	ldh	r2,12(r16)
    2240:	1000071e 	bne	r2,zero,2260 <_fclose_r+0x50>
    2244:	0005883a 	mov	r2,zero
    2248:	dfc00317 	ldw	ra,12(sp)
    224c:	dc800217 	ldw	r18,8(sp)
    2250:	dc400117 	ldw	r17,4(sp)
    2254:	dc000017 	ldw	r16,0(sp)
    2258:	dec00404 	addi	sp,sp,16
    225c:	f800283a 	ret
    2260:	800b883a 	mov	r5,r16
    2264:	8809883a 	mov	r4,r17
    2268:	00023140 	call	2314 <__sflush_r>
    226c:	1025883a 	mov	r18,r2
    2270:	80800b17 	ldw	r2,44(r16)
    2274:	10000426 	beq	r2,zero,2288 <_fclose_r+0x78>
    2278:	81400717 	ldw	r5,28(r16)
    227c:	8809883a 	mov	r4,r17
    2280:	103ee83a 	callr	r2
    2284:	10001616 	blt	r2,zero,22e0 <_fclose_r+0xd0>
    2288:	8080030b 	ldhu	r2,12(r16)
    228c:	1080200c 	andi	r2,r2,128
    2290:	1000151e 	bne	r2,zero,22e8 <_fclose_r+0xd8>
    2294:	81400c17 	ldw	r5,48(r16)
    2298:	28000526 	beq	r5,zero,22b0 <_fclose_r+0xa0>
    229c:	80801004 	addi	r2,r16,64
    22a0:	28800226 	beq	r5,r2,22ac <_fclose_r+0x9c>
    22a4:	8809883a 	mov	r4,r17
    22a8:	0002dec0 	call	2dec <_free_r>
    22ac:	80000c15 	stw	zero,48(r16)
    22b0:	81401117 	ldw	r5,68(r16)
    22b4:	28000326 	beq	r5,zero,22c4 <_fclose_r+0xb4>
    22b8:	8809883a 	mov	r4,r17
    22bc:	0002dec0 	call	2dec <_free_r>
    22c0:	80001115 	stw	zero,68(r16)
    22c4:	000291c0 	call	291c <__sfp_lock_acquire>
    22c8:	8000030d 	sth	zero,12(r16)
    22cc:	00029200 	call	2920 <__sfp_lock_release>
    22d0:	9005883a 	mov	r2,r18
    22d4:	003fdc06 	br	2248 <__alt_mem_onchip_memory+0xf7802248>
    22d8:	000290c0 	call	290c <__sinit>
    22dc:	003fd706 	br	223c <__alt_mem_onchip_memory+0xf780223c>
    22e0:	04bfffc4 	movi	r18,-1
    22e4:	003fe806 	br	2288 <__alt_mem_onchip_memory+0xf7802288>
    22e8:	81400417 	ldw	r5,16(r16)
    22ec:	8809883a 	mov	r4,r17
    22f0:	0002dec0 	call	2dec <_free_r>
    22f4:	003fe706 	br	2294 <__alt_mem_onchip_memory+0xf7802294>
    22f8:	0005883a 	mov	r2,zero
    22fc:	f800283a 	ret

00002300 <fclose>:
    2300:	00800074 	movhi	r2,1
    2304:	10bb9b04 	addi	r2,r2,-4500
    2308:	200b883a 	mov	r5,r4
    230c:	11000017 	ldw	r4,0(r2)
    2310:	00022101 	jmpi	2210 <_fclose_r>

00002314 <__sflush_r>:
    2314:	2880030b 	ldhu	r2,12(r5)
    2318:	defffb04 	addi	sp,sp,-20
    231c:	dcc00315 	stw	r19,12(sp)
    2320:	dc400115 	stw	r17,4(sp)
    2324:	dfc00415 	stw	ra,16(sp)
    2328:	dc800215 	stw	r18,8(sp)
    232c:	dc000015 	stw	r16,0(sp)
    2330:	10c0020c 	andi	r3,r2,8
    2334:	2823883a 	mov	r17,r5
    2338:	2027883a 	mov	r19,r4
    233c:	1800311e 	bne	r3,zero,2404 <__sflush_r+0xf0>
    2340:	28c00117 	ldw	r3,4(r5)
    2344:	10820014 	ori	r2,r2,2048
    2348:	2880030d 	sth	r2,12(r5)
    234c:	00c04b0e 	bge	zero,r3,247c <__sflush_r+0x168>
    2350:	8a000a17 	ldw	r8,40(r17)
    2354:	40002326 	beq	r8,zero,23e4 <__sflush_r+0xd0>
    2358:	9c000017 	ldw	r16,0(r19)
    235c:	10c4000c 	andi	r3,r2,4096
    2360:	98000015 	stw	zero,0(r19)
    2364:	18004826 	beq	r3,zero,2488 <__sflush_r+0x174>
    2368:	89801417 	ldw	r6,80(r17)
    236c:	10c0010c 	andi	r3,r2,4
    2370:	18000626 	beq	r3,zero,238c <__sflush_r+0x78>
    2374:	88c00117 	ldw	r3,4(r17)
    2378:	88800c17 	ldw	r2,48(r17)
    237c:	30cdc83a 	sub	r6,r6,r3
    2380:	10000226 	beq	r2,zero,238c <__sflush_r+0x78>
    2384:	88800f17 	ldw	r2,60(r17)
    2388:	308dc83a 	sub	r6,r6,r2
    238c:	89400717 	ldw	r5,28(r17)
    2390:	000f883a 	mov	r7,zero
    2394:	9809883a 	mov	r4,r19
    2398:	403ee83a 	callr	r8
    239c:	00ffffc4 	movi	r3,-1
    23a0:	10c04426 	beq	r2,r3,24b4 <__sflush_r+0x1a0>
    23a4:	88c0030b 	ldhu	r3,12(r17)
    23a8:	89000417 	ldw	r4,16(r17)
    23ac:	88000115 	stw	zero,4(r17)
    23b0:	197dffcc 	andi	r5,r3,63487
    23b4:	8940030d 	sth	r5,12(r17)
    23b8:	89000015 	stw	r4,0(r17)
    23bc:	18c4000c 	andi	r3,r3,4096
    23c0:	18002c1e 	bne	r3,zero,2474 <__sflush_r+0x160>
    23c4:	89400c17 	ldw	r5,48(r17)
    23c8:	9c000015 	stw	r16,0(r19)
    23cc:	28000526 	beq	r5,zero,23e4 <__sflush_r+0xd0>
    23d0:	88801004 	addi	r2,r17,64
    23d4:	28800226 	beq	r5,r2,23e0 <__sflush_r+0xcc>
    23d8:	9809883a 	mov	r4,r19
    23dc:	0002dec0 	call	2dec <_free_r>
    23e0:	88000c15 	stw	zero,48(r17)
    23e4:	0005883a 	mov	r2,zero
    23e8:	dfc00417 	ldw	ra,16(sp)
    23ec:	dcc00317 	ldw	r19,12(sp)
    23f0:	dc800217 	ldw	r18,8(sp)
    23f4:	dc400117 	ldw	r17,4(sp)
    23f8:	dc000017 	ldw	r16,0(sp)
    23fc:	dec00504 	addi	sp,sp,20
    2400:	f800283a 	ret
    2404:	2c800417 	ldw	r18,16(r5)
    2408:	903ff626 	beq	r18,zero,23e4 <__alt_mem_onchip_memory+0xf78023e4>
    240c:	2c000017 	ldw	r16,0(r5)
    2410:	108000cc 	andi	r2,r2,3
    2414:	2c800015 	stw	r18,0(r5)
    2418:	84a1c83a 	sub	r16,r16,r18
    241c:	1000131e 	bne	r2,zero,246c <__sflush_r+0x158>
    2420:	28800517 	ldw	r2,20(r5)
    2424:	88800215 	stw	r2,8(r17)
    2428:	04000316 	blt	zero,r16,2438 <__sflush_r+0x124>
    242c:	003fed06 	br	23e4 <__alt_mem_onchip_memory+0xf78023e4>
    2430:	90a5883a 	add	r18,r18,r2
    2434:	043feb0e 	bge	zero,r16,23e4 <__alt_mem_onchip_memory+0xf78023e4>
    2438:	88800917 	ldw	r2,36(r17)
    243c:	89400717 	ldw	r5,28(r17)
    2440:	800f883a 	mov	r7,r16
    2444:	900d883a 	mov	r6,r18
    2448:	9809883a 	mov	r4,r19
    244c:	103ee83a 	callr	r2
    2450:	80a1c83a 	sub	r16,r16,r2
    2454:	00bff616 	blt	zero,r2,2430 <__alt_mem_onchip_memory+0xf7802430>
    2458:	88c0030b 	ldhu	r3,12(r17)
    245c:	00bfffc4 	movi	r2,-1
    2460:	18c01014 	ori	r3,r3,64
    2464:	88c0030d 	sth	r3,12(r17)
    2468:	003fdf06 	br	23e8 <__alt_mem_onchip_memory+0xf78023e8>
    246c:	0005883a 	mov	r2,zero
    2470:	003fec06 	br	2424 <__alt_mem_onchip_memory+0xf7802424>
    2474:	88801415 	stw	r2,80(r17)
    2478:	003fd206 	br	23c4 <__alt_mem_onchip_memory+0xf78023c4>
    247c:	28c00f17 	ldw	r3,60(r5)
    2480:	00ffb316 	blt	zero,r3,2350 <__alt_mem_onchip_memory+0xf7802350>
    2484:	003fd706 	br	23e4 <__alt_mem_onchip_memory+0xf78023e4>
    2488:	89400717 	ldw	r5,28(r17)
    248c:	000d883a 	mov	r6,zero
    2490:	01c00044 	movi	r7,1
    2494:	9809883a 	mov	r4,r19
    2498:	403ee83a 	callr	r8
    249c:	100d883a 	mov	r6,r2
    24a0:	00bfffc4 	movi	r2,-1
    24a4:	30801426 	beq	r6,r2,24f8 <__sflush_r+0x1e4>
    24a8:	8880030b 	ldhu	r2,12(r17)
    24ac:	8a000a17 	ldw	r8,40(r17)
    24b0:	003fae06 	br	236c <__alt_mem_onchip_memory+0xf780236c>
    24b4:	98c00017 	ldw	r3,0(r19)
    24b8:	183fba26 	beq	r3,zero,23a4 <__alt_mem_onchip_memory+0xf78023a4>
    24bc:	01000744 	movi	r4,29
    24c0:	19000626 	beq	r3,r4,24dc <__sflush_r+0x1c8>
    24c4:	01000584 	movi	r4,22
    24c8:	19000426 	beq	r3,r4,24dc <__sflush_r+0x1c8>
    24cc:	88c0030b 	ldhu	r3,12(r17)
    24d0:	18c01014 	ori	r3,r3,64
    24d4:	88c0030d 	sth	r3,12(r17)
    24d8:	003fc306 	br	23e8 <__alt_mem_onchip_memory+0xf78023e8>
    24dc:	8880030b 	ldhu	r2,12(r17)
    24e0:	88c00417 	ldw	r3,16(r17)
    24e4:	88000115 	stw	zero,4(r17)
    24e8:	10bdffcc 	andi	r2,r2,63487
    24ec:	8880030d 	sth	r2,12(r17)
    24f0:	88c00015 	stw	r3,0(r17)
    24f4:	003fb306 	br	23c4 <__alt_mem_onchip_memory+0xf78023c4>
    24f8:	98800017 	ldw	r2,0(r19)
    24fc:	103fea26 	beq	r2,zero,24a8 <__alt_mem_onchip_memory+0xf78024a8>
    2500:	00c00744 	movi	r3,29
    2504:	10c00226 	beq	r2,r3,2510 <__sflush_r+0x1fc>
    2508:	00c00584 	movi	r3,22
    250c:	10c0031e 	bne	r2,r3,251c <__sflush_r+0x208>
    2510:	9c000015 	stw	r16,0(r19)
    2514:	0005883a 	mov	r2,zero
    2518:	003fb306 	br	23e8 <__alt_mem_onchip_memory+0xf78023e8>
    251c:	88c0030b 	ldhu	r3,12(r17)
    2520:	3005883a 	mov	r2,r6
    2524:	18c01014 	ori	r3,r3,64
    2528:	88c0030d 	sth	r3,12(r17)
    252c:	003fae06 	br	23e8 <__alt_mem_onchip_memory+0xf78023e8>

00002530 <_fflush_r>:
    2530:	defffd04 	addi	sp,sp,-12
    2534:	dc000115 	stw	r16,4(sp)
    2538:	dfc00215 	stw	ra,8(sp)
    253c:	2021883a 	mov	r16,r4
    2540:	20000226 	beq	r4,zero,254c <_fflush_r+0x1c>
    2544:	20800e17 	ldw	r2,56(r4)
    2548:	10000c26 	beq	r2,zero,257c <_fflush_r+0x4c>
    254c:	2880030f 	ldh	r2,12(r5)
    2550:	1000051e 	bne	r2,zero,2568 <_fflush_r+0x38>
    2554:	0005883a 	mov	r2,zero
    2558:	dfc00217 	ldw	ra,8(sp)
    255c:	dc000117 	ldw	r16,4(sp)
    2560:	dec00304 	addi	sp,sp,12
    2564:	f800283a 	ret
    2568:	8009883a 	mov	r4,r16
    256c:	dfc00217 	ldw	ra,8(sp)
    2570:	dc000117 	ldw	r16,4(sp)
    2574:	dec00304 	addi	sp,sp,12
    2578:	00023141 	jmpi	2314 <__sflush_r>
    257c:	d9400015 	stw	r5,0(sp)
    2580:	000290c0 	call	290c <__sinit>
    2584:	d9400017 	ldw	r5,0(sp)
    2588:	003ff006 	br	254c <__alt_mem_onchip_memory+0xf780254c>

0000258c <fflush>:
    258c:	20000526 	beq	r4,zero,25a4 <fflush+0x18>
    2590:	00800074 	movhi	r2,1
    2594:	10bb9b04 	addi	r2,r2,-4500
    2598:	200b883a 	mov	r5,r4
    259c:	11000017 	ldw	r4,0(r2)
    25a0:	00025301 	jmpi	2530 <_fflush_r>
    25a4:	00800074 	movhi	r2,1
    25a8:	10bb9a04 	addi	r2,r2,-4504
    25ac:	11000017 	ldw	r4,0(r2)
    25b0:	01400034 	movhi	r5,0
    25b4:	29494c04 	addi	r5,r5,9520
    25b8:	000369c1 	jmpi	369c <_fwalk_reent>

000025bc <__fp_unlock>:
    25bc:	0005883a 	mov	r2,zero
    25c0:	f800283a 	ret

000025c4 <_cleanup_r>:
    25c4:	01400034 	movhi	r5,0
    25c8:	29488404 	addi	r5,r5,8720
    25cc:	000369c1 	jmpi	369c <_fwalk_reent>

000025d0 <__sinit.part.1>:
    25d0:	defff704 	addi	sp,sp,-36
    25d4:	00c00034 	movhi	r3,0
    25d8:	dfc00815 	stw	ra,32(sp)
    25dc:	ddc00715 	stw	r23,28(sp)
    25e0:	dd800615 	stw	r22,24(sp)
    25e4:	dd400515 	stw	r21,20(sp)
    25e8:	dd000415 	stw	r20,16(sp)
    25ec:	dcc00315 	stw	r19,12(sp)
    25f0:	dc800215 	stw	r18,8(sp)
    25f4:	dc400115 	stw	r17,4(sp)
    25f8:	dc000015 	stw	r16,0(sp)
    25fc:	18c97104 	addi	r3,r3,9668
    2600:	24000117 	ldw	r16,4(r4)
    2604:	20c00f15 	stw	r3,60(r4)
    2608:	2080bb04 	addi	r2,r4,748
    260c:	00c000c4 	movi	r3,3
    2610:	20c0b915 	stw	r3,740(r4)
    2614:	2080ba15 	stw	r2,744(r4)
    2618:	2000b815 	stw	zero,736(r4)
    261c:	05c00204 	movi	r23,8
    2620:	00800104 	movi	r2,4
    2624:	2025883a 	mov	r18,r4
    2628:	b80d883a 	mov	r6,r23
    262c:	81001704 	addi	r4,r16,92
    2630:	000b883a 	mov	r5,zero
    2634:	80000015 	stw	zero,0(r16)
    2638:	80000115 	stw	zero,4(r16)
    263c:	80000215 	stw	zero,8(r16)
    2640:	8080030d 	sth	r2,12(r16)
    2644:	80001915 	stw	zero,100(r16)
    2648:	8000038d 	sth	zero,14(r16)
    264c:	80000415 	stw	zero,16(r16)
    2650:	80000515 	stw	zero,20(r16)
    2654:	80000615 	stw	zero,24(r16)
    2658:	00042980 	call	4298 <memset>
    265c:	05800034 	movhi	r22,0
    2660:	94400217 	ldw	r17,8(r18)
    2664:	05400034 	movhi	r21,0
    2668:	05000034 	movhi	r20,0
    266c:	04c00034 	movhi	r19,0
    2670:	b591ce04 	addi	r22,r22,18232
    2674:	ad51e504 	addi	r21,r21,18324
    2678:	a5120404 	addi	r20,r20,18448
    267c:	9cd21b04 	addi	r19,r19,18540
    2680:	85800815 	stw	r22,32(r16)
    2684:	85400915 	stw	r21,36(r16)
    2688:	85000a15 	stw	r20,40(r16)
    268c:	84c00b15 	stw	r19,44(r16)
    2690:	84000715 	stw	r16,28(r16)
    2694:	00800284 	movi	r2,10
    2698:	8880030d 	sth	r2,12(r17)
    269c:	00800044 	movi	r2,1
    26a0:	b80d883a 	mov	r6,r23
    26a4:	89001704 	addi	r4,r17,92
    26a8:	000b883a 	mov	r5,zero
    26ac:	88000015 	stw	zero,0(r17)
    26b0:	88000115 	stw	zero,4(r17)
    26b4:	88000215 	stw	zero,8(r17)
    26b8:	88001915 	stw	zero,100(r17)
    26bc:	8880038d 	sth	r2,14(r17)
    26c0:	88000415 	stw	zero,16(r17)
    26c4:	88000515 	stw	zero,20(r17)
    26c8:	88000615 	stw	zero,24(r17)
    26cc:	00042980 	call	4298 <memset>
    26d0:	94000317 	ldw	r16,12(r18)
    26d4:	00800484 	movi	r2,18
    26d8:	8c400715 	stw	r17,28(r17)
    26dc:	8d800815 	stw	r22,32(r17)
    26e0:	8d400915 	stw	r21,36(r17)
    26e4:	8d000a15 	stw	r20,40(r17)
    26e8:	8cc00b15 	stw	r19,44(r17)
    26ec:	8080030d 	sth	r2,12(r16)
    26f0:	00800084 	movi	r2,2
    26f4:	80000015 	stw	zero,0(r16)
    26f8:	80000115 	stw	zero,4(r16)
    26fc:	80000215 	stw	zero,8(r16)
    2700:	80001915 	stw	zero,100(r16)
    2704:	8080038d 	sth	r2,14(r16)
    2708:	80000415 	stw	zero,16(r16)
    270c:	80000515 	stw	zero,20(r16)
    2710:	80000615 	stw	zero,24(r16)
    2714:	b80d883a 	mov	r6,r23
    2718:	000b883a 	mov	r5,zero
    271c:	81001704 	addi	r4,r16,92
    2720:	00042980 	call	4298 <memset>
    2724:	00800044 	movi	r2,1
    2728:	84000715 	stw	r16,28(r16)
    272c:	85800815 	stw	r22,32(r16)
    2730:	85400915 	stw	r21,36(r16)
    2734:	85000a15 	stw	r20,40(r16)
    2738:	84c00b15 	stw	r19,44(r16)
    273c:	90800e15 	stw	r2,56(r18)
    2740:	dfc00817 	ldw	ra,32(sp)
    2744:	ddc00717 	ldw	r23,28(sp)
    2748:	dd800617 	ldw	r22,24(sp)
    274c:	dd400517 	ldw	r21,20(sp)
    2750:	dd000417 	ldw	r20,16(sp)
    2754:	dcc00317 	ldw	r19,12(sp)
    2758:	dc800217 	ldw	r18,8(sp)
    275c:	dc400117 	ldw	r17,4(sp)
    2760:	dc000017 	ldw	r16,0(sp)
    2764:	dec00904 	addi	sp,sp,36
    2768:	f800283a 	ret

0000276c <__fp_lock>:
    276c:	0005883a 	mov	r2,zero
    2770:	f800283a 	ret

00002774 <__sfmoreglue>:
    2774:	defffc04 	addi	sp,sp,-16
    2778:	dc400115 	stw	r17,4(sp)
    277c:	2c7fffc4 	addi	r17,r5,-1
    2780:	8c401a24 	muli	r17,r17,104
    2784:	dc800215 	stw	r18,8(sp)
    2788:	2825883a 	mov	r18,r5
    278c:	89401d04 	addi	r5,r17,116
    2790:	dc000015 	stw	r16,0(sp)
    2794:	dfc00315 	stw	ra,12(sp)
    2798:	00039440 	call	3944 <_malloc_r>
    279c:	1021883a 	mov	r16,r2
    27a0:	10000726 	beq	r2,zero,27c0 <__sfmoreglue+0x4c>
    27a4:	11000304 	addi	r4,r2,12
    27a8:	10000015 	stw	zero,0(r2)
    27ac:	14800115 	stw	r18,4(r2)
    27b0:	11000215 	stw	r4,8(r2)
    27b4:	89801a04 	addi	r6,r17,104
    27b8:	000b883a 	mov	r5,zero
    27bc:	00042980 	call	4298 <memset>
    27c0:	8005883a 	mov	r2,r16
    27c4:	dfc00317 	ldw	ra,12(sp)
    27c8:	dc800217 	ldw	r18,8(sp)
    27cc:	dc400117 	ldw	r17,4(sp)
    27d0:	dc000017 	ldw	r16,0(sp)
    27d4:	dec00404 	addi	sp,sp,16
    27d8:	f800283a 	ret

000027dc <__sfp>:
    27dc:	defffb04 	addi	sp,sp,-20
    27e0:	dc000015 	stw	r16,0(sp)
    27e4:	04000074 	movhi	r16,1
    27e8:	843b9a04 	addi	r16,r16,-4504
    27ec:	dcc00315 	stw	r19,12(sp)
    27f0:	2027883a 	mov	r19,r4
    27f4:	81000017 	ldw	r4,0(r16)
    27f8:	dfc00415 	stw	ra,16(sp)
    27fc:	dc800215 	stw	r18,8(sp)
    2800:	20800e17 	ldw	r2,56(r4)
    2804:	dc400115 	stw	r17,4(sp)
    2808:	1000021e 	bne	r2,zero,2814 <__sfp+0x38>
    280c:	00025d00 	call	25d0 <__sinit.part.1>
    2810:	81000017 	ldw	r4,0(r16)
    2814:	2480b804 	addi	r18,r4,736
    2818:	047fffc4 	movi	r17,-1
    281c:	91000117 	ldw	r4,4(r18)
    2820:	94000217 	ldw	r16,8(r18)
    2824:	213fffc4 	addi	r4,r4,-1
    2828:	20000a16 	blt	r4,zero,2854 <__sfp+0x78>
    282c:	8080030f 	ldh	r2,12(r16)
    2830:	10000c26 	beq	r2,zero,2864 <__sfp+0x88>
    2834:	80c01d04 	addi	r3,r16,116
    2838:	00000206 	br	2844 <__sfp+0x68>
    283c:	18bfe60f 	ldh	r2,-104(r3)
    2840:	10000826 	beq	r2,zero,2864 <__sfp+0x88>
    2844:	213fffc4 	addi	r4,r4,-1
    2848:	1c3ffd04 	addi	r16,r3,-12
    284c:	18c01a04 	addi	r3,r3,104
    2850:	247ffa1e 	bne	r4,r17,283c <__alt_mem_onchip_memory+0xf780283c>
    2854:	90800017 	ldw	r2,0(r18)
    2858:	10001d26 	beq	r2,zero,28d0 <__sfp+0xf4>
    285c:	1025883a 	mov	r18,r2
    2860:	003fee06 	br	281c <__alt_mem_onchip_memory+0xf780281c>
    2864:	00bfffc4 	movi	r2,-1
    2868:	8080038d 	sth	r2,14(r16)
    286c:	00800044 	movi	r2,1
    2870:	8080030d 	sth	r2,12(r16)
    2874:	80001915 	stw	zero,100(r16)
    2878:	80000015 	stw	zero,0(r16)
    287c:	80000215 	stw	zero,8(r16)
    2880:	80000115 	stw	zero,4(r16)
    2884:	80000415 	stw	zero,16(r16)
    2888:	80000515 	stw	zero,20(r16)
    288c:	80000615 	stw	zero,24(r16)
    2890:	01800204 	movi	r6,8
    2894:	000b883a 	mov	r5,zero
    2898:	81001704 	addi	r4,r16,92
    289c:	00042980 	call	4298 <memset>
    28a0:	8005883a 	mov	r2,r16
    28a4:	80000c15 	stw	zero,48(r16)
    28a8:	80000d15 	stw	zero,52(r16)
    28ac:	80001115 	stw	zero,68(r16)
    28b0:	80001215 	stw	zero,72(r16)
    28b4:	dfc00417 	ldw	ra,16(sp)
    28b8:	dcc00317 	ldw	r19,12(sp)
    28bc:	dc800217 	ldw	r18,8(sp)
    28c0:	dc400117 	ldw	r17,4(sp)
    28c4:	dc000017 	ldw	r16,0(sp)
    28c8:	dec00504 	addi	sp,sp,20
    28cc:	f800283a 	ret
    28d0:	01400104 	movi	r5,4
    28d4:	9809883a 	mov	r4,r19
    28d8:	00027740 	call	2774 <__sfmoreglue>
    28dc:	90800015 	stw	r2,0(r18)
    28e0:	103fde1e 	bne	r2,zero,285c <__alt_mem_onchip_memory+0xf780285c>
    28e4:	00800304 	movi	r2,12
    28e8:	98800015 	stw	r2,0(r19)
    28ec:	0005883a 	mov	r2,zero
    28f0:	003ff006 	br	28b4 <__alt_mem_onchip_memory+0xf78028b4>

000028f4 <_cleanup>:
    28f4:	00800074 	movhi	r2,1
    28f8:	10bb9a04 	addi	r2,r2,-4504
    28fc:	11000017 	ldw	r4,0(r2)
    2900:	01400034 	movhi	r5,0
    2904:	29488404 	addi	r5,r5,8720
    2908:	000369c1 	jmpi	369c <_fwalk_reent>

0000290c <__sinit>:
    290c:	20800e17 	ldw	r2,56(r4)
    2910:	10000126 	beq	r2,zero,2918 <__sinit+0xc>
    2914:	f800283a 	ret
    2918:	00025d01 	jmpi	25d0 <__sinit.part.1>

0000291c <__sfp_lock_acquire>:
    291c:	f800283a 	ret

00002920 <__sfp_lock_release>:
    2920:	f800283a 	ret

00002924 <__sinit_lock_acquire>:
    2924:	f800283a 	ret

00002928 <__sinit_lock_release>:
    2928:	f800283a 	ret

0000292c <__fp_lock_all>:
    292c:	00800074 	movhi	r2,1
    2930:	10bb9b04 	addi	r2,r2,-4500
    2934:	11000017 	ldw	r4,0(r2)
    2938:	01400034 	movhi	r5,0
    293c:	2949db04 	addi	r5,r5,10092
    2940:	00035d81 	jmpi	35d8 <_fwalk>

00002944 <__fp_unlock_all>:
    2944:	00800074 	movhi	r2,1
    2948:	10bb9b04 	addi	r2,r2,-4500
    294c:	11000017 	ldw	r4,0(r2)
    2950:	01400034 	movhi	r5,0
    2954:	29496f04 	addi	r5,r5,9660
    2958:	00035d81 	jmpi	35d8 <_fwalk>

0000295c <_fopen_r>:
    295c:	defffa04 	addi	sp,sp,-24
    2960:	3005883a 	mov	r2,r6
    2964:	dcc00415 	stw	r19,16(sp)
    2968:	d80d883a 	mov	r6,sp
    296c:	2827883a 	mov	r19,r5
    2970:	100b883a 	mov	r5,r2
    2974:	dc800315 	stw	r18,12(sp)
    2978:	dfc00515 	stw	ra,20(sp)
    297c:	dc400215 	stw	r17,8(sp)
    2980:	dc000115 	stw	r16,4(sp)
    2984:	2025883a 	mov	r18,r4
    2988:	00049c00 	call	49c0 <__sflags>
    298c:	10002726 	beq	r2,zero,2a2c <_fopen_r+0xd0>
    2990:	9009883a 	mov	r4,r18
    2994:	1023883a 	mov	r17,r2
    2998:	00027dc0 	call	27dc <__sfp>
    299c:	1021883a 	mov	r16,r2
    29a0:	10002226 	beq	r2,zero,2a2c <_fopen_r+0xd0>
    29a4:	d9800017 	ldw	r6,0(sp)
    29a8:	01c06d84 	movi	r7,438
    29ac:	980b883a 	mov	r5,r19
    29b0:	9009883a 	mov	r4,r18
    29b4:	00043c00 	call	43c0 <_open_r>
    29b8:	10001916 	blt	r2,zero,2a20 <_fopen_r+0xc4>
    29bc:	8080038d 	sth	r2,14(r16)
    29c0:	00800034 	movhi	r2,0
    29c4:	1091ce04 	addi	r2,r2,18232
    29c8:	80800815 	stw	r2,32(r16)
    29cc:	00800034 	movhi	r2,0
    29d0:	1091e504 	addi	r2,r2,18324
    29d4:	80800915 	stw	r2,36(r16)
    29d8:	00800034 	movhi	r2,0
    29dc:	10920404 	addi	r2,r2,18448
    29e0:	80800a15 	stw	r2,40(r16)
    29e4:	00800034 	movhi	r2,0
    29e8:	10921b04 	addi	r2,r2,18540
    29ec:	8440030d 	sth	r17,12(r16)
    29f0:	84000715 	stw	r16,28(r16)
    29f4:	80800b15 	stw	r2,44(r16)
    29f8:	8c40400c 	andi	r17,r17,256
    29fc:	88000d1e 	bne	r17,zero,2a34 <_fopen_r+0xd8>
    2a00:	8005883a 	mov	r2,r16
    2a04:	dfc00517 	ldw	ra,20(sp)
    2a08:	dcc00417 	ldw	r19,16(sp)
    2a0c:	dc800317 	ldw	r18,12(sp)
    2a10:	dc400217 	ldw	r17,8(sp)
    2a14:	dc000117 	ldw	r16,4(sp)
    2a18:	dec00604 	addi	sp,sp,24
    2a1c:	f800283a 	ret
    2a20:	000291c0 	call	291c <__sfp_lock_acquire>
    2a24:	8000030d 	sth	zero,12(r16)
    2a28:	00029200 	call	2920 <__sfp_lock_release>
    2a2c:	0005883a 	mov	r2,zero
    2a30:	003ff406 	br	2a04 <__alt_mem_onchip_memory+0xf7802a04>
    2a34:	01c00084 	movi	r7,2
    2a38:	000d883a 	mov	r6,zero
    2a3c:	800b883a 	mov	r5,r16
    2a40:	9009883a 	mov	r4,r18
    2a44:	00030fc0 	call	30fc <_fseek_r>
    2a48:	8005883a 	mov	r2,r16
    2a4c:	003fed06 	br	2a04 <__alt_mem_onchip_memory+0xf7802a04>

00002a50 <fopen>:
    2a50:	00800074 	movhi	r2,1
    2a54:	10bb9b04 	addi	r2,r2,-4500
    2a58:	280d883a 	mov	r6,r5
    2a5c:	200b883a 	mov	r5,r4
    2a60:	11000017 	ldw	r4,0(r2)
    2a64:	000295c1 	jmpi	295c <_fopen_r>

00002a68 <_fread_r>:
    2a68:	defff404 	addi	sp,sp,-48
    2a6c:	dd800815 	stw	r22,32(sp)
    2a70:	39ad383a 	mul	r22,r7,r6
    2a74:	dc000215 	stw	r16,8(sp)
    2a78:	dfc00b15 	stw	ra,44(sp)
    2a7c:	df000a15 	stw	fp,40(sp)
    2a80:	ddc00915 	stw	r23,36(sp)
    2a84:	dd400715 	stw	r21,28(sp)
    2a88:	dd000615 	stw	r20,24(sp)
    2a8c:	dcc00515 	stw	r19,20(sp)
    2a90:	dc800415 	stw	r18,16(sp)
    2a94:	dc400315 	stw	r17,12(sp)
    2a98:	dc000c17 	ldw	r16,48(sp)
    2a9c:	b0003b26 	beq	r22,zero,2b8c <_fread_r+0x124>
    2aa0:	302f883a 	mov	r23,r6
    2aa4:	382b883a 	mov	r21,r7
    2aa8:	2029883a 	mov	r20,r4
    2aac:	2827883a 	mov	r19,r5
    2ab0:	20000226 	beq	r4,zero,2abc <_fread_r+0x54>
    2ab4:	20800e17 	ldw	r2,56(r4)
    2ab8:	10006e26 	beq	r2,zero,2c74 <_fread_r+0x20c>
    2abc:	8080030b 	ldhu	r2,12(r16)
    2ac0:	10c8000c 	andi	r3,r2,8192
    2ac4:	1800061e 	bne	r3,zero,2ae0 <_fread_r+0x78>
    2ac8:	81001917 	ldw	r4,100(r16)
    2acc:	00f7ffc4 	movi	r3,-8193
    2ad0:	10880014 	ori	r2,r2,8192
    2ad4:	20c6703a 	and	r3,r4,r3
    2ad8:	8080030d 	sth	r2,12(r16)
    2adc:	80c01915 	stw	r3,100(r16)
    2ae0:	84400117 	ldw	r17,4(r16)
    2ae4:	88005f16 	blt	r17,zero,2c64 <_fread_r+0x1fc>
    2ae8:	8809883a 	mov	r4,r17
    2aec:	1080008c 	andi	r2,r2,2
    2af0:	1000281e 	bne	r2,zero,2b94 <_fread_r+0x12c>
    2af4:	b025883a 	mov	r18,r22
    2af8:	00000b06 	br	2b28 <_fread_r+0xc0>
    2afc:	00041500 	call	4150 <memcpy>
    2b00:	80800017 	ldw	r2,0(r16)
    2b04:	9c67883a 	add	r19,r19,r17
    2b08:	9465c83a 	sub	r18,r18,r17
    2b0c:	1463883a 	add	r17,r2,r17
    2b10:	800b883a 	mov	r5,r16
    2b14:	a009883a 	mov	r4,r20
    2b18:	84400015 	stw	r17,0(r16)
    2b1c:	00045100 	call	4510 <__srefill_r>
    2b20:	10004c1e 	bne	r2,zero,2c54 <_fread_r+0x1ec>
    2b24:	84400117 	ldw	r17,4(r16)
    2b28:	880d883a 	mov	r6,r17
    2b2c:	9809883a 	mov	r4,r19
    2b30:	81400017 	ldw	r5,0(r16)
    2b34:	8cbff136 	bltu	r17,r18,2afc <__alt_mem_onchip_memory+0xf7802afc>
    2b38:	900d883a 	mov	r6,r18
    2b3c:	00041500 	call	4150 <memcpy>
    2b40:	80c00117 	ldw	r3,4(r16)
    2b44:	81000017 	ldw	r4,0(r16)
    2b48:	a805883a 	mov	r2,r21
    2b4c:	1c87c83a 	sub	r3,r3,r18
    2b50:	24a5883a 	add	r18,r4,r18
    2b54:	80c00115 	stw	r3,4(r16)
    2b58:	84800015 	stw	r18,0(r16)
    2b5c:	dfc00b17 	ldw	ra,44(sp)
    2b60:	df000a17 	ldw	fp,40(sp)
    2b64:	ddc00917 	ldw	r23,36(sp)
    2b68:	dd800817 	ldw	r22,32(sp)
    2b6c:	dd400717 	ldw	r21,28(sp)
    2b70:	dd000617 	ldw	r20,24(sp)
    2b74:	dcc00517 	ldw	r19,20(sp)
    2b78:	dc800417 	ldw	r18,16(sp)
    2b7c:	dc400317 	ldw	r17,12(sp)
    2b80:	dc000217 	ldw	r16,8(sp)
    2b84:	dec00c04 	addi	sp,sp,48
    2b88:	f800283a 	ret
    2b8c:	0005883a 	mov	r2,zero
    2b90:	003ff206 	br	2b5c <__alt_mem_onchip_memory+0xf7802b5c>
    2b94:	b007883a 	mov	r3,r22
    2b98:	2580012e 	bgeu	r4,r22,2ba0 <_fread_r+0x138>
    2b9c:	2007883a 	mov	r3,r4
    2ba0:	81400017 	ldw	r5,0(r16)
    2ba4:	180d883a 	mov	r6,r3
    2ba8:	9809883a 	mov	r4,r19
    2bac:	d8c00115 	stw	r3,4(sp)
    2bb0:	00041500 	call	4150 <memcpy>
    2bb4:	d8c00117 	ldw	r3,4(sp)
    2bb8:	84400017 	ldw	r17,0(r16)
    2bbc:	80800117 	ldw	r2,4(r16)
    2bc0:	81400c17 	ldw	r5,48(r16)
    2bc4:	88e3883a 	add	r17,r17,r3
    2bc8:	10c5c83a 	sub	r2,r2,r3
    2bcc:	84400015 	stw	r17,0(r16)
    2bd0:	80800115 	stw	r2,4(r16)
    2bd4:	b0e5c83a 	sub	r18,r22,r3
    2bd8:	28002b26 	beq	r5,zero,2c88 <_fread_r+0x220>
    2bdc:	90002b26 	beq	r18,zero,2c8c <_fread_r+0x224>
    2be0:	80801004 	addi	r2,r16,64
    2be4:	28800526 	beq	r5,r2,2bfc <_fread_r+0x194>
    2be8:	a009883a 	mov	r4,r20
    2bec:	d8c00115 	stw	r3,4(sp)
    2bf0:	0002dec0 	call	2dec <_free_r>
    2bf4:	d8c00117 	ldw	r3,4(sp)
    2bf8:	84400017 	ldw	r17,0(r16)
    2bfc:	80000c15 	stw	zero,48(r16)
    2c00:	80800517 	ldw	r2,20(r16)
    2c04:	87000417 	ldw	fp,16(r16)
    2c08:	98e7883a 	add	r19,r19,r3
    2c0c:	d8800015 	stw	r2,0(sp)
    2c10:	00000106 	br	2c18 <_fread_r+0x1b0>
    2c14:	90001d26 	beq	r18,zero,2c8c <_fread_r+0x224>
    2c18:	84c00415 	stw	r19,16(r16)
    2c1c:	84800515 	stw	r18,20(r16)
    2c20:	84c00015 	stw	r19,0(r16)
    2c24:	a009883a 	mov	r4,r20
    2c28:	800b883a 	mov	r5,r16
    2c2c:	00045100 	call	4510 <__srefill_r>
    2c30:	d9000017 	ldw	r4,0(sp)
    2c34:	80c00117 	ldw	r3,4(r16)
    2c38:	87000415 	stw	fp,16(r16)
    2c3c:	81000515 	stw	r4,20(r16)
    2c40:	84400015 	stw	r17,0(r16)
    2c44:	80000115 	stw	zero,4(r16)
    2c48:	90e5c83a 	sub	r18,r18,r3
    2c4c:	98e7883a 	add	r19,r19,r3
    2c50:	103ff026 	beq	r2,zero,2c14 <__alt_mem_onchip_memory+0xf7802c14>
    2c54:	b80b883a 	mov	r5,r23
    2c58:	b489c83a 	sub	r4,r22,r18
    2c5c:	0005a2c0 	call	5a2c <__udivsi3>
    2c60:	003fbe06 	br	2b5c <__alt_mem_onchip_memory+0xf7802b5c>
    2c64:	80000115 	stw	zero,4(r16)
    2c68:	0009883a 	mov	r4,zero
    2c6c:	0023883a 	mov	r17,zero
    2c70:	003f9e06 	br	2aec <__alt_mem_onchip_memory+0xf7802aec>
    2c74:	000290c0 	call	290c <__sinit>
    2c78:	8080030b 	ldhu	r2,12(r16)
    2c7c:	10c8000c 	andi	r3,r2,8192
    2c80:	183f971e 	bne	r3,zero,2ae0 <__alt_mem_onchip_memory+0xf7802ae0>
    2c84:	003f9006 	br	2ac8 <__alt_mem_onchip_memory+0xf7802ac8>
    2c88:	903fdd1e 	bne	r18,zero,2c00 <__alt_mem_onchip_memory+0xf7802c00>
    2c8c:	a805883a 	mov	r2,r21
    2c90:	003fb206 	br	2b5c <__alt_mem_onchip_memory+0xf7802b5c>

00002c94 <fread>:
    2c94:	defffe04 	addi	sp,sp,-8
    2c98:	00800074 	movhi	r2,1
    2c9c:	d9c00015 	stw	r7,0(sp)
    2ca0:	10bb9b04 	addi	r2,r2,-4500
    2ca4:	300f883a 	mov	r7,r6
    2ca8:	280d883a 	mov	r6,r5
    2cac:	200b883a 	mov	r5,r4
    2cb0:	11000017 	ldw	r4,0(r2)
    2cb4:	dfc00115 	stw	ra,4(sp)
    2cb8:	0002a680 	call	2a68 <_fread_r>
    2cbc:	dfc00117 	ldw	ra,4(sp)
    2cc0:	dec00204 	addi	sp,sp,8
    2cc4:	f800283a 	ret

00002cc8 <_malloc_trim_r>:
    2cc8:	defffb04 	addi	sp,sp,-20
    2ccc:	dcc00315 	stw	r19,12(sp)
    2cd0:	04c00074 	movhi	r19,1
    2cd4:	dc800215 	stw	r18,8(sp)
    2cd8:	dc400115 	stw	r17,4(sp)
    2cdc:	dc000015 	stw	r16,0(sp)
    2ce0:	dfc00415 	stw	ra,16(sp)
    2ce4:	2821883a 	mov	r16,r5
    2ce8:	9cf51504 	addi	r19,r19,-11180
    2cec:	2025883a 	mov	r18,r4
    2cf0:	00060640 	call	6064 <__malloc_lock>
    2cf4:	98800217 	ldw	r2,8(r19)
    2cf8:	14400117 	ldw	r17,4(r2)
    2cfc:	00bfff04 	movi	r2,-4
    2d00:	88a2703a 	and	r17,r17,r2
    2d04:	8c21c83a 	sub	r16,r17,r16
    2d08:	8403fbc4 	addi	r16,r16,4079
    2d0c:	8020d33a 	srli	r16,r16,12
    2d10:	0083ffc4 	movi	r2,4095
    2d14:	843fffc4 	addi	r16,r16,-1
    2d18:	8020933a 	slli	r16,r16,12
    2d1c:	1400060e 	bge	r2,r16,2d38 <_malloc_trim_r+0x70>
    2d20:	000b883a 	mov	r5,zero
    2d24:	9009883a 	mov	r4,r18
    2d28:	00046e40 	call	46e4 <_sbrk_r>
    2d2c:	98c00217 	ldw	r3,8(r19)
    2d30:	1c47883a 	add	r3,r3,r17
    2d34:	10c00a26 	beq	r2,r3,2d60 <_malloc_trim_r+0x98>
    2d38:	9009883a 	mov	r4,r18
    2d3c:	00060880 	call	6088 <__malloc_unlock>
    2d40:	0005883a 	mov	r2,zero
    2d44:	dfc00417 	ldw	ra,16(sp)
    2d48:	dcc00317 	ldw	r19,12(sp)
    2d4c:	dc800217 	ldw	r18,8(sp)
    2d50:	dc400117 	ldw	r17,4(sp)
    2d54:	dc000017 	ldw	r16,0(sp)
    2d58:	dec00504 	addi	sp,sp,20
    2d5c:	f800283a 	ret
    2d60:	040bc83a 	sub	r5,zero,r16
    2d64:	9009883a 	mov	r4,r18
    2d68:	00046e40 	call	46e4 <_sbrk_r>
    2d6c:	00ffffc4 	movi	r3,-1
    2d70:	10c00d26 	beq	r2,r3,2da8 <_malloc_trim_r+0xe0>
    2d74:	00c00074 	movhi	r3,1
    2d78:	18c35304 	addi	r3,r3,3404
    2d7c:	18800017 	ldw	r2,0(r3)
    2d80:	99000217 	ldw	r4,8(r19)
    2d84:	8c23c83a 	sub	r17,r17,r16
    2d88:	8c400054 	ori	r17,r17,1
    2d8c:	1421c83a 	sub	r16,r2,r16
    2d90:	24400115 	stw	r17,4(r4)
    2d94:	9009883a 	mov	r4,r18
    2d98:	1c000015 	stw	r16,0(r3)
    2d9c:	00060880 	call	6088 <__malloc_unlock>
    2da0:	00800044 	movi	r2,1
    2da4:	003fe706 	br	2d44 <__alt_mem_onchip_memory+0xf7802d44>
    2da8:	000b883a 	mov	r5,zero
    2dac:	9009883a 	mov	r4,r18
    2db0:	00046e40 	call	46e4 <_sbrk_r>
    2db4:	99000217 	ldw	r4,8(r19)
    2db8:	014003c4 	movi	r5,15
    2dbc:	1107c83a 	sub	r3,r2,r4
    2dc0:	28ffdd0e 	bge	r5,r3,2d38 <__alt_mem_onchip_memory+0xf7802d38>
    2dc4:	01400074 	movhi	r5,1
    2dc8:	297b9c04 	addi	r5,r5,-4496
    2dcc:	29400017 	ldw	r5,0(r5)
    2dd0:	18c00054 	ori	r3,r3,1
    2dd4:	20c00115 	stw	r3,4(r4)
    2dd8:	00c00074 	movhi	r3,1
    2ddc:	1145c83a 	sub	r2,r2,r5
    2de0:	18c35304 	addi	r3,r3,3404
    2de4:	18800015 	stw	r2,0(r3)
    2de8:	003fd306 	br	2d38 <__alt_mem_onchip_memory+0xf7802d38>

00002dec <_free_r>:
    2dec:	28004126 	beq	r5,zero,2ef4 <_free_r+0x108>
    2df0:	defffd04 	addi	sp,sp,-12
    2df4:	dc400115 	stw	r17,4(sp)
    2df8:	dc000015 	stw	r16,0(sp)
    2dfc:	2023883a 	mov	r17,r4
    2e00:	2821883a 	mov	r16,r5
    2e04:	dfc00215 	stw	ra,8(sp)
    2e08:	00060640 	call	6064 <__malloc_lock>
    2e0c:	81ffff17 	ldw	r7,-4(r16)
    2e10:	00bfff84 	movi	r2,-2
    2e14:	01000074 	movhi	r4,1
    2e18:	81bffe04 	addi	r6,r16,-8
    2e1c:	3884703a 	and	r2,r7,r2
    2e20:	21351504 	addi	r4,r4,-11180
    2e24:	308b883a 	add	r5,r6,r2
    2e28:	2a400117 	ldw	r9,4(r5)
    2e2c:	22000217 	ldw	r8,8(r4)
    2e30:	00ffff04 	movi	r3,-4
    2e34:	48c6703a 	and	r3,r9,r3
    2e38:	2a005726 	beq	r5,r8,2f98 <_free_r+0x1ac>
    2e3c:	28c00115 	stw	r3,4(r5)
    2e40:	39c0004c 	andi	r7,r7,1
    2e44:	3800091e 	bne	r7,zero,2e6c <_free_r+0x80>
    2e48:	823ffe17 	ldw	r8,-8(r16)
    2e4c:	22400204 	addi	r9,r4,8
    2e50:	320dc83a 	sub	r6,r6,r8
    2e54:	31c00217 	ldw	r7,8(r6)
    2e58:	1205883a 	add	r2,r2,r8
    2e5c:	3a406526 	beq	r7,r9,2ff4 <_free_r+0x208>
    2e60:	32000317 	ldw	r8,12(r6)
    2e64:	3a000315 	stw	r8,12(r7)
    2e68:	41c00215 	stw	r7,8(r8)
    2e6c:	28cf883a 	add	r7,r5,r3
    2e70:	39c00117 	ldw	r7,4(r7)
    2e74:	39c0004c 	andi	r7,r7,1
    2e78:	38003a26 	beq	r7,zero,2f64 <_free_r+0x178>
    2e7c:	10c00054 	ori	r3,r2,1
    2e80:	30c00115 	stw	r3,4(r6)
    2e84:	3087883a 	add	r3,r6,r2
    2e88:	18800015 	stw	r2,0(r3)
    2e8c:	00c07fc4 	movi	r3,511
    2e90:	18801936 	bltu	r3,r2,2ef8 <_free_r+0x10c>
    2e94:	1004d0fa 	srli	r2,r2,3
    2e98:	01c00044 	movi	r7,1
    2e9c:	21400117 	ldw	r5,4(r4)
    2ea0:	10c00044 	addi	r3,r2,1
    2ea4:	18c7883a 	add	r3,r3,r3
    2ea8:	1005d0ba 	srai	r2,r2,2
    2eac:	18c7883a 	add	r3,r3,r3
    2eb0:	18c7883a 	add	r3,r3,r3
    2eb4:	1907883a 	add	r3,r3,r4
    2eb8:	3884983a 	sll	r2,r7,r2
    2ebc:	19c00017 	ldw	r7,0(r3)
    2ec0:	1a3ffe04 	addi	r8,r3,-8
    2ec4:	1144b03a 	or	r2,r2,r5
    2ec8:	32000315 	stw	r8,12(r6)
    2ecc:	31c00215 	stw	r7,8(r6)
    2ed0:	20800115 	stw	r2,4(r4)
    2ed4:	19800015 	stw	r6,0(r3)
    2ed8:	39800315 	stw	r6,12(r7)
    2edc:	8809883a 	mov	r4,r17
    2ee0:	dfc00217 	ldw	ra,8(sp)
    2ee4:	dc400117 	ldw	r17,4(sp)
    2ee8:	dc000017 	ldw	r16,0(sp)
    2eec:	dec00304 	addi	sp,sp,12
    2ef0:	00060881 	jmpi	6088 <__malloc_unlock>
    2ef4:	f800283a 	ret
    2ef8:	100ad27a 	srli	r5,r2,9
    2efc:	00c00104 	movi	r3,4
    2f00:	19404a36 	bltu	r3,r5,302c <_free_r+0x240>
    2f04:	100ad1ba 	srli	r5,r2,6
    2f08:	28c00e44 	addi	r3,r5,57
    2f0c:	18c7883a 	add	r3,r3,r3
    2f10:	29400e04 	addi	r5,r5,56
    2f14:	18c7883a 	add	r3,r3,r3
    2f18:	18c7883a 	add	r3,r3,r3
    2f1c:	1909883a 	add	r4,r3,r4
    2f20:	20c00017 	ldw	r3,0(r4)
    2f24:	01c00074 	movhi	r7,1
    2f28:	213ffe04 	addi	r4,r4,-8
    2f2c:	39f51504 	addi	r7,r7,-11180
    2f30:	20c04426 	beq	r4,r3,3044 <_free_r+0x258>
    2f34:	01ffff04 	movi	r7,-4
    2f38:	19400117 	ldw	r5,4(r3)
    2f3c:	29ca703a 	and	r5,r5,r7
    2f40:	1140022e 	bgeu	r2,r5,2f4c <_free_r+0x160>
    2f44:	18c00217 	ldw	r3,8(r3)
    2f48:	20fffb1e 	bne	r4,r3,2f38 <__alt_mem_onchip_memory+0xf7802f38>
    2f4c:	19000317 	ldw	r4,12(r3)
    2f50:	31000315 	stw	r4,12(r6)
    2f54:	30c00215 	stw	r3,8(r6)
    2f58:	21800215 	stw	r6,8(r4)
    2f5c:	19800315 	stw	r6,12(r3)
    2f60:	003fde06 	br	2edc <__alt_mem_onchip_memory+0xf7802edc>
    2f64:	29c00217 	ldw	r7,8(r5)
    2f68:	10c5883a 	add	r2,r2,r3
    2f6c:	00c00074 	movhi	r3,1
    2f70:	18f51704 	addi	r3,r3,-11172
    2f74:	38c03b26 	beq	r7,r3,3064 <_free_r+0x278>
    2f78:	2a000317 	ldw	r8,12(r5)
    2f7c:	11400054 	ori	r5,r2,1
    2f80:	3087883a 	add	r3,r6,r2
    2f84:	3a000315 	stw	r8,12(r7)
    2f88:	41c00215 	stw	r7,8(r8)
    2f8c:	31400115 	stw	r5,4(r6)
    2f90:	18800015 	stw	r2,0(r3)
    2f94:	003fbd06 	br	2e8c <__alt_mem_onchip_memory+0xf7802e8c>
    2f98:	39c0004c 	andi	r7,r7,1
    2f9c:	10c5883a 	add	r2,r2,r3
    2fa0:	3800071e 	bne	r7,zero,2fc0 <_free_r+0x1d4>
    2fa4:	81fffe17 	ldw	r7,-8(r16)
    2fa8:	31cdc83a 	sub	r6,r6,r7
    2fac:	30c00317 	ldw	r3,12(r6)
    2fb0:	31400217 	ldw	r5,8(r6)
    2fb4:	11c5883a 	add	r2,r2,r7
    2fb8:	28c00315 	stw	r3,12(r5)
    2fbc:	19400215 	stw	r5,8(r3)
    2fc0:	10c00054 	ori	r3,r2,1
    2fc4:	30c00115 	stw	r3,4(r6)
    2fc8:	00c00074 	movhi	r3,1
    2fcc:	18fb9d04 	addi	r3,r3,-4492
    2fd0:	18c00017 	ldw	r3,0(r3)
    2fd4:	21800215 	stw	r6,8(r4)
    2fd8:	10ffc036 	bltu	r2,r3,2edc <__alt_mem_onchip_memory+0xf7802edc>
    2fdc:	00800074 	movhi	r2,1
    2fe0:	10834b04 	addi	r2,r2,3372
    2fe4:	11400017 	ldw	r5,0(r2)
    2fe8:	8809883a 	mov	r4,r17
    2fec:	0002cc80 	call	2cc8 <_malloc_trim_r>
    2ff0:	003fba06 	br	2edc <__alt_mem_onchip_memory+0xf7802edc>
    2ff4:	28c9883a 	add	r4,r5,r3
    2ff8:	21000117 	ldw	r4,4(r4)
    2ffc:	2100004c 	andi	r4,r4,1
    3000:	2000391e 	bne	r4,zero,30e8 <_free_r+0x2fc>
    3004:	29c00217 	ldw	r7,8(r5)
    3008:	29000317 	ldw	r4,12(r5)
    300c:	1885883a 	add	r2,r3,r2
    3010:	10c00054 	ori	r3,r2,1
    3014:	39000315 	stw	r4,12(r7)
    3018:	21c00215 	stw	r7,8(r4)
    301c:	30c00115 	stw	r3,4(r6)
    3020:	308d883a 	add	r6,r6,r2
    3024:	30800015 	stw	r2,0(r6)
    3028:	003fac06 	br	2edc <__alt_mem_onchip_memory+0xf7802edc>
    302c:	00c00504 	movi	r3,20
    3030:	19401536 	bltu	r3,r5,3088 <_free_r+0x29c>
    3034:	28c01704 	addi	r3,r5,92
    3038:	18c7883a 	add	r3,r3,r3
    303c:	294016c4 	addi	r5,r5,91
    3040:	003fb406 	br	2f14 <__alt_mem_onchip_memory+0xf7802f14>
    3044:	280bd0ba 	srai	r5,r5,2
    3048:	00c00044 	movi	r3,1
    304c:	38800117 	ldw	r2,4(r7)
    3050:	194a983a 	sll	r5,r3,r5
    3054:	2007883a 	mov	r3,r4
    3058:	2884b03a 	or	r2,r5,r2
    305c:	38800115 	stw	r2,4(r7)
    3060:	003fbb06 	br	2f50 <__alt_mem_onchip_memory+0xf7802f50>
    3064:	21800515 	stw	r6,20(r4)
    3068:	21800415 	stw	r6,16(r4)
    306c:	10c00054 	ori	r3,r2,1
    3070:	31c00315 	stw	r7,12(r6)
    3074:	31c00215 	stw	r7,8(r6)
    3078:	30c00115 	stw	r3,4(r6)
    307c:	308d883a 	add	r6,r6,r2
    3080:	30800015 	stw	r2,0(r6)
    3084:	003f9506 	br	2edc <__alt_mem_onchip_memory+0xf7802edc>
    3088:	00c01504 	movi	r3,84
    308c:	19400536 	bltu	r3,r5,30a4 <_free_r+0x2b8>
    3090:	100ad33a 	srli	r5,r2,12
    3094:	28c01bc4 	addi	r3,r5,111
    3098:	18c7883a 	add	r3,r3,r3
    309c:	29401b84 	addi	r5,r5,110
    30a0:	003f9c06 	br	2f14 <__alt_mem_onchip_memory+0xf7802f14>
    30a4:	00c05504 	movi	r3,340
    30a8:	19400536 	bltu	r3,r5,30c0 <_free_r+0x2d4>
    30ac:	100ad3fa 	srli	r5,r2,15
    30b0:	28c01e04 	addi	r3,r5,120
    30b4:	18c7883a 	add	r3,r3,r3
    30b8:	29401dc4 	addi	r5,r5,119
    30bc:	003f9506 	br	2f14 <__alt_mem_onchip_memory+0xf7802f14>
    30c0:	00c15504 	movi	r3,1364
    30c4:	19400536 	bltu	r3,r5,30dc <_free_r+0x2f0>
    30c8:	100ad4ba 	srli	r5,r2,18
    30cc:	28c01f44 	addi	r3,r5,125
    30d0:	18c7883a 	add	r3,r3,r3
    30d4:	29401f04 	addi	r5,r5,124
    30d8:	003f8e06 	br	2f14 <__alt_mem_onchip_memory+0xf7802f14>
    30dc:	00c03f84 	movi	r3,254
    30e0:	01401f84 	movi	r5,126
    30e4:	003f8b06 	br	2f14 <__alt_mem_onchip_memory+0xf7802f14>
    30e8:	10c00054 	ori	r3,r2,1
    30ec:	30c00115 	stw	r3,4(r6)
    30f0:	308d883a 	add	r6,r6,r2
    30f4:	30800015 	stw	r2,0(r6)
    30f8:	003f7806 	br	2edc <__alt_mem_onchip_memory+0xf7802edc>

000030fc <_fseek_r>:
    30fc:	000311c1 	jmpi	311c <_fseeko_r>

00003100 <fseek>:
    3100:	00800074 	movhi	r2,1
    3104:	10bb9b04 	addi	r2,r2,-4500
    3108:	300f883a 	mov	r7,r6
    310c:	280d883a 	mov	r6,r5
    3110:	200b883a 	mov	r5,r4
    3114:	11000017 	ldw	r4,0(r2)
    3118:	000311c1 	jmpi	311c <_fseeko_r>

0000311c <_fseeko_r>:
    311c:	deffe804 	addi	sp,sp,-96
    3120:	dd401415 	stw	r21,80(sp)
    3124:	dc801115 	stw	r18,68(sp)
    3128:	dc401015 	stw	r17,64(sp)
    312c:	dc000f15 	stw	r16,60(sp)
    3130:	dfc01715 	stw	ra,92(sp)
    3134:	ddc01615 	stw	r23,88(sp)
    3138:	dd801515 	stw	r22,84(sp)
    313c:	dd001315 	stw	r20,76(sp)
    3140:	dcc01215 	stw	r19,72(sp)
    3144:	2023883a 	mov	r17,r4
    3148:	2821883a 	mov	r16,r5
    314c:	302b883a 	mov	r21,r6
    3150:	3825883a 	mov	r18,r7
    3154:	20000226 	beq	r4,zero,3160 <_fseeko_r+0x44>
    3158:	20800e17 	ldw	r2,56(r4)
    315c:	10005a26 	beq	r2,zero,32c8 <_fseeko_r+0x1ac>
    3160:	8080030b 	ldhu	r2,12(r16)
    3164:	00c04204 	movi	r3,264
    3168:	1080420c 	andi	r2,r2,264
    316c:	10c05b26 	beq	r2,r3,32dc <_fseeko_r+0x1c0>
    3170:	85000a17 	ldw	r20,40(r16)
    3174:	a000f626 	beq	r20,zero,3550 <_fseeko_r+0x434>
    3178:	00800044 	movi	r2,1
    317c:	90803e26 	beq	r18,r2,3278 <_fseeko_r+0x15c>
    3180:	00800084 	movi	r2,2
    3184:	90801026 	beq	r18,r2,31c8 <_fseeko_r+0xac>
    3188:	90000f26 	beq	r18,zero,31c8 <_fseeko_r+0xac>
    318c:	00800584 	movi	r2,22
    3190:	88800015 	stw	r2,0(r17)
    3194:	04ffffc4 	movi	r19,-1
    3198:	9805883a 	mov	r2,r19
    319c:	dfc01717 	ldw	ra,92(sp)
    31a0:	ddc01617 	ldw	r23,88(sp)
    31a4:	dd801517 	ldw	r22,84(sp)
    31a8:	dd401417 	ldw	r21,80(sp)
    31ac:	dd001317 	ldw	r20,76(sp)
    31b0:	dcc01217 	ldw	r19,72(sp)
    31b4:	dc801117 	ldw	r18,68(sp)
    31b8:	dc401017 	ldw	r17,64(sp)
    31bc:	dc000f17 	ldw	r16,60(sp)
    31c0:	dec01804 	addi	sp,sp,96
    31c4:	f800283a 	ret
    31c8:	80800417 	ldw	r2,16(r16)
    31cc:	002f883a 	mov	r23,zero
    31d0:	0027883a 	mov	r19,zero
    31d4:	1000cb26 	beq	r2,zero,3504 <_fseeko_r+0x3e8>
    31d8:	8080030b 	ldhu	r2,12(r16)
    31dc:	10c2068c 	andi	r3,r2,2074
    31e0:	1800071e 	bne	r3,zero,3200 <_fseeko_r+0xe4>
    31e4:	10c1000c 	andi	r3,r2,1024
    31e8:	1800451e 	bne	r3,zero,3300 <_fseeko_r+0x1e4>
    31ec:	00c00034 	movhi	r3,0
    31f0:	18d20404 	addi	r3,r3,18448
    31f4:	a0c0b726 	beq	r20,r3,34d4 <_fseeko_r+0x3b8>
    31f8:	10820014 	ori	r2,r2,2048
    31fc:	8080030d 	sth	r2,12(r16)
    3200:	800b883a 	mov	r5,r16
    3204:	8809883a 	mov	r4,r17
    3208:	00025300 	call	2530 <_fflush_r>
    320c:	1027883a 	mov	r19,r2
    3210:	103fe01e 	bne	r2,zero,3194 <__alt_mem_onchip_memory+0xf7803194>
    3214:	81400717 	ldw	r5,28(r16)
    3218:	900f883a 	mov	r7,r18
    321c:	a80d883a 	mov	r6,r21
    3220:	8809883a 	mov	r4,r17
    3224:	a03ee83a 	callr	r20
    3228:	00ffffc4 	movi	r3,-1
    322c:	10ffd926 	beq	r2,r3,3194 <__alt_mem_onchip_memory+0xf7803194>
    3230:	81400c17 	ldw	r5,48(r16)
    3234:	28000526 	beq	r5,zero,324c <_fseeko_r+0x130>
    3238:	80801004 	addi	r2,r16,64
    323c:	28800226 	beq	r5,r2,3248 <_fseeko_r+0x12c>
    3240:	8809883a 	mov	r4,r17
    3244:	0002dec0 	call	2dec <_free_r>
    3248:	80000c15 	stw	zero,48(r16)
    324c:	8080030b 	ldhu	r2,12(r16)
    3250:	80c00417 	ldw	r3,16(r16)
    3254:	80000115 	stw	zero,4(r16)
    3258:	10bdf7cc 	andi	r2,r2,63455
    325c:	80c00015 	stw	r3,0(r16)
    3260:	8080030d 	sth	r2,12(r16)
    3264:	01800204 	movi	r6,8
    3268:	000b883a 	mov	r5,zero
    326c:	81001704 	addi	r4,r16,92
    3270:	00042980 	call	4298 <memset>
    3274:	003fc806 	br	3198 <__alt_mem_onchip_memory+0xf7803198>
    3278:	800b883a 	mov	r5,r16
    327c:	8809883a 	mov	r4,r17
    3280:	00025300 	call	2530 <_fflush_r>
    3284:	8080030b 	ldhu	r2,12(r16)
    3288:	10c4000c 	andi	r3,r2,4096
    328c:	18008726 	beq	r3,zero,34ac <_fseeko_r+0x390>
    3290:	84c01417 	ldw	r19,80(r16)
    3294:	10c0010c 	andi	r3,r2,4
    3298:	1800431e 	bne	r3,zero,33a8 <_fseeko_r+0x28c>
    329c:	1080020c 	andi	r2,r2,8
    32a0:	10008026 	beq	r2,zero,34a4 <_fseeko_r+0x388>
    32a4:	80c00017 	ldw	r3,0(r16)
    32a8:	80800417 	ldw	r2,16(r16)
    32ac:	18000226 	beq	r3,zero,32b8 <_fseeko_r+0x19c>
    32b0:	1887c83a 	sub	r3,r3,r2
    32b4:	98e7883a 	add	r19,r19,r3
    32b8:	aceb883a 	add	r21,r21,r19
    32bc:	05c00044 	movi	r23,1
    32c0:	0025883a 	mov	r18,zero
    32c4:	003fc306 	br	31d4 <__alt_mem_onchip_memory+0xf78031d4>
    32c8:	000290c0 	call	290c <__sinit>
    32cc:	8080030b 	ldhu	r2,12(r16)
    32d0:	00c04204 	movi	r3,264
    32d4:	1080420c 	andi	r2,r2,264
    32d8:	10ffa51e 	bne	r2,r3,3170 <__alt_mem_onchip_memory+0xf7803170>
    32dc:	800b883a 	mov	r5,r16
    32e0:	8809883a 	mov	r4,r17
    32e4:	00025300 	call	2530 <_fflush_r>
    32e8:	003fa106 	br	3170 <__alt_mem_onchip_memory+0xf7803170>
    32ec:	8080030b 	ldhu	r2,12(r16)
    32f0:	00c10004 	movi	r3,1024
    32f4:	80c01315 	stw	r3,76(r16)
    32f8:	10c4b03a 	or	r2,r2,r3
    32fc:	8080030d 	sth	r2,12(r16)
    3300:	9000311e 	bne	r18,zero,33c8 <_fseeko_r+0x2ac>
    3304:	a82d883a 	mov	r22,r21
    3308:	b800371e 	bne	r23,zero,33e8 <_fseeko_r+0x2cc>
    330c:	8080030b 	ldhu	r2,12(r16)
    3310:	1084000c 	andi	r2,r2,4096
    3314:	10007f26 	beq	r2,zero,3514 <_fseeko_r+0x3f8>
    3318:	80801417 	ldw	r2,80(r16)
    331c:	81800117 	ldw	r6,4(r16)
    3320:	81400c17 	ldw	r5,48(r16)
    3324:	11a7c83a 	sub	r19,r2,r6
    3328:	28008226 	beq	r5,zero,3534 <_fseeko_r+0x418>
    332c:	81c00f17 	ldw	r7,60(r16)
    3330:	99e7c83a 	sub	r19,r19,r7
    3334:	81000e17 	ldw	r4,56(r16)
    3338:	80800417 	ldw	r2,16(r16)
    333c:	99a7883a 	add	r19,r19,r6
    3340:	2087c83a 	sub	r3,r4,r2
    3344:	98e7c83a 	sub	r19,r19,r3
    3348:	38c7883a 	add	r3,r7,r3
    334c:	b4c02b16 	blt	r22,r19,33fc <_fseeko_r+0x2e0>
    3350:	98c9883a 	add	r4,r19,r3
    3354:	b100292e 	bgeu	r22,r4,33fc <_fseeko_r+0x2e0>
    3358:	b4e7c83a 	sub	r19,r22,r19
    335c:	14c5883a 	add	r2,r2,r19
    3360:	1ce7c83a 	sub	r19,r3,r19
    3364:	80800015 	stw	r2,0(r16)
    3368:	84c00115 	stw	r19,4(r16)
    336c:	28000526 	beq	r5,zero,3384 <_fseeko_r+0x268>
    3370:	80801004 	addi	r2,r16,64
    3374:	28800226 	beq	r5,r2,3380 <_fseeko_r+0x264>
    3378:	8809883a 	mov	r4,r17
    337c:	0002dec0 	call	2dec <_free_r>
    3380:	80000c15 	stw	zero,48(r16)
    3384:	8080030b 	ldhu	r2,12(r16)
    3388:	01800204 	movi	r6,8
    338c:	000b883a 	mov	r5,zero
    3390:	10bff7cc 	andi	r2,r2,65503
    3394:	8080030d 	sth	r2,12(r16)
    3398:	81001704 	addi	r4,r16,92
    339c:	00042980 	call	4298 <memset>
    33a0:	0027883a 	mov	r19,zero
    33a4:	003f7c06 	br	3198 <__alt_mem_onchip_memory+0xf7803198>
    33a8:	80c00117 	ldw	r3,4(r16)
    33ac:	80800c17 	ldw	r2,48(r16)
    33b0:	98e7c83a 	sub	r19,r19,r3
    33b4:	10003b26 	beq	r2,zero,34a4 <_fseeko_r+0x388>
    33b8:	80c00f17 	ldw	r3,60(r16)
    33bc:	80800417 	ldw	r2,16(r16)
    33c0:	98e7c83a 	sub	r19,r19,r3
    33c4:	003fbc06 	br	32b8 <__alt_mem_onchip_memory+0xf78032b8>
    33c8:	8140038f 	ldh	r5,14(r16)
    33cc:	d80d883a 	mov	r6,sp
    33d0:	8809883a 	mov	r4,r17
    33d4:	000357c0 	call	357c <_fstat_r>
    33d8:	103f891e 	bne	r2,zero,3200 <__alt_mem_onchip_memory+0xf7803200>
    33dc:	dd800417 	ldw	r22,16(sp)
    33e0:	adad883a 	add	r22,r21,r22
    33e4:	b83fc926 	beq	r23,zero,330c <__alt_mem_onchip_memory+0xf780330c>
    33e8:	81400c17 	ldw	r5,48(r16)
    33ec:	81800117 	ldw	r6,4(r16)
    33f0:	28005026 	beq	r5,zero,3534 <_fseeko_r+0x418>
    33f4:	81c00f17 	ldw	r7,60(r16)
    33f8:	003fce06 	br	3334 <__alt_mem_onchip_memory+0xf7803334>
    33fc:	84c01317 	ldw	r19,76(r16)
    3400:	81400717 	ldw	r5,28(r16)
    3404:	000f883a 	mov	r7,zero
    3408:	04e7c83a 	sub	r19,zero,r19
    340c:	9da6703a 	and	r19,r19,r22
    3410:	980d883a 	mov	r6,r19
    3414:	8809883a 	mov	r4,r17
    3418:	a03ee83a 	callr	r20
    341c:	00ffffc4 	movi	r3,-1
    3420:	10ff7726 	beq	r2,r3,3200 <__alt_mem_onchip_memory+0xf7803200>
    3424:	80800417 	ldw	r2,16(r16)
    3428:	81400c17 	ldw	r5,48(r16)
    342c:	80000115 	stw	zero,4(r16)
    3430:	80800015 	stw	r2,0(r16)
    3434:	28000526 	beq	r5,zero,344c <_fseeko_r+0x330>
    3438:	80801004 	addi	r2,r16,64
    343c:	28800226 	beq	r5,r2,3448 <_fseeko_r+0x32c>
    3440:	8809883a 	mov	r4,r17
    3444:	0002dec0 	call	2dec <_free_r>
    3448:	80000c15 	stw	zero,48(r16)
    344c:	8080030b 	ldhu	r2,12(r16)
    3450:	b4e7c83a 	sub	r19,r22,r19
    3454:	10bff7cc 	andi	r2,r2,65503
    3458:	8080030d 	sth	r2,12(r16)
    345c:	98000b26 	beq	r19,zero,348c <_fseeko_r+0x370>
    3460:	800b883a 	mov	r5,r16
    3464:	8809883a 	mov	r4,r17
    3468:	00045100 	call	4510 <__srefill_r>
    346c:	103f641e 	bne	r2,zero,3200 <__alt_mem_onchip_memory+0xf7803200>
    3470:	80800117 	ldw	r2,4(r16)
    3474:	14ff6236 	bltu	r2,r19,3200 <__alt_mem_onchip_memory+0xf7803200>
    3478:	80c00017 	ldw	r3,0(r16)
    347c:	14c5c83a 	sub	r2,r2,r19
    3480:	80800115 	stw	r2,4(r16)
    3484:	1ce7883a 	add	r19,r3,r19
    3488:	84c00015 	stw	r19,0(r16)
    348c:	01800204 	movi	r6,8
    3490:	000b883a 	mov	r5,zero
    3494:	81001704 	addi	r4,r16,92
    3498:	00042980 	call	4298 <memset>
    349c:	0027883a 	mov	r19,zero
    34a0:	003f3d06 	br	3198 <__alt_mem_onchip_memory+0xf7803198>
    34a4:	80800417 	ldw	r2,16(r16)
    34a8:	003f8306 	br	32b8 <__alt_mem_onchip_memory+0xf78032b8>
    34ac:	81400717 	ldw	r5,28(r16)
    34b0:	900f883a 	mov	r7,r18
    34b4:	000d883a 	mov	r6,zero
    34b8:	8809883a 	mov	r4,r17
    34bc:	a03ee83a 	callr	r20
    34c0:	1027883a 	mov	r19,r2
    34c4:	00bfffc4 	movi	r2,-1
    34c8:	98bf3226 	beq	r19,r2,3194 <__alt_mem_onchip_memory+0xf7803194>
    34cc:	8080030b 	ldhu	r2,12(r16)
    34d0:	003f7006 	br	3294 <__alt_mem_onchip_memory+0xf7803294>
    34d4:	8140038f 	ldh	r5,14(r16)
    34d8:	283f4716 	blt	r5,zero,31f8 <__alt_mem_onchip_memory+0xf78031f8>
    34dc:	d80d883a 	mov	r6,sp
    34e0:	8809883a 	mov	r4,r17
    34e4:	000357c0 	call	357c <_fstat_r>
    34e8:	1000041e 	bne	r2,zero,34fc <_fseeko_r+0x3e0>
    34ec:	d8800117 	ldw	r2,4(sp)
    34f0:	00e00014 	movui	r3,32768
    34f4:	10bc000c 	andi	r2,r2,61440
    34f8:	10ff7c26 	beq	r2,r3,32ec <__alt_mem_onchip_memory+0xf78032ec>
    34fc:	8080030b 	ldhu	r2,12(r16)
    3500:	003f3d06 	br	31f8 <__alt_mem_onchip_memory+0xf78031f8>
    3504:	800b883a 	mov	r5,r16
    3508:	8809883a 	mov	r4,r17
    350c:	00037600 	call	3760 <__smakebuf_r>
    3510:	003f3106 	br	31d8 <__alt_mem_onchip_memory+0xf78031d8>
    3514:	81400717 	ldw	r5,28(r16)
    3518:	01c00044 	movi	r7,1
    351c:	000d883a 	mov	r6,zero
    3520:	8809883a 	mov	r4,r17
    3524:	a03ee83a 	callr	r20
    3528:	00ffffc4 	movi	r3,-1
    352c:	10ff7b1e 	bne	r2,r3,331c <__alt_mem_onchip_memory+0xf780331c>
    3530:	003f3306 	br	3200 <__alt_mem_onchip_memory+0xf7803200>
    3534:	80c00017 	ldw	r3,0(r16)
    3538:	80800417 	ldw	r2,16(r16)
    353c:	000b883a 	mov	r5,zero
    3540:	1887c83a 	sub	r3,r3,r2
    3544:	98e7c83a 	sub	r19,r19,r3
    3548:	30c7883a 	add	r3,r6,r3
    354c:	003f7f06 	br	334c <__alt_mem_onchip_memory+0xf780334c>
    3550:	00800744 	movi	r2,29
    3554:	88800015 	stw	r2,0(r17)
    3558:	04ffffc4 	movi	r19,-1
    355c:	003f0e06 	br	3198 <__alt_mem_onchip_memory+0xf7803198>

00003560 <fseeko>:
    3560:	00800074 	movhi	r2,1
    3564:	10bb9b04 	addi	r2,r2,-4500
    3568:	300f883a 	mov	r7,r6
    356c:	280d883a 	mov	r6,r5
    3570:	200b883a 	mov	r5,r4
    3574:	11000017 	ldw	r4,0(r2)
    3578:	000311c1 	jmpi	311c <_fseeko_r>

0000357c <_fstat_r>:
    357c:	defffd04 	addi	sp,sp,-12
    3580:	2805883a 	mov	r2,r5
    3584:	dc000015 	stw	r16,0(sp)
    3588:	04000074 	movhi	r16,1
    358c:	dc400115 	stw	r17,4(sp)
    3590:	84034804 	addi	r16,r16,3360
    3594:	2023883a 	mov	r17,r4
    3598:	300b883a 	mov	r5,r6
    359c:	1009883a 	mov	r4,r2
    35a0:	dfc00215 	stw	ra,8(sp)
    35a4:	80000015 	stw	zero,0(r16)
    35a8:	0005c5c0 	call	5c5c <fstat>
    35ac:	00ffffc4 	movi	r3,-1
    35b0:	10c00526 	beq	r2,r3,35c8 <_fstat_r+0x4c>
    35b4:	dfc00217 	ldw	ra,8(sp)
    35b8:	dc400117 	ldw	r17,4(sp)
    35bc:	dc000017 	ldw	r16,0(sp)
    35c0:	dec00304 	addi	sp,sp,12
    35c4:	f800283a 	ret
    35c8:	80c00017 	ldw	r3,0(r16)
    35cc:	183ff926 	beq	r3,zero,35b4 <__alt_mem_onchip_memory+0xf78035b4>
    35d0:	88c00015 	stw	r3,0(r17)
    35d4:	003ff706 	br	35b4 <__alt_mem_onchip_memory+0xf78035b4>

000035d8 <_fwalk>:
    35d8:	defff704 	addi	sp,sp,-36
    35dc:	dd000415 	stw	r20,16(sp)
    35e0:	dfc00815 	stw	ra,32(sp)
    35e4:	ddc00715 	stw	r23,28(sp)
    35e8:	dd800615 	stw	r22,24(sp)
    35ec:	dd400515 	stw	r21,20(sp)
    35f0:	dcc00315 	stw	r19,12(sp)
    35f4:	dc800215 	stw	r18,8(sp)
    35f8:	dc400115 	stw	r17,4(sp)
    35fc:	dc000015 	stw	r16,0(sp)
    3600:	2500b804 	addi	r20,r4,736
    3604:	a0002326 	beq	r20,zero,3694 <_fwalk+0xbc>
    3608:	282b883a 	mov	r21,r5
    360c:	002f883a 	mov	r23,zero
    3610:	05800044 	movi	r22,1
    3614:	04ffffc4 	movi	r19,-1
    3618:	a4400117 	ldw	r17,4(r20)
    361c:	a4800217 	ldw	r18,8(r20)
    3620:	8c7fffc4 	addi	r17,r17,-1
    3624:	88000d16 	blt	r17,zero,365c <_fwalk+0x84>
    3628:	94000304 	addi	r16,r18,12
    362c:	94800384 	addi	r18,r18,14
    3630:	8080000b 	ldhu	r2,0(r16)
    3634:	8c7fffc4 	addi	r17,r17,-1
    3638:	813ffd04 	addi	r4,r16,-12
    363c:	b080042e 	bgeu	r22,r2,3650 <_fwalk+0x78>
    3640:	9080000f 	ldh	r2,0(r18)
    3644:	14c00226 	beq	r2,r19,3650 <_fwalk+0x78>
    3648:	a83ee83a 	callr	r21
    364c:	b8aeb03a 	or	r23,r23,r2
    3650:	84001a04 	addi	r16,r16,104
    3654:	94801a04 	addi	r18,r18,104
    3658:	8cfff51e 	bne	r17,r19,3630 <__alt_mem_onchip_memory+0xf7803630>
    365c:	a5000017 	ldw	r20,0(r20)
    3660:	a03fed1e 	bne	r20,zero,3618 <__alt_mem_onchip_memory+0xf7803618>
    3664:	b805883a 	mov	r2,r23
    3668:	dfc00817 	ldw	ra,32(sp)
    366c:	ddc00717 	ldw	r23,28(sp)
    3670:	dd800617 	ldw	r22,24(sp)
    3674:	dd400517 	ldw	r21,20(sp)
    3678:	dd000417 	ldw	r20,16(sp)
    367c:	dcc00317 	ldw	r19,12(sp)
    3680:	dc800217 	ldw	r18,8(sp)
    3684:	dc400117 	ldw	r17,4(sp)
    3688:	dc000017 	ldw	r16,0(sp)
    368c:	dec00904 	addi	sp,sp,36
    3690:	f800283a 	ret
    3694:	002f883a 	mov	r23,zero
    3698:	003ff206 	br	3664 <__alt_mem_onchip_memory+0xf7803664>

0000369c <_fwalk_reent>:
    369c:	defff704 	addi	sp,sp,-36
    36a0:	dd000415 	stw	r20,16(sp)
    36a4:	dfc00815 	stw	ra,32(sp)
    36a8:	ddc00715 	stw	r23,28(sp)
    36ac:	dd800615 	stw	r22,24(sp)
    36b0:	dd400515 	stw	r21,20(sp)
    36b4:	dcc00315 	stw	r19,12(sp)
    36b8:	dc800215 	stw	r18,8(sp)
    36bc:	dc400115 	stw	r17,4(sp)
    36c0:	dc000015 	stw	r16,0(sp)
    36c4:	2500b804 	addi	r20,r4,736
    36c8:	a0002326 	beq	r20,zero,3758 <_fwalk_reent+0xbc>
    36cc:	282b883a 	mov	r21,r5
    36d0:	2027883a 	mov	r19,r4
    36d4:	002f883a 	mov	r23,zero
    36d8:	05800044 	movi	r22,1
    36dc:	04bfffc4 	movi	r18,-1
    36e0:	a4400117 	ldw	r17,4(r20)
    36e4:	a4000217 	ldw	r16,8(r20)
    36e8:	8c7fffc4 	addi	r17,r17,-1
    36ec:	88000c16 	blt	r17,zero,3720 <_fwalk_reent+0x84>
    36f0:	84000304 	addi	r16,r16,12
    36f4:	8080000b 	ldhu	r2,0(r16)
    36f8:	8c7fffc4 	addi	r17,r17,-1
    36fc:	817ffd04 	addi	r5,r16,-12
    3700:	b080052e 	bgeu	r22,r2,3718 <_fwalk_reent+0x7c>
    3704:	8080008f 	ldh	r2,2(r16)
    3708:	9809883a 	mov	r4,r19
    370c:	14800226 	beq	r2,r18,3718 <_fwalk_reent+0x7c>
    3710:	a83ee83a 	callr	r21
    3714:	b8aeb03a 	or	r23,r23,r2
    3718:	84001a04 	addi	r16,r16,104
    371c:	8cbff51e 	bne	r17,r18,36f4 <__alt_mem_onchip_memory+0xf78036f4>
    3720:	a5000017 	ldw	r20,0(r20)
    3724:	a03fee1e 	bne	r20,zero,36e0 <__alt_mem_onchip_memory+0xf78036e0>
    3728:	b805883a 	mov	r2,r23
    372c:	dfc00817 	ldw	ra,32(sp)
    3730:	ddc00717 	ldw	r23,28(sp)
    3734:	dd800617 	ldw	r22,24(sp)
    3738:	dd400517 	ldw	r21,20(sp)
    373c:	dd000417 	ldw	r20,16(sp)
    3740:	dcc00317 	ldw	r19,12(sp)
    3744:	dc800217 	ldw	r18,8(sp)
    3748:	dc400117 	ldw	r17,4(sp)
    374c:	dc000017 	ldw	r16,0(sp)
    3750:	dec00904 	addi	sp,sp,36
    3754:	f800283a 	ret
    3758:	002f883a 	mov	r23,zero
    375c:	003ff206 	br	3728 <__alt_mem_onchip_memory+0xf7803728>

00003760 <__smakebuf_r>:
    3760:	2880030b 	ldhu	r2,12(r5)
    3764:	10c0008c 	andi	r3,r2,2
    3768:	1800411e 	bne	r3,zero,3870 <__smakebuf_r+0x110>
    376c:	deffec04 	addi	sp,sp,-80
    3770:	dc000f15 	stw	r16,60(sp)
    3774:	2821883a 	mov	r16,r5
    3778:	2940038f 	ldh	r5,14(r5)
    377c:	dc401015 	stw	r17,64(sp)
    3780:	dfc01315 	stw	ra,76(sp)
    3784:	dcc01215 	stw	r19,72(sp)
    3788:	dc801115 	stw	r18,68(sp)
    378c:	2023883a 	mov	r17,r4
    3790:	28001c16 	blt	r5,zero,3804 <__smakebuf_r+0xa4>
    3794:	d80d883a 	mov	r6,sp
    3798:	000357c0 	call	357c <_fstat_r>
    379c:	10001816 	blt	r2,zero,3800 <__smakebuf_r+0xa0>
    37a0:	d8800117 	ldw	r2,4(sp)
    37a4:	00e00014 	movui	r3,32768
    37a8:	10bc000c 	andi	r2,r2,61440
    37ac:	14c80020 	cmpeqi	r19,r2,8192
    37b0:	10c03726 	beq	r2,r3,3890 <__smakebuf_r+0x130>
    37b4:	80c0030b 	ldhu	r3,12(r16)
    37b8:	18c20014 	ori	r3,r3,2048
    37bc:	80c0030d 	sth	r3,12(r16)
    37c0:	00c80004 	movi	r3,8192
    37c4:	10c0521e 	bne	r2,r3,3910 <__smakebuf_r+0x1b0>
    37c8:	8140038f 	ldh	r5,14(r16)
    37cc:	8809883a 	mov	r4,r17
    37d0:	0004f280 	call	4f28 <_isatty_r>
    37d4:	10004c26 	beq	r2,zero,3908 <__smakebuf_r+0x1a8>
    37d8:	8080030b 	ldhu	r2,12(r16)
    37dc:	80c010c4 	addi	r3,r16,67
    37e0:	80c00015 	stw	r3,0(r16)
    37e4:	10800054 	ori	r2,r2,1
    37e8:	8080030d 	sth	r2,12(r16)
    37ec:	00800044 	movi	r2,1
    37f0:	80c00415 	stw	r3,16(r16)
    37f4:	80800515 	stw	r2,20(r16)
    37f8:	04810004 	movi	r18,1024
    37fc:	00000706 	br	381c <__smakebuf_r+0xbc>
    3800:	8080030b 	ldhu	r2,12(r16)
    3804:	10c0200c 	andi	r3,r2,128
    3808:	18001f1e 	bne	r3,zero,3888 <__smakebuf_r+0x128>
    380c:	04810004 	movi	r18,1024
    3810:	10820014 	ori	r2,r2,2048
    3814:	8080030d 	sth	r2,12(r16)
    3818:	0027883a 	mov	r19,zero
    381c:	900b883a 	mov	r5,r18
    3820:	8809883a 	mov	r4,r17
    3824:	00039440 	call	3944 <_malloc_r>
    3828:	10002c26 	beq	r2,zero,38dc <__smakebuf_r+0x17c>
    382c:	80c0030b 	ldhu	r3,12(r16)
    3830:	01000034 	movhi	r4,0
    3834:	21097104 	addi	r4,r4,9668
    3838:	89000f15 	stw	r4,60(r17)
    383c:	18c02014 	ori	r3,r3,128
    3840:	80c0030d 	sth	r3,12(r16)
    3844:	80800015 	stw	r2,0(r16)
    3848:	80800415 	stw	r2,16(r16)
    384c:	84800515 	stw	r18,20(r16)
    3850:	98001a1e 	bne	r19,zero,38bc <__smakebuf_r+0x15c>
    3854:	dfc01317 	ldw	ra,76(sp)
    3858:	dcc01217 	ldw	r19,72(sp)
    385c:	dc801117 	ldw	r18,68(sp)
    3860:	dc401017 	ldw	r17,64(sp)
    3864:	dc000f17 	ldw	r16,60(sp)
    3868:	dec01404 	addi	sp,sp,80
    386c:	f800283a 	ret
    3870:	288010c4 	addi	r2,r5,67
    3874:	28800015 	stw	r2,0(r5)
    3878:	28800415 	stw	r2,16(r5)
    387c:	00800044 	movi	r2,1
    3880:	28800515 	stw	r2,20(r5)
    3884:	f800283a 	ret
    3888:	04801004 	movi	r18,64
    388c:	003fe006 	br	3810 <__alt_mem_onchip_memory+0xf7803810>
    3890:	81000a17 	ldw	r4,40(r16)
    3894:	00c00034 	movhi	r3,0
    3898:	18d20404 	addi	r3,r3,18448
    389c:	20ffc51e 	bne	r4,r3,37b4 <__alt_mem_onchip_memory+0xf78037b4>
    38a0:	8080030b 	ldhu	r2,12(r16)
    38a4:	04810004 	movi	r18,1024
    38a8:	84801315 	stw	r18,76(r16)
    38ac:	1484b03a 	or	r2,r2,r18
    38b0:	8080030d 	sth	r2,12(r16)
    38b4:	0027883a 	mov	r19,zero
    38b8:	003fd806 	br	381c <__alt_mem_onchip_memory+0xf780381c>
    38bc:	8140038f 	ldh	r5,14(r16)
    38c0:	8809883a 	mov	r4,r17
    38c4:	0004f280 	call	4f28 <_isatty_r>
    38c8:	103fe226 	beq	r2,zero,3854 <__alt_mem_onchip_memory+0xf7803854>
    38cc:	8080030b 	ldhu	r2,12(r16)
    38d0:	10800054 	ori	r2,r2,1
    38d4:	8080030d 	sth	r2,12(r16)
    38d8:	003fde06 	br	3854 <__alt_mem_onchip_memory+0xf7803854>
    38dc:	8080030b 	ldhu	r2,12(r16)
    38e0:	10c0800c 	andi	r3,r2,512
    38e4:	183fdb1e 	bne	r3,zero,3854 <__alt_mem_onchip_memory+0xf7803854>
    38e8:	10800094 	ori	r2,r2,2
    38ec:	80c010c4 	addi	r3,r16,67
    38f0:	8080030d 	sth	r2,12(r16)
    38f4:	00800044 	movi	r2,1
    38f8:	80c00015 	stw	r3,0(r16)
    38fc:	80c00415 	stw	r3,16(r16)
    3900:	80800515 	stw	r2,20(r16)
    3904:	003fd306 	br	3854 <__alt_mem_onchip_memory+0xf7803854>
    3908:	04810004 	movi	r18,1024
    390c:	003fc306 	br	381c <__alt_mem_onchip_memory+0xf780381c>
    3910:	0027883a 	mov	r19,zero
    3914:	04810004 	movi	r18,1024
    3918:	003fc006 	br	381c <__alt_mem_onchip_memory+0xf780381c>

0000391c <malloc>:
    391c:	00800074 	movhi	r2,1
    3920:	10bb9b04 	addi	r2,r2,-4500
    3924:	200b883a 	mov	r5,r4
    3928:	11000017 	ldw	r4,0(r2)
    392c:	00039441 	jmpi	3944 <_malloc_r>

00003930 <free>:
    3930:	00800074 	movhi	r2,1
    3934:	10bb9b04 	addi	r2,r2,-4500
    3938:	200b883a 	mov	r5,r4
    393c:	11000017 	ldw	r4,0(r2)
    3940:	0002dec1 	jmpi	2dec <_free_r>

00003944 <_malloc_r>:
    3944:	defff504 	addi	sp,sp,-44
    3948:	dc800315 	stw	r18,12(sp)
    394c:	dfc00a15 	stw	ra,40(sp)
    3950:	df000915 	stw	fp,36(sp)
    3954:	ddc00815 	stw	r23,32(sp)
    3958:	dd800715 	stw	r22,28(sp)
    395c:	dd400615 	stw	r21,24(sp)
    3960:	dd000515 	stw	r20,20(sp)
    3964:	dcc00415 	stw	r19,16(sp)
    3968:	dc400215 	stw	r17,8(sp)
    396c:	dc000115 	stw	r16,4(sp)
    3970:	288002c4 	addi	r2,r5,11
    3974:	00c00584 	movi	r3,22
    3978:	2025883a 	mov	r18,r4
    397c:	18807f2e 	bgeu	r3,r2,3b7c <_malloc_r+0x238>
    3980:	047ffe04 	movi	r17,-8
    3984:	1462703a 	and	r17,r2,r17
    3988:	8800a316 	blt	r17,zero,3c18 <_malloc_r+0x2d4>
    398c:	8940a236 	bltu	r17,r5,3c18 <_malloc_r+0x2d4>
    3990:	00060640 	call	6064 <__malloc_lock>
    3994:	00807dc4 	movi	r2,503
    3998:	1441e92e 	bgeu	r2,r17,4140 <_malloc_r+0x7fc>
    399c:	8804d27a 	srli	r2,r17,9
    39a0:	1000a126 	beq	r2,zero,3c28 <_malloc_r+0x2e4>
    39a4:	00c00104 	movi	r3,4
    39a8:	18811e36 	bltu	r3,r2,3e24 <_malloc_r+0x4e0>
    39ac:	8804d1ba 	srli	r2,r17,6
    39b0:	12000e44 	addi	r8,r2,57
    39b4:	11c00e04 	addi	r7,r2,56
    39b8:	4209883a 	add	r4,r8,r8
    39bc:	04c00074 	movhi	r19,1
    39c0:	2109883a 	add	r4,r4,r4
    39c4:	9cf51504 	addi	r19,r19,-11180
    39c8:	2109883a 	add	r4,r4,r4
    39cc:	9909883a 	add	r4,r19,r4
    39d0:	24000117 	ldw	r16,4(r4)
    39d4:	213ffe04 	addi	r4,r4,-8
    39d8:	24009726 	beq	r4,r16,3c38 <_malloc_r+0x2f4>
    39dc:	80800117 	ldw	r2,4(r16)
    39e0:	01bfff04 	movi	r6,-4
    39e4:	014003c4 	movi	r5,15
    39e8:	1184703a 	and	r2,r2,r6
    39ec:	1447c83a 	sub	r3,r2,r17
    39f0:	28c00716 	blt	r5,r3,3a10 <_malloc_r+0xcc>
    39f4:	1800920e 	bge	r3,zero,3c40 <_malloc_r+0x2fc>
    39f8:	84000317 	ldw	r16,12(r16)
    39fc:	24008e26 	beq	r4,r16,3c38 <_malloc_r+0x2f4>
    3a00:	80800117 	ldw	r2,4(r16)
    3a04:	1184703a 	and	r2,r2,r6
    3a08:	1447c83a 	sub	r3,r2,r17
    3a0c:	28fff90e 	bge	r5,r3,39f4 <__alt_mem_onchip_memory+0xf78039f4>
    3a10:	3809883a 	mov	r4,r7
    3a14:	01800074 	movhi	r6,1
    3a18:	9c000417 	ldw	r16,16(r19)
    3a1c:	31b51504 	addi	r6,r6,-11180
    3a20:	32000204 	addi	r8,r6,8
    3a24:	82013426 	beq	r16,r8,3ef8 <_malloc_r+0x5b4>
    3a28:	80c00117 	ldw	r3,4(r16)
    3a2c:	00bfff04 	movi	r2,-4
    3a30:	188e703a 	and	r7,r3,r2
    3a34:	3c45c83a 	sub	r2,r7,r17
    3a38:	00c003c4 	movi	r3,15
    3a3c:	18811f16 	blt	r3,r2,3ebc <_malloc_r+0x578>
    3a40:	32000515 	stw	r8,20(r6)
    3a44:	32000415 	stw	r8,16(r6)
    3a48:	10007f0e 	bge	r2,zero,3c48 <_malloc_r+0x304>
    3a4c:	00807fc4 	movi	r2,511
    3a50:	11c0fd36 	bltu	r2,r7,3e48 <_malloc_r+0x504>
    3a54:	3806d0fa 	srli	r3,r7,3
    3a58:	01c00044 	movi	r7,1
    3a5c:	30800117 	ldw	r2,4(r6)
    3a60:	19400044 	addi	r5,r3,1
    3a64:	294b883a 	add	r5,r5,r5
    3a68:	1807d0ba 	srai	r3,r3,2
    3a6c:	294b883a 	add	r5,r5,r5
    3a70:	294b883a 	add	r5,r5,r5
    3a74:	298b883a 	add	r5,r5,r6
    3a78:	38c6983a 	sll	r3,r7,r3
    3a7c:	29c00017 	ldw	r7,0(r5)
    3a80:	2a7ffe04 	addi	r9,r5,-8
    3a84:	1886b03a 	or	r3,r3,r2
    3a88:	82400315 	stw	r9,12(r16)
    3a8c:	81c00215 	stw	r7,8(r16)
    3a90:	30c00115 	stw	r3,4(r6)
    3a94:	2c000015 	stw	r16,0(r5)
    3a98:	3c000315 	stw	r16,12(r7)
    3a9c:	2005d0ba 	srai	r2,r4,2
    3aa0:	01400044 	movi	r5,1
    3aa4:	288a983a 	sll	r5,r5,r2
    3aa8:	19406f36 	bltu	r3,r5,3c68 <_malloc_r+0x324>
    3aac:	28c4703a 	and	r2,r5,r3
    3ab0:	10000a1e 	bne	r2,zero,3adc <_malloc_r+0x198>
    3ab4:	00bfff04 	movi	r2,-4
    3ab8:	294b883a 	add	r5,r5,r5
    3abc:	2088703a 	and	r4,r4,r2
    3ac0:	28c4703a 	and	r2,r5,r3
    3ac4:	21000104 	addi	r4,r4,4
    3ac8:	1000041e 	bne	r2,zero,3adc <_malloc_r+0x198>
    3acc:	294b883a 	add	r5,r5,r5
    3ad0:	28c4703a 	and	r2,r5,r3
    3ad4:	21000104 	addi	r4,r4,4
    3ad8:	103ffc26 	beq	r2,zero,3acc <__alt_mem_onchip_memory+0xf7803acc>
    3adc:	02bfff04 	movi	r10,-4
    3ae0:	024003c4 	movi	r9,15
    3ae4:	21800044 	addi	r6,r4,1
    3ae8:	318d883a 	add	r6,r6,r6
    3aec:	318d883a 	add	r6,r6,r6
    3af0:	318d883a 	add	r6,r6,r6
    3af4:	998d883a 	add	r6,r19,r6
    3af8:	333ffe04 	addi	r12,r6,-8
    3afc:	2017883a 	mov	r11,r4
    3b00:	31800104 	addi	r6,r6,4
    3b04:	34000017 	ldw	r16,0(r6)
    3b08:	31fffd04 	addi	r7,r6,-12
    3b0c:	81c0041e 	bne	r16,r7,3b20 <_malloc_r+0x1dc>
    3b10:	0000fb06 	br	3f00 <_malloc_r+0x5bc>
    3b14:	1801030e 	bge	r3,zero,3f24 <_malloc_r+0x5e0>
    3b18:	84000317 	ldw	r16,12(r16)
    3b1c:	81c0f826 	beq	r16,r7,3f00 <_malloc_r+0x5bc>
    3b20:	80800117 	ldw	r2,4(r16)
    3b24:	1284703a 	and	r2,r2,r10
    3b28:	1447c83a 	sub	r3,r2,r17
    3b2c:	48fff90e 	bge	r9,r3,3b14 <__alt_mem_onchip_memory+0xf7803b14>
    3b30:	80800317 	ldw	r2,12(r16)
    3b34:	81000217 	ldw	r4,8(r16)
    3b38:	89400054 	ori	r5,r17,1
    3b3c:	81400115 	stw	r5,4(r16)
    3b40:	20800315 	stw	r2,12(r4)
    3b44:	11000215 	stw	r4,8(r2)
    3b48:	8463883a 	add	r17,r16,r17
    3b4c:	9c400515 	stw	r17,20(r19)
    3b50:	9c400415 	stw	r17,16(r19)
    3b54:	18800054 	ori	r2,r3,1
    3b58:	88800115 	stw	r2,4(r17)
    3b5c:	8a000315 	stw	r8,12(r17)
    3b60:	8a000215 	stw	r8,8(r17)
    3b64:	88e3883a 	add	r17,r17,r3
    3b68:	88c00015 	stw	r3,0(r17)
    3b6c:	9009883a 	mov	r4,r18
    3b70:	00060880 	call	6088 <__malloc_unlock>
    3b74:	80800204 	addi	r2,r16,8
    3b78:	00001b06 	br	3be8 <_malloc_r+0x2a4>
    3b7c:	04400404 	movi	r17,16
    3b80:	89402536 	bltu	r17,r5,3c18 <_malloc_r+0x2d4>
    3b84:	00060640 	call	6064 <__malloc_lock>
    3b88:	00800184 	movi	r2,6
    3b8c:	01000084 	movi	r4,2
    3b90:	04c00074 	movhi	r19,1
    3b94:	1085883a 	add	r2,r2,r2
    3b98:	9cf51504 	addi	r19,r19,-11180
    3b9c:	1085883a 	add	r2,r2,r2
    3ba0:	9885883a 	add	r2,r19,r2
    3ba4:	14000117 	ldw	r16,4(r2)
    3ba8:	10fffe04 	addi	r3,r2,-8
    3bac:	80c0d926 	beq	r16,r3,3f14 <_malloc_r+0x5d0>
    3bb0:	80c00117 	ldw	r3,4(r16)
    3bb4:	81000317 	ldw	r4,12(r16)
    3bb8:	00bfff04 	movi	r2,-4
    3bbc:	1884703a 	and	r2,r3,r2
    3bc0:	81400217 	ldw	r5,8(r16)
    3bc4:	8085883a 	add	r2,r16,r2
    3bc8:	10c00117 	ldw	r3,4(r2)
    3bcc:	29000315 	stw	r4,12(r5)
    3bd0:	21400215 	stw	r5,8(r4)
    3bd4:	18c00054 	ori	r3,r3,1
    3bd8:	10c00115 	stw	r3,4(r2)
    3bdc:	9009883a 	mov	r4,r18
    3be0:	00060880 	call	6088 <__malloc_unlock>
    3be4:	80800204 	addi	r2,r16,8
    3be8:	dfc00a17 	ldw	ra,40(sp)
    3bec:	df000917 	ldw	fp,36(sp)
    3bf0:	ddc00817 	ldw	r23,32(sp)
    3bf4:	dd800717 	ldw	r22,28(sp)
    3bf8:	dd400617 	ldw	r21,24(sp)
    3bfc:	dd000517 	ldw	r20,20(sp)
    3c00:	dcc00417 	ldw	r19,16(sp)
    3c04:	dc800317 	ldw	r18,12(sp)
    3c08:	dc400217 	ldw	r17,8(sp)
    3c0c:	dc000117 	ldw	r16,4(sp)
    3c10:	dec00b04 	addi	sp,sp,44
    3c14:	f800283a 	ret
    3c18:	00800304 	movi	r2,12
    3c1c:	90800015 	stw	r2,0(r18)
    3c20:	0005883a 	mov	r2,zero
    3c24:	003ff006 	br	3be8 <__alt_mem_onchip_memory+0xf7803be8>
    3c28:	01002004 	movi	r4,128
    3c2c:	02001004 	movi	r8,64
    3c30:	01c00fc4 	movi	r7,63
    3c34:	003f6106 	br	39bc <__alt_mem_onchip_memory+0xf78039bc>
    3c38:	4009883a 	mov	r4,r8
    3c3c:	003f7506 	br	3a14 <__alt_mem_onchip_memory+0xf7803a14>
    3c40:	81000317 	ldw	r4,12(r16)
    3c44:	003fde06 	br	3bc0 <__alt_mem_onchip_memory+0xf7803bc0>
    3c48:	81c5883a 	add	r2,r16,r7
    3c4c:	11400117 	ldw	r5,4(r2)
    3c50:	9009883a 	mov	r4,r18
    3c54:	29400054 	ori	r5,r5,1
    3c58:	11400115 	stw	r5,4(r2)
    3c5c:	00060880 	call	6088 <__malloc_unlock>
    3c60:	80800204 	addi	r2,r16,8
    3c64:	003fe006 	br	3be8 <__alt_mem_onchip_memory+0xf7803be8>
    3c68:	9c000217 	ldw	r16,8(r19)
    3c6c:	00bfff04 	movi	r2,-4
    3c70:	85800117 	ldw	r22,4(r16)
    3c74:	b0ac703a 	and	r22,r22,r2
    3c78:	b4400336 	bltu	r22,r17,3c88 <_malloc_r+0x344>
    3c7c:	b445c83a 	sub	r2,r22,r17
    3c80:	00c003c4 	movi	r3,15
    3c84:	18805d16 	blt	r3,r2,3dfc <_malloc_r+0x4b8>
    3c88:	05c00074 	movhi	r23,1
    3c8c:	00800074 	movhi	r2,1
    3c90:	10834b04 	addi	r2,r2,3372
    3c94:	bdfb9c04 	addi	r23,r23,-4496
    3c98:	15400017 	ldw	r21,0(r2)
    3c9c:	b8c00017 	ldw	r3,0(r23)
    3ca0:	00bfffc4 	movi	r2,-1
    3ca4:	858d883a 	add	r6,r16,r22
    3ca8:	8d6b883a 	add	r21,r17,r21
    3cac:	1880ea26 	beq	r3,r2,4058 <_malloc_r+0x714>
    3cb0:	ad4403c4 	addi	r21,r21,4111
    3cb4:	00bc0004 	movi	r2,-4096
    3cb8:	a8aa703a 	and	r21,r21,r2
    3cbc:	a80b883a 	mov	r5,r21
    3cc0:	9009883a 	mov	r4,r18
    3cc4:	d9800015 	stw	r6,0(sp)
    3cc8:	00046e40 	call	46e4 <_sbrk_r>
    3ccc:	1029883a 	mov	r20,r2
    3cd0:	00bfffc4 	movi	r2,-1
    3cd4:	d9800017 	ldw	r6,0(sp)
    3cd8:	a080e826 	beq	r20,r2,407c <_malloc_r+0x738>
    3cdc:	a180a636 	bltu	r20,r6,3f78 <_malloc_r+0x634>
    3ce0:	07000074 	movhi	fp,1
    3ce4:	e7035304 	addi	fp,fp,3404
    3ce8:	e0800017 	ldw	r2,0(fp)
    3cec:	a887883a 	add	r3,r21,r2
    3cf0:	e0c00015 	stw	r3,0(fp)
    3cf4:	3500e626 	beq	r6,r20,4090 <_malloc_r+0x74c>
    3cf8:	b9000017 	ldw	r4,0(r23)
    3cfc:	00bfffc4 	movi	r2,-1
    3d00:	2080ee26 	beq	r4,r2,40bc <_malloc_r+0x778>
    3d04:	a185c83a 	sub	r2,r20,r6
    3d08:	10c5883a 	add	r2,r2,r3
    3d0c:	e0800015 	stw	r2,0(fp)
    3d10:	a0c001cc 	andi	r3,r20,7
    3d14:	1800bc26 	beq	r3,zero,4008 <_malloc_r+0x6c4>
    3d18:	a0e9c83a 	sub	r20,r20,r3
    3d1c:	00840204 	movi	r2,4104
    3d20:	a5000204 	addi	r20,r20,8
    3d24:	10c7c83a 	sub	r3,r2,r3
    3d28:	a545883a 	add	r2,r20,r21
    3d2c:	1083ffcc 	andi	r2,r2,4095
    3d30:	18abc83a 	sub	r21,r3,r2
    3d34:	a80b883a 	mov	r5,r21
    3d38:	9009883a 	mov	r4,r18
    3d3c:	00046e40 	call	46e4 <_sbrk_r>
    3d40:	00ffffc4 	movi	r3,-1
    3d44:	10c0e126 	beq	r2,r3,40cc <_malloc_r+0x788>
    3d48:	1505c83a 	sub	r2,r2,r20
    3d4c:	1545883a 	add	r2,r2,r21
    3d50:	10800054 	ori	r2,r2,1
    3d54:	e0c00017 	ldw	r3,0(fp)
    3d58:	9d000215 	stw	r20,8(r19)
    3d5c:	a0800115 	stw	r2,4(r20)
    3d60:	a8c7883a 	add	r3,r21,r3
    3d64:	e0c00015 	stw	r3,0(fp)
    3d68:	84c00e26 	beq	r16,r19,3da4 <_malloc_r+0x460>
    3d6c:	018003c4 	movi	r6,15
    3d70:	3580a72e 	bgeu	r6,r22,4010 <_malloc_r+0x6cc>
    3d74:	81400117 	ldw	r5,4(r16)
    3d78:	013ffe04 	movi	r4,-8
    3d7c:	b0bffd04 	addi	r2,r22,-12
    3d80:	1104703a 	and	r2,r2,r4
    3d84:	2900004c 	andi	r4,r5,1
    3d88:	2088b03a 	or	r4,r4,r2
    3d8c:	81000115 	stw	r4,4(r16)
    3d90:	01400144 	movi	r5,5
    3d94:	8089883a 	add	r4,r16,r2
    3d98:	21400115 	stw	r5,4(r4)
    3d9c:	21400215 	stw	r5,8(r4)
    3da0:	3080cd36 	bltu	r6,r2,40d8 <_malloc_r+0x794>
    3da4:	00800074 	movhi	r2,1
    3da8:	10834a04 	addi	r2,r2,3368
    3dac:	11000017 	ldw	r4,0(r2)
    3db0:	20c0012e 	bgeu	r4,r3,3db8 <_malloc_r+0x474>
    3db4:	10c00015 	stw	r3,0(r2)
    3db8:	00800074 	movhi	r2,1
    3dbc:	10834904 	addi	r2,r2,3364
    3dc0:	11000017 	ldw	r4,0(r2)
    3dc4:	9c000217 	ldw	r16,8(r19)
    3dc8:	20c0012e 	bgeu	r4,r3,3dd0 <_malloc_r+0x48c>
    3dcc:	10c00015 	stw	r3,0(r2)
    3dd0:	80c00117 	ldw	r3,4(r16)
    3dd4:	00bfff04 	movi	r2,-4
    3dd8:	1886703a 	and	r3,r3,r2
    3ddc:	1c45c83a 	sub	r2,r3,r17
    3de0:	1c400236 	bltu	r3,r17,3dec <_malloc_r+0x4a8>
    3de4:	00c003c4 	movi	r3,15
    3de8:	18800416 	blt	r3,r2,3dfc <_malloc_r+0x4b8>
    3dec:	9009883a 	mov	r4,r18
    3df0:	00060880 	call	6088 <__malloc_unlock>
    3df4:	0005883a 	mov	r2,zero
    3df8:	003f7b06 	br	3be8 <__alt_mem_onchip_memory+0xf7803be8>
    3dfc:	88c00054 	ori	r3,r17,1
    3e00:	80c00115 	stw	r3,4(r16)
    3e04:	8463883a 	add	r17,r16,r17
    3e08:	10800054 	ori	r2,r2,1
    3e0c:	9c400215 	stw	r17,8(r19)
    3e10:	88800115 	stw	r2,4(r17)
    3e14:	9009883a 	mov	r4,r18
    3e18:	00060880 	call	6088 <__malloc_unlock>
    3e1c:	80800204 	addi	r2,r16,8
    3e20:	003f7106 	br	3be8 <__alt_mem_onchip_memory+0xf7803be8>
    3e24:	00c00504 	movi	r3,20
    3e28:	18804a2e 	bgeu	r3,r2,3f54 <_malloc_r+0x610>
    3e2c:	00c01504 	movi	r3,84
    3e30:	18806e36 	bltu	r3,r2,3fec <_malloc_r+0x6a8>
    3e34:	8804d33a 	srli	r2,r17,12
    3e38:	12001bc4 	addi	r8,r2,111
    3e3c:	11c01b84 	addi	r7,r2,110
    3e40:	4209883a 	add	r4,r8,r8
    3e44:	003edd06 	br	39bc <__alt_mem_onchip_memory+0xf78039bc>
    3e48:	3804d27a 	srli	r2,r7,9
    3e4c:	00c00104 	movi	r3,4
    3e50:	1880442e 	bgeu	r3,r2,3f64 <_malloc_r+0x620>
    3e54:	00c00504 	movi	r3,20
    3e58:	18808136 	bltu	r3,r2,4060 <_malloc_r+0x71c>
    3e5c:	11401704 	addi	r5,r2,92
    3e60:	10c016c4 	addi	r3,r2,91
    3e64:	294b883a 	add	r5,r5,r5
    3e68:	294b883a 	add	r5,r5,r5
    3e6c:	294b883a 	add	r5,r5,r5
    3e70:	994b883a 	add	r5,r19,r5
    3e74:	28800017 	ldw	r2,0(r5)
    3e78:	01800074 	movhi	r6,1
    3e7c:	297ffe04 	addi	r5,r5,-8
    3e80:	31b51504 	addi	r6,r6,-11180
    3e84:	28806526 	beq	r5,r2,401c <_malloc_r+0x6d8>
    3e88:	01bfff04 	movi	r6,-4
    3e8c:	10c00117 	ldw	r3,4(r2)
    3e90:	1986703a 	and	r3,r3,r6
    3e94:	38c0022e 	bgeu	r7,r3,3ea0 <_malloc_r+0x55c>
    3e98:	10800217 	ldw	r2,8(r2)
    3e9c:	28bffb1e 	bne	r5,r2,3e8c <__alt_mem_onchip_memory+0xf7803e8c>
    3ea0:	11400317 	ldw	r5,12(r2)
    3ea4:	98c00117 	ldw	r3,4(r19)
    3ea8:	81400315 	stw	r5,12(r16)
    3eac:	80800215 	stw	r2,8(r16)
    3eb0:	2c000215 	stw	r16,8(r5)
    3eb4:	14000315 	stw	r16,12(r2)
    3eb8:	003ef806 	br	3a9c <__alt_mem_onchip_memory+0xf7803a9c>
    3ebc:	88c00054 	ori	r3,r17,1
    3ec0:	80c00115 	stw	r3,4(r16)
    3ec4:	8463883a 	add	r17,r16,r17
    3ec8:	34400515 	stw	r17,20(r6)
    3ecc:	34400415 	stw	r17,16(r6)
    3ed0:	10c00054 	ori	r3,r2,1
    3ed4:	8a000315 	stw	r8,12(r17)
    3ed8:	8a000215 	stw	r8,8(r17)
    3edc:	88c00115 	stw	r3,4(r17)
    3ee0:	88a3883a 	add	r17,r17,r2
    3ee4:	88800015 	stw	r2,0(r17)
    3ee8:	9009883a 	mov	r4,r18
    3eec:	00060880 	call	6088 <__malloc_unlock>
    3ef0:	80800204 	addi	r2,r16,8
    3ef4:	003f3c06 	br	3be8 <__alt_mem_onchip_memory+0xf7803be8>
    3ef8:	30c00117 	ldw	r3,4(r6)
    3efc:	003ee706 	br	3a9c <__alt_mem_onchip_memory+0xf7803a9c>
    3f00:	5ac00044 	addi	r11,r11,1
    3f04:	588000cc 	andi	r2,r11,3
    3f08:	31800204 	addi	r6,r6,8
    3f0c:	103efd1e 	bne	r2,zero,3b04 <__alt_mem_onchip_memory+0xf7803b04>
    3f10:	00002406 	br	3fa4 <_malloc_r+0x660>
    3f14:	14000317 	ldw	r16,12(r2)
    3f18:	143f251e 	bne	r2,r16,3bb0 <__alt_mem_onchip_memory+0xf7803bb0>
    3f1c:	21000084 	addi	r4,r4,2
    3f20:	003ebc06 	br	3a14 <__alt_mem_onchip_memory+0xf7803a14>
    3f24:	8085883a 	add	r2,r16,r2
    3f28:	10c00117 	ldw	r3,4(r2)
    3f2c:	81000317 	ldw	r4,12(r16)
    3f30:	81400217 	ldw	r5,8(r16)
    3f34:	18c00054 	ori	r3,r3,1
    3f38:	10c00115 	stw	r3,4(r2)
    3f3c:	29000315 	stw	r4,12(r5)
    3f40:	21400215 	stw	r5,8(r4)
    3f44:	9009883a 	mov	r4,r18
    3f48:	00060880 	call	6088 <__malloc_unlock>
    3f4c:	80800204 	addi	r2,r16,8
    3f50:	003f2506 	br	3be8 <__alt_mem_onchip_memory+0xf7803be8>
    3f54:	12001704 	addi	r8,r2,92
    3f58:	11c016c4 	addi	r7,r2,91
    3f5c:	4209883a 	add	r4,r8,r8
    3f60:	003e9606 	br	39bc <__alt_mem_onchip_memory+0xf78039bc>
    3f64:	3804d1ba 	srli	r2,r7,6
    3f68:	11400e44 	addi	r5,r2,57
    3f6c:	10c00e04 	addi	r3,r2,56
    3f70:	294b883a 	add	r5,r5,r5
    3f74:	003fbc06 	br	3e68 <__alt_mem_onchip_memory+0xf7803e68>
    3f78:	84ff5926 	beq	r16,r19,3ce0 <__alt_mem_onchip_memory+0xf7803ce0>
    3f7c:	00800074 	movhi	r2,1
    3f80:	10b51504 	addi	r2,r2,-11180
    3f84:	14000217 	ldw	r16,8(r2)
    3f88:	00bfff04 	movi	r2,-4
    3f8c:	80c00117 	ldw	r3,4(r16)
    3f90:	1886703a 	and	r3,r3,r2
    3f94:	003f9106 	br	3ddc <__alt_mem_onchip_memory+0xf7803ddc>
    3f98:	60800217 	ldw	r2,8(r12)
    3f9c:	213fffc4 	addi	r4,r4,-1
    3fa0:	1300651e 	bne	r2,r12,4138 <_malloc_r+0x7f4>
    3fa4:	208000cc 	andi	r2,r4,3
    3fa8:	633ffe04 	addi	r12,r12,-8
    3fac:	103ffa1e 	bne	r2,zero,3f98 <__alt_mem_onchip_memory+0xf7803f98>
    3fb0:	98800117 	ldw	r2,4(r19)
    3fb4:	0146303a 	nor	r3,zero,r5
    3fb8:	1884703a 	and	r2,r3,r2
    3fbc:	98800115 	stw	r2,4(r19)
    3fc0:	294b883a 	add	r5,r5,r5
    3fc4:	117f2836 	bltu	r2,r5,3c68 <__alt_mem_onchip_memory+0xf7803c68>
    3fc8:	283f2726 	beq	r5,zero,3c68 <__alt_mem_onchip_memory+0xf7803c68>
    3fcc:	2886703a 	and	r3,r5,r2
    3fd0:	5809883a 	mov	r4,r11
    3fd4:	183ec31e 	bne	r3,zero,3ae4 <__alt_mem_onchip_memory+0xf7803ae4>
    3fd8:	294b883a 	add	r5,r5,r5
    3fdc:	2886703a 	and	r3,r5,r2
    3fe0:	21000104 	addi	r4,r4,4
    3fe4:	183ffc26 	beq	r3,zero,3fd8 <__alt_mem_onchip_memory+0xf7803fd8>
    3fe8:	003ebe06 	br	3ae4 <__alt_mem_onchip_memory+0xf7803ae4>
    3fec:	00c05504 	movi	r3,340
    3ff0:	18801236 	bltu	r3,r2,403c <_malloc_r+0x6f8>
    3ff4:	8804d3fa 	srli	r2,r17,15
    3ff8:	12001e04 	addi	r8,r2,120
    3ffc:	11c01dc4 	addi	r7,r2,119
    4000:	4209883a 	add	r4,r8,r8
    4004:	003e6d06 	br	39bc <__alt_mem_onchip_memory+0xf78039bc>
    4008:	00c40004 	movi	r3,4096
    400c:	003f4606 	br	3d28 <__alt_mem_onchip_memory+0xf7803d28>
    4010:	00800044 	movi	r2,1
    4014:	a0800115 	stw	r2,4(r20)
    4018:	003f7406 	br	3dec <__alt_mem_onchip_memory+0xf7803dec>
    401c:	1805d0ba 	srai	r2,r3,2
    4020:	01c00044 	movi	r7,1
    4024:	30c00117 	ldw	r3,4(r6)
    4028:	388e983a 	sll	r7,r7,r2
    402c:	2805883a 	mov	r2,r5
    4030:	38c6b03a 	or	r3,r7,r3
    4034:	30c00115 	stw	r3,4(r6)
    4038:	003f9b06 	br	3ea8 <__alt_mem_onchip_memory+0xf7803ea8>
    403c:	00c15504 	movi	r3,1364
    4040:	18801a36 	bltu	r3,r2,40ac <_malloc_r+0x768>
    4044:	8804d4ba 	srli	r2,r17,18
    4048:	12001f44 	addi	r8,r2,125
    404c:	11c01f04 	addi	r7,r2,124
    4050:	4209883a 	add	r4,r8,r8
    4054:	003e5906 	br	39bc <__alt_mem_onchip_memory+0xf78039bc>
    4058:	ad400404 	addi	r21,r21,16
    405c:	003f1706 	br	3cbc <__alt_mem_onchip_memory+0xf7803cbc>
    4060:	00c01504 	movi	r3,84
    4064:	18802336 	bltu	r3,r2,40f4 <_malloc_r+0x7b0>
    4068:	3804d33a 	srli	r2,r7,12
    406c:	11401bc4 	addi	r5,r2,111
    4070:	10c01b84 	addi	r3,r2,110
    4074:	294b883a 	add	r5,r5,r5
    4078:	003f7b06 	br	3e68 <__alt_mem_onchip_memory+0xf7803e68>
    407c:	9c000217 	ldw	r16,8(r19)
    4080:	00bfff04 	movi	r2,-4
    4084:	80c00117 	ldw	r3,4(r16)
    4088:	1886703a 	and	r3,r3,r2
    408c:	003f5306 	br	3ddc <__alt_mem_onchip_memory+0xf7803ddc>
    4090:	3083ffcc 	andi	r2,r6,4095
    4094:	103f181e 	bne	r2,zero,3cf8 <__alt_mem_onchip_memory+0xf7803cf8>
    4098:	99000217 	ldw	r4,8(r19)
    409c:	b545883a 	add	r2,r22,r21
    40a0:	10800054 	ori	r2,r2,1
    40a4:	20800115 	stw	r2,4(r4)
    40a8:	003f3e06 	br	3da4 <__alt_mem_onchip_memory+0xf7803da4>
    40ac:	01003f84 	movi	r4,254
    40b0:	02001fc4 	movi	r8,127
    40b4:	01c01f84 	movi	r7,126
    40b8:	003e4006 	br	39bc <__alt_mem_onchip_memory+0xf78039bc>
    40bc:	00800074 	movhi	r2,1
    40c0:	10bb9c04 	addi	r2,r2,-4496
    40c4:	15000015 	stw	r20,0(r2)
    40c8:	003f1106 	br	3d10 <__alt_mem_onchip_memory+0xf7803d10>
    40cc:	00800044 	movi	r2,1
    40d0:	002b883a 	mov	r21,zero
    40d4:	003f1f06 	br	3d54 <__alt_mem_onchip_memory+0xf7803d54>
    40d8:	81400204 	addi	r5,r16,8
    40dc:	9009883a 	mov	r4,r18
    40e0:	0002dec0 	call	2dec <_free_r>
    40e4:	00800074 	movhi	r2,1
    40e8:	10835304 	addi	r2,r2,3404
    40ec:	10c00017 	ldw	r3,0(r2)
    40f0:	003f2c06 	br	3da4 <__alt_mem_onchip_memory+0xf7803da4>
    40f4:	00c05504 	movi	r3,340
    40f8:	18800536 	bltu	r3,r2,4110 <_malloc_r+0x7cc>
    40fc:	3804d3fa 	srli	r2,r7,15
    4100:	11401e04 	addi	r5,r2,120
    4104:	10c01dc4 	addi	r3,r2,119
    4108:	294b883a 	add	r5,r5,r5
    410c:	003f5606 	br	3e68 <__alt_mem_onchip_memory+0xf7803e68>
    4110:	00c15504 	movi	r3,1364
    4114:	18800536 	bltu	r3,r2,412c <_malloc_r+0x7e8>
    4118:	3804d4ba 	srli	r2,r7,18
    411c:	11401f44 	addi	r5,r2,125
    4120:	10c01f04 	addi	r3,r2,124
    4124:	294b883a 	add	r5,r5,r5
    4128:	003f4f06 	br	3e68 <__alt_mem_onchip_memory+0xf7803e68>
    412c:	01403f84 	movi	r5,254
    4130:	00c01f84 	movi	r3,126
    4134:	003f4c06 	br	3e68 <__alt_mem_onchip_memory+0xf7803e68>
    4138:	98800117 	ldw	r2,4(r19)
    413c:	003fa006 	br	3fc0 <__alt_mem_onchip_memory+0xf7803fc0>
    4140:	8808d0fa 	srli	r4,r17,3
    4144:	20800044 	addi	r2,r4,1
    4148:	1085883a 	add	r2,r2,r2
    414c:	003e9006 	br	3b90 <__alt_mem_onchip_memory+0xf7803b90>

00004150 <memcpy>:
    4150:	defffd04 	addi	sp,sp,-12
    4154:	dfc00215 	stw	ra,8(sp)
    4158:	dc400115 	stw	r17,4(sp)
    415c:	dc000015 	stw	r16,0(sp)
    4160:	00c003c4 	movi	r3,15
    4164:	2005883a 	mov	r2,r4
    4168:	1980452e 	bgeu	r3,r6,4280 <memcpy+0x130>
    416c:	2906b03a 	or	r3,r5,r4
    4170:	18c000cc 	andi	r3,r3,3
    4174:	1800441e 	bne	r3,zero,4288 <memcpy+0x138>
    4178:	347ffc04 	addi	r17,r6,-16
    417c:	8822d13a 	srli	r17,r17,4
    4180:	28c00104 	addi	r3,r5,4
    4184:	23400104 	addi	r13,r4,4
    4188:	8820913a 	slli	r16,r17,4
    418c:	2b000204 	addi	r12,r5,8
    4190:	22c00204 	addi	r11,r4,8
    4194:	84000504 	addi	r16,r16,20
    4198:	2a800304 	addi	r10,r5,12
    419c:	22400304 	addi	r9,r4,12
    41a0:	2c21883a 	add	r16,r5,r16
    41a4:	2811883a 	mov	r8,r5
    41a8:	200f883a 	mov	r7,r4
    41ac:	41000017 	ldw	r4,0(r8)
    41b0:	1fc00017 	ldw	ra,0(r3)
    41b4:	63c00017 	ldw	r15,0(r12)
    41b8:	39000015 	stw	r4,0(r7)
    41bc:	53800017 	ldw	r14,0(r10)
    41c0:	6fc00015 	stw	ra,0(r13)
    41c4:	5bc00015 	stw	r15,0(r11)
    41c8:	4b800015 	stw	r14,0(r9)
    41cc:	18c00404 	addi	r3,r3,16
    41d0:	39c00404 	addi	r7,r7,16
    41d4:	42000404 	addi	r8,r8,16
    41d8:	6b400404 	addi	r13,r13,16
    41dc:	63000404 	addi	r12,r12,16
    41e0:	5ac00404 	addi	r11,r11,16
    41e4:	52800404 	addi	r10,r10,16
    41e8:	4a400404 	addi	r9,r9,16
    41ec:	1c3fef1e 	bne	r3,r16,41ac <__alt_mem_onchip_memory+0xf78041ac>
    41f0:	89c00044 	addi	r7,r17,1
    41f4:	380e913a 	slli	r7,r7,4
    41f8:	310003cc 	andi	r4,r6,15
    41fc:	02c000c4 	movi	r11,3
    4200:	11c7883a 	add	r3,r2,r7
    4204:	29cb883a 	add	r5,r5,r7
    4208:	5900212e 	bgeu	r11,r4,4290 <memcpy+0x140>
    420c:	1813883a 	mov	r9,r3
    4210:	2811883a 	mov	r8,r5
    4214:	200f883a 	mov	r7,r4
    4218:	42800017 	ldw	r10,0(r8)
    421c:	4a400104 	addi	r9,r9,4
    4220:	39ffff04 	addi	r7,r7,-4
    4224:	4abfff15 	stw	r10,-4(r9)
    4228:	42000104 	addi	r8,r8,4
    422c:	59fffa36 	bltu	r11,r7,4218 <__alt_mem_onchip_memory+0xf7804218>
    4230:	213fff04 	addi	r4,r4,-4
    4234:	2008d0ba 	srli	r4,r4,2
    4238:	318000cc 	andi	r6,r6,3
    423c:	21000044 	addi	r4,r4,1
    4240:	2109883a 	add	r4,r4,r4
    4244:	2109883a 	add	r4,r4,r4
    4248:	1907883a 	add	r3,r3,r4
    424c:	290b883a 	add	r5,r5,r4
    4250:	30000626 	beq	r6,zero,426c <memcpy+0x11c>
    4254:	198d883a 	add	r6,r3,r6
    4258:	29c00003 	ldbu	r7,0(r5)
    425c:	18c00044 	addi	r3,r3,1
    4260:	29400044 	addi	r5,r5,1
    4264:	19ffffc5 	stb	r7,-1(r3)
    4268:	19bffb1e 	bne	r3,r6,4258 <__alt_mem_onchip_memory+0xf7804258>
    426c:	dfc00217 	ldw	ra,8(sp)
    4270:	dc400117 	ldw	r17,4(sp)
    4274:	dc000017 	ldw	r16,0(sp)
    4278:	dec00304 	addi	sp,sp,12
    427c:	f800283a 	ret
    4280:	2007883a 	mov	r3,r4
    4284:	003ff206 	br	4250 <__alt_mem_onchip_memory+0xf7804250>
    4288:	2007883a 	mov	r3,r4
    428c:	003ff106 	br	4254 <__alt_mem_onchip_memory+0xf7804254>
    4290:	200d883a 	mov	r6,r4
    4294:	003fee06 	br	4250 <__alt_mem_onchip_memory+0xf7804250>

00004298 <memset>:
    4298:	20c000cc 	andi	r3,r4,3
    429c:	2005883a 	mov	r2,r4
    42a0:	18004426 	beq	r3,zero,43b4 <memset+0x11c>
    42a4:	31ffffc4 	addi	r7,r6,-1
    42a8:	30004026 	beq	r6,zero,43ac <memset+0x114>
    42ac:	2813883a 	mov	r9,r5
    42b0:	200d883a 	mov	r6,r4
    42b4:	2007883a 	mov	r3,r4
    42b8:	00000406 	br	42cc <memset+0x34>
    42bc:	3a3fffc4 	addi	r8,r7,-1
    42c0:	31800044 	addi	r6,r6,1
    42c4:	38003926 	beq	r7,zero,43ac <memset+0x114>
    42c8:	400f883a 	mov	r7,r8
    42cc:	18c00044 	addi	r3,r3,1
    42d0:	32400005 	stb	r9,0(r6)
    42d4:	1a0000cc 	andi	r8,r3,3
    42d8:	403ff81e 	bne	r8,zero,42bc <__alt_mem_onchip_memory+0xf78042bc>
    42dc:	010000c4 	movi	r4,3
    42e0:	21c02d2e 	bgeu	r4,r7,4398 <memset+0x100>
    42e4:	29003fcc 	andi	r4,r5,255
    42e8:	200c923a 	slli	r6,r4,8
    42ec:	3108b03a 	or	r4,r6,r4
    42f0:	200c943a 	slli	r6,r4,16
    42f4:	218cb03a 	or	r6,r4,r6
    42f8:	010003c4 	movi	r4,15
    42fc:	21c0182e 	bgeu	r4,r7,4360 <memset+0xc8>
    4300:	3b3ffc04 	addi	r12,r7,-16
    4304:	6018d13a 	srli	r12,r12,4
    4308:	1a000104 	addi	r8,r3,4
    430c:	1ac00204 	addi	r11,r3,8
    4310:	6008913a 	slli	r4,r12,4
    4314:	1a800304 	addi	r10,r3,12
    4318:	1813883a 	mov	r9,r3
    431c:	21000504 	addi	r4,r4,20
    4320:	1909883a 	add	r4,r3,r4
    4324:	49800015 	stw	r6,0(r9)
    4328:	41800015 	stw	r6,0(r8)
    432c:	59800015 	stw	r6,0(r11)
    4330:	51800015 	stw	r6,0(r10)
    4334:	42000404 	addi	r8,r8,16
    4338:	4a400404 	addi	r9,r9,16
    433c:	5ac00404 	addi	r11,r11,16
    4340:	52800404 	addi	r10,r10,16
    4344:	413ff71e 	bne	r8,r4,4324 <__alt_mem_onchip_memory+0xf7804324>
    4348:	63000044 	addi	r12,r12,1
    434c:	6018913a 	slli	r12,r12,4
    4350:	39c003cc 	andi	r7,r7,15
    4354:	010000c4 	movi	r4,3
    4358:	1b07883a 	add	r3,r3,r12
    435c:	21c00e2e 	bgeu	r4,r7,4398 <memset+0x100>
    4360:	1813883a 	mov	r9,r3
    4364:	3811883a 	mov	r8,r7
    4368:	010000c4 	movi	r4,3
    436c:	49800015 	stw	r6,0(r9)
    4370:	423fff04 	addi	r8,r8,-4
    4374:	4a400104 	addi	r9,r9,4
    4378:	223ffc36 	bltu	r4,r8,436c <__alt_mem_onchip_memory+0xf780436c>
    437c:	393fff04 	addi	r4,r7,-4
    4380:	2008d0ba 	srli	r4,r4,2
    4384:	39c000cc 	andi	r7,r7,3
    4388:	21000044 	addi	r4,r4,1
    438c:	2109883a 	add	r4,r4,r4
    4390:	2109883a 	add	r4,r4,r4
    4394:	1907883a 	add	r3,r3,r4
    4398:	38000526 	beq	r7,zero,43b0 <memset+0x118>
    439c:	19cf883a 	add	r7,r3,r7
    43a0:	19400005 	stb	r5,0(r3)
    43a4:	18c00044 	addi	r3,r3,1
    43a8:	38fffd1e 	bne	r7,r3,43a0 <__alt_mem_onchip_memory+0xf78043a0>
    43ac:	f800283a 	ret
    43b0:	f800283a 	ret
    43b4:	2007883a 	mov	r3,r4
    43b8:	300f883a 	mov	r7,r6
    43bc:	003fc706 	br	42dc <__alt_mem_onchip_memory+0xf78042dc>

000043c0 <_open_r>:
    43c0:	defffd04 	addi	sp,sp,-12
    43c4:	2805883a 	mov	r2,r5
    43c8:	dc000015 	stw	r16,0(sp)
    43cc:	04000074 	movhi	r16,1
    43d0:	dc400115 	stw	r17,4(sp)
    43d4:	300b883a 	mov	r5,r6
    43d8:	84034804 	addi	r16,r16,3360
    43dc:	2023883a 	mov	r17,r4
    43e0:	380d883a 	mov	r6,r7
    43e4:	1009883a 	mov	r4,r2
    43e8:	dfc00215 	stw	ra,8(sp)
    43ec:	80000015 	stw	zero,0(r16)
    43f0:	00061ac0 	call	61ac <open>
    43f4:	00ffffc4 	movi	r3,-1
    43f8:	10c00526 	beq	r2,r3,4410 <_open_r+0x50>
    43fc:	dfc00217 	ldw	ra,8(sp)
    4400:	dc400117 	ldw	r17,4(sp)
    4404:	dc000017 	ldw	r16,0(sp)
    4408:	dec00304 	addi	sp,sp,12
    440c:	f800283a 	ret
    4410:	80c00017 	ldw	r3,0(r16)
    4414:	183ff926 	beq	r3,zero,43fc <__alt_mem_onchip_memory+0xf78043fc>
    4418:	88c00015 	stw	r3,0(r17)
    441c:	003ff706 	br	43fc <__alt_mem_onchip_memory+0xf78043fc>

00004420 <_puts_r>:
    4420:	defff604 	addi	sp,sp,-40
    4424:	dc000715 	stw	r16,28(sp)
    4428:	2021883a 	mov	r16,r4
    442c:	2809883a 	mov	r4,r5
    4430:	dc400815 	stw	r17,32(sp)
    4434:	dfc00915 	stw	ra,36(sp)
    4438:	2823883a 	mov	r17,r5
    443c:	00048740 	call	4874 <strlen>
    4440:	10c00044 	addi	r3,r2,1
    4444:	d8800115 	stw	r2,4(sp)
    4448:	00800074 	movhi	r2,1
    444c:	10b3a604 	addi	r2,r2,-12648
    4450:	d8800215 	stw	r2,8(sp)
    4454:	00800044 	movi	r2,1
    4458:	d8800315 	stw	r2,12(sp)
    445c:	00800084 	movi	r2,2
    4460:	dc400015 	stw	r17,0(sp)
    4464:	d8c00615 	stw	r3,24(sp)
    4468:	dec00415 	stw	sp,16(sp)
    446c:	d8800515 	stw	r2,20(sp)
    4470:	80000226 	beq	r16,zero,447c <_puts_r+0x5c>
    4474:	80800e17 	ldw	r2,56(r16)
    4478:	10001426 	beq	r2,zero,44cc <_puts_r+0xac>
    447c:	81400217 	ldw	r5,8(r16)
    4480:	2880030b 	ldhu	r2,12(r5)
    4484:	10c8000c 	andi	r3,r2,8192
    4488:	1800061e 	bne	r3,zero,44a4 <_puts_r+0x84>
    448c:	29001917 	ldw	r4,100(r5)
    4490:	00f7ffc4 	movi	r3,-8193
    4494:	10880014 	ori	r2,r2,8192
    4498:	20c6703a 	and	r3,r4,r3
    449c:	2880030d 	sth	r2,12(r5)
    44a0:	28c01915 	stw	r3,100(r5)
    44a4:	d9800404 	addi	r6,sp,16
    44a8:	8009883a 	mov	r4,r16
    44ac:	0004a6c0 	call	4a6c <__sfvwrite_r>
    44b0:	1000091e 	bne	r2,zero,44d8 <_puts_r+0xb8>
    44b4:	00800284 	movi	r2,10
    44b8:	dfc00917 	ldw	ra,36(sp)
    44bc:	dc400817 	ldw	r17,32(sp)
    44c0:	dc000717 	ldw	r16,28(sp)
    44c4:	dec00a04 	addi	sp,sp,40
    44c8:	f800283a 	ret
    44cc:	8009883a 	mov	r4,r16
    44d0:	000290c0 	call	290c <__sinit>
    44d4:	003fe906 	br	447c <__alt_mem_onchip_memory+0xf780447c>
    44d8:	00bfffc4 	movi	r2,-1
    44dc:	003ff606 	br	44b8 <__alt_mem_onchip_memory+0xf78044b8>

000044e0 <puts>:
    44e0:	00800074 	movhi	r2,1
    44e4:	10bb9b04 	addi	r2,r2,-4500
    44e8:	200b883a 	mov	r5,r4
    44ec:	11000017 	ldw	r4,0(r2)
    44f0:	00044201 	jmpi	4420 <_puts_r>

000044f4 <lflush>:
    44f4:	2080030b 	ldhu	r2,12(r4)
    44f8:	00c00244 	movi	r3,9
    44fc:	1080024c 	andi	r2,r2,9
    4500:	10c00226 	beq	r2,r3,450c <lflush+0x18>
    4504:	0005883a 	mov	r2,zero
    4508:	f800283a 	ret
    450c:	000258c1 	jmpi	258c <fflush>

00004510 <__srefill_r>:
    4510:	defffc04 	addi	sp,sp,-16
    4514:	dc400115 	stw	r17,4(sp)
    4518:	dc000015 	stw	r16,0(sp)
    451c:	dfc00315 	stw	ra,12(sp)
    4520:	dc800215 	stw	r18,8(sp)
    4524:	2023883a 	mov	r17,r4
    4528:	2821883a 	mov	r16,r5
    452c:	20000226 	beq	r4,zero,4538 <__srefill_r+0x28>
    4530:	20800e17 	ldw	r2,56(r4)
    4534:	10003c26 	beq	r2,zero,4628 <__srefill_r+0x118>
    4538:	80c0030b 	ldhu	r3,12(r16)
    453c:	1908000c 	andi	r4,r3,8192
    4540:	1805883a 	mov	r2,r3
    4544:	2000071e 	bne	r4,zero,4564 <__srefill_r+0x54>
    4548:	81001917 	ldw	r4,100(r16)
    454c:	18880014 	ori	r2,r3,8192
    4550:	00f7ffc4 	movi	r3,-8193
    4554:	20c8703a 	and	r4,r4,r3
    4558:	8080030d 	sth	r2,12(r16)
    455c:	1007883a 	mov	r3,r2
    4560:	81001915 	stw	r4,100(r16)
    4564:	80000115 	stw	zero,4(r16)
    4568:	1100080c 	andi	r4,r2,32
    456c:	2000571e 	bne	r4,zero,46cc <__srefill_r+0x1bc>
    4570:	1100010c 	andi	r4,r2,4
    4574:	20001f26 	beq	r4,zero,45f4 <__srefill_r+0xe4>
    4578:	81400c17 	ldw	r5,48(r16)
    457c:	28000826 	beq	r5,zero,45a0 <__srefill_r+0x90>
    4580:	80801004 	addi	r2,r16,64
    4584:	28800226 	beq	r5,r2,4590 <__srefill_r+0x80>
    4588:	8809883a 	mov	r4,r17
    458c:	0002dec0 	call	2dec <_free_r>
    4590:	80800f17 	ldw	r2,60(r16)
    4594:	80000c15 	stw	zero,48(r16)
    4598:	80800115 	stw	r2,4(r16)
    459c:	1000391e 	bne	r2,zero,4684 <__srefill_r+0x174>
    45a0:	80800417 	ldw	r2,16(r16)
    45a4:	10004b26 	beq	r2,zero,46d4 <__srefill_r+0x1c4>
    45a8:	8480030b 	ldhu	r18,12(r16)
    45ac:	908000cc 	andi	r2,r18,3
    45b0:	10001f1e 	bne	r2,zero,4630 <__srefill_r+0x120>
    45b4:	81800417 	ldw	r6,16(r16)
    45b8:	80800817 	ldw	r2,32(r16)
    45bc:	81c00517 	ldw	r7,20(r16)
    45c0:	81400717 	ldw	r5,28(r16)
    45c4:	81800015 	stw	r6,0(r16)
    45c8:	8809883a 	mov	r4,r17
    45cc:	103ee83a 	callr	r2
    45d0:	80800115 	stw	r2,4(r16)
    45d4:	00800e0e 	bge	zero,r2,4610 <__srefill_r+0x100>
    45d8:	0005883a 	mov	r2,zero
    45dc:	dfc00317 	ldw	ra,12(sp)
    45e0:	dc800217 	ldw	r18,8(sp)
    45e4:	dc400117 	ldw	r17,4(sp)
    45e8:	dc000017 	ldw	r16,0(sp)
    45ec:	dec00404 	addi	sp,sp,16
    45f0:	f800283a 	ret
    45f4:	1100040c 	andi	r4,r2,16
    45f8:	20003026 	beq	r4,zero,46bc <__srefill_r+0x1ac>
    45fc:	1080020c 	andi	r2,r2,8
    4600:	1000241e 	bne	r2,zero,4694 <__srefill_r+0x184>
    4604:	18c00114 	ori	r3,r3,4
    4608:	80c0030d 	sth	r3,12(r16)
    460c:	003fe406 	br	45a0 <__alt_mem_onchip_memory+0xf78045a0>
    4610:	80c0030b 	ldhu	r3,12(r16)
    4614:	1000161e 	bne	r2,zero,4670 <__srefill_r+0x160>
    4618:	18c00814 	ori	r3,r3,32
    461c:	00bfffc4 	movi	r2,-1
    4620:	80c0030d 	sth	r3,12(r16)
    4624:	003fed06 	br	45dc <__alt_mem_onchip_memory+0xf78045dc>
    4628:	000290c0 	call	290c <__sinit>
    462c:	003fc206 	br	4538 <__alt_mem_onchip_memory+0xf7804538>
    4630:	00800074 	movhi	r2,1
    4634:	10bb9a04 	addi	r2,r2,-4504
    4638:	11000017 	ldw	r4,0(r2)
    463c:	01400034 	movhi	r5,0
    4640:	00800044 	movi	r2,1
    4644:	29513d04 	addi	r5,r5,17652
    4648:	8080030d 	sth	r2,12(r16)
    464c:	00035d80 	call	35d8 <_fwalk>
    4650:	00800244 	movi	r2,9
    4654:	8480030d 	sth	r18,12(r16)
    4658:	9480024c 	andi	r18,r18,9
    465c:	90bfd51e 	bne	r18,r2,45b4 <__alt_mem_onchip_memory+0xf78045b4>
    4660:	800b883a 	mov	r5,r16
    4664:	8809883a 	mov	r4,r17
    4668:	00023140 	call	2314 <__sflush_r>
    466c:	003fd106 	br	45b4 <__alt_mem_onchip_memory+0xf78045b4>
    4670:	18c01014 	ori	r3,r3,64
    4674:	80000115 	stw	zero,4(r16)
    4678:	00bfffc4 	movi	r2,-1
    467c:	80c0030d 	sth	r3,12(r16)
    4680:	003fd606 	br	45dc <__alt_mem_onchip_memory+0xf78045dc>
    4684:	80c00e17 	ldw	r3,56(r16)
    4688:	0005883a 	mov	r2,zero
    468c:	80c00015 	stw	r3,0(r16)
    4690:	003fd206 	br	45dc <__alt_mem_onchip_memory+0xf78045dc>
    4694:	800b883a 	mov	r5,r16
    4698:	8809883a 	mov	r4,r17
    469c:	00025300 	call	2530 <_fflush_r>
    46a0:	10000a1e 	bne	r2,zero,46cc <__srefill_r+0x1bc>
    46a4:	8080030b 	ldhu	r2,12(r16)
    46a8:	00fffdc4 	movi	r3,-9
    46ac:	80000215 	stw	zero,8(r16)
    46b0:	1886703a 	and	r3,r3,r2
    46b4:	80000615 	stw	zero,24(r16)
    46b8:	003fd206 	br	4604 <__alt_mem_onchip_memory+0xf7804604>
    46bc:	00800244 	movi	r2,9
    46c0:	88800015 	stw	r2,0(r17)
    46c4:	18c01014 	ori	r3,r3,64
    46c8:	80c0030d 	sth	r3,12(r16)
    46cc:	00bfffc4 	movi	r2,-1
    46d0:	003fc206 	br	45dc <__alt_mem_onchip_memory+0xf78045dc>
    46d4:	800b883a 	mov	r5,r16
    46d8:	8809883a 	mov	r4,r17
    46dc:	00037600 	call	3760 <__smakebuf_r>
    46e0:	003fb106 	br	45a8 <__alt_mem_onchip_memory+0xf78045a8>

000046e4 <_sbrk_r>:
    46e4:	defffd04 	addi	sp,sp,-12
    46e8:	dc000015 	stw	r16,0(sp)
    46ec:	04000074 	movhi	r16,1
    46f0:	dc400115 	stw	r17,4(sp)
    46f4:	84034804 	addi	r16,r16,3360
    46f8:	2023883a 	mov	r17,r4
    46fc:	2809883a 	mov	r4,r5
    4700:	dfc00215 	stw	ra,8(sp)
    4704:	80000015 	stw	zero,0(r16)
    4708:	000649c0 	call	649c <sbrk>
    470c:	00ffffc4 	movi	r3,-1
    4710:	10c00526 	beq	r2,r3,4728 <_sbrk_r+0x44>
    4714:	dfc00217 	ldw	ra,8(sp)
    4718:	dc400117 	ldw	r17,4(sp)
    471c:	dc000017 	ldw	r16,0(sp)
    4720:	dec00304 	addi	sp,sp,12
    4724:	f800283a 	ret
    4728:	80c00017 	ldw	r3,0(r16)
    472c:	183ff926 	beq	r3,zero,4714 <__alt_mem_onchip_memory+0xf7804714>
    4730:	88c00015 	stw	r3,0(r17)
    4734:	003ff706 	br	4714 <__alt_mem_onchip_memory+0xf7804714>

00004738 <__sread>:
    4738:	defffe04 	addi	sp,sp,-8
    473c:	dc000015 	stw	r16,0(sp)
    4740:	2821883a 	mov	r16,r5
    4744:	2940038f 	ldh	r5,14(r5)
    4748:	dfc00115 	stw	ra,4(sp)
    474c:	000521c0 	call	521c <_read_r>
    4750:	10000716 	blt	r2,zero,4770 <__sread+0x38>
    4754:	80c01417 	ldw	r3,80(r16)
    4758:	1887883a 	add	r3,r3,r2
    475c:	80c01415 	stw	r3,80(r16)
    4760:	dfc00117 	ldw	ra,4(sp)
    4764:	dc000017 	ldw	r16,0(sp)
    4768:	dec00204 	addi	sp,sp,8
    476c:	f800283a 	ret
    4770:	80c0030b 	ldhu	r3,12(r16)
    4774:	18fbffcc 	andi	r3,r3,61439
    4778:	80c0030d 	sth	r3,12(r16)
    477c:	dfc00117 	ldw	ra,4(sp)
    4780:	dc000017 	ldw	r16,0(sp)
    4784:	dec00204 	addi	sp,sp,8
    4788:	f800283a 	ret

0000478c <__seofread>:
    478c:	0005883a 	mov	r2,zero
    4790:	f800283a 	ret

00004794 <__swrite>:
    4794:	2880030b 	ldhu	r2,12(r5)
    4798:	defffb04 	addi	sp,sp,-20
    479c:	dcc00315 	stw	r19,12(sp)
    47a0:	dc800215 	stw	r18,8(sp)
    47a4:	dc400115 	stw	r17,4(sp)
    47a8:	dc000015 	stw	r16,0(sp)
    47ac:	dfc00415 	stw	ra,16(sp)
    47b0:	10c0400c 	andi	r3,r2,256
    47b4:	2821883a 	mov	r16,r5
    47b8:	2023883a 	mov	r17,r4
    47bc:	3025883a 	mov	r18,r6
    47c0:	3827883a 	mov	r19,r7
    47c4:	18000526 	beq	r3,zero,47dc <__swrite+0x48>
    47c8:	2940038f 	ldh	r5,14(r5)
    47cc:	01c00084 	movi	r7,2
    47d0:	000d883a 	mov	r6,zero
    47d4:	0004f7c0 	call	4f7c <_lseek_r>
    47d8:	8080030b 	ldhu	r2,12(r16)
    47dc:	8140038f 	ldh	r5,14(r16)
    47e0:	10bbffcc 	andi	r2,r2,61439
    47e4:	980f883a 	mov	r7,r19
    47e8:	900d883a 	mov	r6,r18
    47ec:	8809883a 	mov	r4,r17
    47f0:	8080030d 	sth	r2,12(r16)
    47f4:	dfc00417 	ldw	ra,16(sp)
    47f8:	dcc00317 	ldw	r19,12(sp)
    47fc:	dc800217 	ldw	r18,8(sp)
    4800:	dc400117 	ldw	r17,4(sp)
    4804:	dc000017 	ldw	r16,0(sp)
    4808:	dec00504 	addi	sp,sp,20
    480c:	000490c1 	jmpi	490c <_write_r>

00004810 <__sseek>:
    4810:	defffe04 	addi	sp,sp,-8
    4814:	dc000015 	stw	r16,0(sp)
    4818:	2821883a 	mov	r16,r5
    481c:	2940038f 	ldh	r5,14(r5)
    4820:	dfc00115 	stw	ra,4(sp)
    4824:	0004f7c0 	call	4f7c <_lseek_r>
    4828:	00ffffc4 	movi	r3,-1
    482c:	10c00826 	beq	r2,r3,4850 <__sseek+0x40>
    4830:	80c0030b 	ldhu	r3,12(r16)
    4834:	80801415 	stw	r2,80(r16)
    4838:	18c40014 	ori	r3,r3,4096
    483c:	80c0030d 	sth	r3,12(r16)
    4840:	dfc00117 	ldw	ra,4(sp)
    4844:	dc000017 	ldw	r16,0(sp)
    4848:	dec00204 	addi	sp,sp,8
    484c:	f800283a 	ret
    4850:	80c0030b 	ldhu	r3,12(r16)
    4854:	18fbffcc 	andi	r3,r3,61439
    4858:	80c0030d 	sth	r3,12(r16)
    485c:	dfc00117 	ldw	ra,4(sp)
    4860:	dc000017 	ldw	r16,0(sp)
    4864:	dec00204 	addi	sp,sp,8
    4868:	f800283a 	ret

0000486c <__sclose>:
    486c:	2940038f 	ldh	r5,14(r5)
    4870:	000496c1 	jmpi	496c <_close_r>

00004874 <strlen>:
    4874:	208000cc 	andi	r2,r4,3
    4878:	10002026 	beq	r2,zero,48fc <strlen+0x88>
    487c:	20800007 	ldb	r2,0(r4)
    4880:	10002026 	beq	r2,zero,4904 <strlen+0x90>
    4884:	2005883a 	mov	r2,r4
    4888:	00000206 	br	4894 <strlen+0x20>
    488c:	10c00007 	ldb	r3,0(r2)
    4890:	18001826 	beq	r3,zero,48f4 <strlen+0x80>
    4894:	10800044 	addi	r2,r2,1
    4898:	10c000cc 	andi	r3,r2,3
    489c:	183ffb1e 	bne	r3,zero,488c <__alt_mem_onchip_memory+0xf780488c>
    48a0:	10c00017 	ldw	r3,0(r2)
    48a4:	01ffbff4 	movhi	r7,65279
    48a8:	39ffbfc4 	addi	r7,r7,-257
    48ac:	00ca303a 	nor	r5,zero,r3
    48b0:	01a02074 	movhi	r6,32897
    48b4:	19c7883a 	add	r3,r3,r7
    48b8:	31a02004 	addi	r6,r6,-32640
    48bc:	1946703a 	and	r3,r3,r5
    48c0:	1986703a 	and	r3,r3,r6
    48c4:	1800091e 	bne	r3,zero,48ec <strlen+0x78>
    48c8:	10800104 	addi	r2,r2,4
    48cc:	10c00017 	ldw	r3,0(r2)
    48d0:	19cb883a 	add	r5,r3,r7
    48d4:	00c6303a 	nor	r3,zero,r3
    48d8:	28c6703a 	and	r3,r5,r3
    48dc:	1986703a 	and	r3,r3,r6
    48e0:	183ff926 	beq	r3,zero,48c8 <__alt_mem_onchip_memory+0xf78048c8>
    48e4:	00000106 	br	48ec <strlen+0x78>
    48e8:	10800044 	addi	r2,r2,1
    48ec:	10c00007 	ldb	r3,0(r2)
    48f0:	183ffd1e 	bne	r3,zero,48e8 <__alt_mem_onchip_memory+0xf78048e8>
    48f4:	1105c83a 	sub	r2,r2,r4
    48f8:	f800283a 	ret
    48fc:	2005883a 	mov	r2,r4
    4900:	003fe706 	br	48a0 <__alt_mem_onchip_memory+0xf78048a0>
    4904:	0005883a 	mov	r2,zero
    4908:	f800283a 	ret

0000490c <_write_r>:
    490c:	defffd04 	addi	sp,sp,-12
    4910:	2805883a 	mov	r2,r5
    4914:	dc000015 	stw	r16,0(sp)
    4918:	04000074 	movhi	r16,1
    491c:	dc400115 	stw	r17,4(sp)
    4920:	300b883a 	mov	r5,r6
    4924:	84034804 	addi	r16,r16,3360
    4928:	2023883a 	mov	r17,r4
    492c:	380d883a 	mov	r6,r7
    4930:	1009883a 	mov	r4,r2
    4934:	dfc00215 	stw	ra,8(sp)
    4938:	80000015 	stw	zero,0(r16)
    493c:	00065880 	call	6588 <write>
    4940:	00ffffc4 	movi	r3,-1
    4944:	10c00526 	beq	r2,r3,495c <_write_r+0x50>
    4948:	dfc00217 	ldw	ra,8(sp)
    494c:	dc400117 	ldw	r17,4(sp)
    4950:	dc000017 	ldw	r16,0(sp)
    4954:	dec00304 	addi	sp,sp,12
    4958:	f800283a 	ret
    495c:	80c00017 	ldw	r3,0(r16)
    4960:	183ff926 	beq	r3,zero,4948 <__alt_mem_onchip_memory+0xf7804948>
    4964:	88c00015 	stw	r3,0(r17)
    4968:	003ff706 	br	4948 <__alt_mem_onchip_memory+0xf7804948>

0000496c <_close_r>:
    496c:	defffd04 	addi	sp,sp,-12
    4970:	dc000015 	stw	r16,0(sp)
    4974:	04000074 	movhi	r16,1
    4978:	dc400115 	stw	r17,4(sp)
    497c:	84034804 	addi	r16,r16,3360
    4980:	2023883a 	mov	r17,r4
    4984:	2809883a 	mov	r4,r5
    4988:	dfc00215 	stw	ra,8(sp)
    498c:	80000015 	stw	zero,0(r16)
    4990:	0005b240 	call	5b24 <close>
    4994:	00ffffc4 	movi	r3,-1
    4998:	10c00526 	beq	r2,r3,49b0 <_close_r+0x44>
    499c:	dfc00217 	ldw	ra,8(sp)
    49a0:	dc400117 	ldw	r17,4(sp)
    49a4:	dc000017 	ldw	r16,0(sp)
    49a8:	dec00304 	addi	sp,sp,12
    49ac:	f800283a 	ret
    49b0:	80c00017 	ldw	r3,0(r16)
    49b4:	183ff926 	beq	r3,zero,499c <__alt_mem_onchip_memory+0xf780499c>
    49b8:	88c00015 	stw	r3,0(r17)
    49bc:	003ff706 	br	499c <__alt_mem_onchip_memory+0xf780499c>

000049c0 <__sflags>:
    49c0:	28800007 	ldb	r2,0(r5)
    49c4:	00c01c84 	movi	r3,114
    49c8:	10c02426 	beq	r2,r3,4a5c <__sflags+0x9c>
    49cc:	00c01dc4 	movi	r3,119
    49d0:	10c01e26 	beq	r2,r3,4a4c <__sflags+0x8c>
    49d4:	00c01844 	movi	r3,97
    49d8:	10c00426 	beq	r2,r3,49ec <__sflags+0x2c>
    49dc:	00800584 	movi	r2,22
    49e0:	20800015 	stw	r2,0(r4)
    49e4:	0005883a 	mov	r2,zero
    49e8:	f800283a 	ret
    49ec:	02c08204 	movi	r11,520
    49f0:	01000044 	movi	r4,1
    49f4:	00804204 	movi	r2,264
    49f8:	01c00ac4 	movi	r7,43
    49fc:	02bff8c4 	movi	r10,-29
    4a00:	027fff04 	movi	r9,-4
    4a04:	02001e04 	movi	r8,120
    4a08:	29400044 	addi	r5,r5,1
    4a0c:	28c00007 	ldb	r3,0(r5)
    4a10:	18000626 	beq	r3,zero,4a2c <__sflags+0x6c>
    4a14:	19c00826 	beq	r3,r7,4a38 <__sflags+0x78>
    4a18:	1a3ffb1e 	bne	r3,r8,4a08 <__alt_mem_onchip_memory+0xf7804a08>
    4a1c:	29400044 	addi	r5,r5,1
    4a20:	28c00007 	ldb	r3,0(r5)
    4a24:	21020014 	ori	r4,r4,2048
    4a28:	183ffa1e 	bne	r3,zero,4a14 <__alt_mem_onchip_memory+0xf7804a14>
    4a2c:	22c8b03a 	or	r4,r4,r11
    4a30:	31000015 	stw	r4,0(r6)
    4a34:	f800283a 	ret
    4a38:	1284703a 	and	r2,r2,r10
    4a3c:	2248703a 	and	r4,r4,r9
    4a40:	10800414 	ori	r2,r2,16
    4a44:	21000094 	ori	r4,r4,2
    4a48:	003fef06 	br	4a08 <__alt_mem_onchip_memory+0xf7804a08>
    4a4c:	02c18004 	movi	r11,1536
    4a50:	01000044 	movi	r4,1
    4a54:	00800204 	movi	r2,8
    4a58:	003fe706 	br	49f8 <__alt_mem_onchip_memory+0xf78049f8>
    4a5c:	0017883a 	mov	r11,zero
    4a60:	0009883a 	mov	r4,zero
    4a64:	00800104 	movi	r2,4
    4a68:	003fe306 	br	49f8 <__alt_mem_onchip_memory+0xf78049f8>

00004a6c <__sfvwrite_r>:
    4a6c:	30800217 	ldw	r2,8(r6)
    4a70:	10006726 	beq	r2,zero,4c10 <__sfvwrite_r+0x1a4>
    4a74:	28c0030b 	ldhu	r3,12(r5)
    4a78:	defff404 	addi	sp,sp,-48
    4a7c:	dd400715 	stw	r21,28(sp)
    4a80:	dd000615 	stw	r20,24(sp)
    4a84:	dc000215 	stw	r16,8(sp)
    4a88:	dfc00b15 	stw	ra,44(sp)
    4a8c:	df000a15 	stw	fp,40(sp)
    4a90:	ddc00915 	stw	r23,36(sp)
    4a94:	dd800815 	stw	r22,32(sp)
    4a98:	dcc00515 	stw	r19,20(sp)
    4a9c:	dc800415 	stw	r18,16(sp)
    4aa0:	dc400315 	stw	r17,12(sp)
    4aa4:	1880020c 	andi	r2,r3,8
    4aa8:	2821883a 	mov	r16,r5
    4aac:	202b883a 	mov	r21,r4
    4ab0:	3029883a 	mov	r20,r6
    4ab4:	10002726 	beq	r2,zero,4b54 <__sfvwrite_r+0xe8>
    4ab8:	28800417 	ldw	r2,16(r5)
    4abc:	10002526 	beq	r2,zero,4b54 <__sfvwrite_r+0xe8>
    4ac0:	1880008c 	andi	r2,r3,2
    4ac4:	a4400017 	ldw	r17,0(r20)
    4ac8:	10002a26 	beq	r2,zero,4b74 <__sfvwrite_r+0x108>
    4acc:	05a00034 	movhi	r22,32768
    4ad0:	0027883a 	mov	r19,zero
    4ad4:	0025883a 	mov	r18,zero
    4ad8:	b5bf0004 	addi	r22,r22,-1024
    4adc:	980d883a 	mov	r6,r19
    4ae0:	a809883a 	mov	r4,r21
    4ae4:	90004626 	beq	r18,zero,4c00 <__sfvwrite_r+0x194>
    4ae8:	900f883a 	mov	r7,r18
    4aec:	b480022e 	bgeu	r22,r18,4af8 <__sfvwrite_r+0x8c>
    4af0:	01e00034 	movhi	r7,32768
    4af4:	39ff0004 	addi	r7,r7,-1024
    4af8:	80800917 	ldw	r2,36(r16)
    4afc:	81400717 	ldw	r5,28(r16)
    4b00:	103ee83a 	callr	r2
    4b04:	0080570e 	bge	zero,r2,4c64 <__sfvwrite_r+0x1f8>
    4b08:	a0c00217 	ldw	r3,8(r20)
    4b0c:	98a7883a 	add	r19,r19,r2
    4b10:	90a5c83a 	sub	r18,r18,r2
    4b14:	1885c83a 	sub	r2,r3,r2
    4b18:	a0800215 	stw	r2,8(r20)
    4b1c:	103fef1e 	bne	r2,zero,4adc <__alt_mem_onchip_memory+0xf7804adc>
    4b20:	0005883a 	mov	r2,zero
    4b24:	dfc00b17 	ldw	ra,44(sp)
    4b28:	df000a17 	ldw	fp,40(sp)
    4b2c:	ddc00917 	ldw	r23,36(sp)
    4b30:	dd800817 	ldw	r22,32(sp)
    4b34:	dd400717 	ldw	r21,28(sp)
    4b38:	dd000617 	ldw	r20,24(sp)
    4b3c:	dcc00517 	ldw	r19,20(sp)
    4b40:	dc800417 	ldw	r18,16(sp)
    4b44:	dc400317 	ldw	r17,12(sp)
    4b48:	dc000217 	ldw	r16,8(sp)
    4b4c:	dec00c04 	addi	sp,sp,48
    4b50:	f800283a 	ret
    4b54:	800b883a 	mov	r5,r16
    4b58:	a809883a 	mov	r4,r21
    4b5c:	00057e00 	call	57e0 <__swsetup_r>
    4b60:	1000eb1e 	bne	r2,zero,4f10 <__sfvwrite_r+0x4a4>
    4b64:	80c0030b 	ldhu	r3,12(r16)
    4b68:	a4400017 	ldw	r17,0(r20)
    4b6c:	1880008c 	andi	r2,r3,2
    4b70:	103fd61e 	bne	r2,zero,4acc <__alt_mem_onchip_memory+0xf7804acc>
    4b74:	1880004c 	andi	r2,r3,1
    4b78:	10003f1e 	bne	r2,zero,4c78 <__sfvwrite_r+0x20c>
    4b7c:	0039883a 	mov	fp,zero
    4b80:	0025883a 	mov	r18,zero
    4b84:	90001a26 	beq	r18,zero,4bf0 <__sfvwrite_r+0x184>
    4b88:	1880800c 	andi	r2,r3,512
    4b8c:	84c00217 	ldw	r19,8(r16)
    4b90:	10002126 	beq	r2,zero,4c18 <__sfvwrite_r+0x1ac>
    4b94:	982f883a 	mov	r23,r19
    4b98:	94c09336 	bltu	r18,r19,4de8 <__sfvwrite_r+0x37c>
    4b9c:	1881200c 	andi	r2,r3,1152
    4ba0:	10009e1e 	bne	r2,zero,4e1c <__sfvwrite_r+0x3b0>
    4ba4:	81000017 	ldw	r4,0(r16)
    4ba8:	b80d883a 	mov	r6,r23
    4bac:	e00b883a 	mov	r5,fp
    4bb0:	00050c00 	call	50c0 <memmove>
    4bb4:	80c00217 	ldw	r3,8(r16)
    4bb8:	81000017 	ldw	r4,0(r16)
    4bbc:	9005883a 	mov	r2,r18
    4bc0:	1ce7c83a 	sub	r19,r3,r19
    4bc4:	25cf883a 	add	r7,r4,r23
    4bc8:	84c00215 	stw	r19,8(r16)
    4bcc:	81c00015 	stw	r7,0(r16)
    4bd0:	a0c00217 	ldw	r3,8(r20)
    4bd4:	e0b9883a 	add	fp,fp,r2
    4bd8:	90a5c83a 	sub	r18,r18,r2
    4bdc:	18a7c83a 	sub	r19,r3,r2
    4be0:	a4c00215 	stw	r19,8(r20)
    4be4:	983fce26 	beq	r19,zero,4b20 <__alt_mem_onchip_memory+0xf7804b20>
    4be8:	80c0030b 	ldhu	r3,12(r16)
    4bec:	903fe61e 	bne	r18,zero,4b88 <__alt_mem_onchip_memory+0xf7804b88>
    4bf0:	8f000017 	ldw	fp,0(r17)
    4bf4:	8c800117 	ldw	r18,4(r17)
    4bf8:	8c400204 	addi	r17,r17,8
    4bfc:	003fe106 	br	4b84 <__alt_mem_onchip_memory+0xf7804b84>
    4c00:	8cc00017 	ldw	r19,0(r17)
    4c04:	8c800117 	ldw	r18,4(r17)
    4c08:	8c400204 	addi	r17,r17,8
    4c0c:	003fb306 	br	4adc <__alt_mem_onchip_memory+0xf7804adc>
    4c10:	0005883a 	mov	r2,zero
    4c14:	f800283a 	ret
    4c18:	81000017 	ldw	r4,0(r16)
    4c1c:	80800417 	ldw	r2,16(r16)
    4c20:	11005736 	bltu	r2,r4,4d80 <__sfvwrite_r+0x314>
    4c24:	85c00517 	ldw	r23,20(r16)
    4c28:	95c05536 	bltu	r18,r23,4d80 <__sfvwrite_r+0x314>
    4c2c:	00a00034 	movhi	r2,32768
    4c30:	10bfffc4 	addi	r2,r2,-1
    4c34:	9009883a 	mov	r4,r18
    4c38:	1480012e 	bgeu	r2,r18,4c40 <__sfvwrite_r+0x1d4>
    4c3c:	1009883a 	mov	r4,r2
    4c40:	b80b883a 	mov	r5,r23
    4c44:	00059340 	call	5934 <__divsi3>
    4c48:	15cf383a 	mul	r7,r2,r23
    4c4c:	81400717 	ldw	r5,28(r16)
    4c50:	80800917 	ldw	r2,36(r16)
    4c54:	e00d883a 	mov	r6,fp
    4c58:	a809883a 	mov	r4,r21
    4c5c:	103ee83a 	callr	r2
    4c60:	00bfdb16 	blt	zero,r2,4bd0 <__alt_mem_onchip_memory+0xf7804bd0>
    4c64:	8080030b 	ldhu	r2,12(r16)
    4c68:	10801014 	ori	r2,r2,64
    4c6c:	8080030d 	sth	r2,12(r16)
    4c70:	00bfffc4 	movi	r2,-1
    4c74:	003fab06 	br	4b24 <__alt_mem_onchip_memory+0xf7804b24>
    4c78:	0027883a 	mov	r19,zero
    4c7c:	0011883a 	mov	r8,zero
    4c80:	0039883a 	mov	fp,zero
    4c84:	0025883a 	mov	r18,zero
    4c88:	90001f26 	beq	r18,zero,4d08 <__sfvwrite_r+0x29c>
    4c8c:	40005a26 	beq	r8,zero,4df8 <__sfvwrite_r+0x38c>
    4c90:	982d883a 	mov	r22,r19
    4c94:	94c0012e 	bgeu	r18,r19,4c9c <__sfvwrite_r+0x230>
    4c98:	902d883a 	mov	r22,r18
    4c9c:	81000017 	ldw	r4,0(r16)
    4ca0:	80800417 	ldw	r2,16(r16)
    4ca4:	b02f883a 	mov	r23,r22
    4ca8:	81c00517 	ldw	r7,20(r16)
    4cac:	1100032e 	bgeu	r2,r4,4cbc <__sfvwrite_r+0x250>
    4cb0:	80c00217 	ldw	r3,8(r16)
    4cb4:	38c7883a 	add	r3,r7,r3
    4cb8:	1d801816 	blt	r3,r22,4d1c <__sfvwrite_r+0x2b0>
    4cbc:	b1c03e16 	blt	r22,r7,4db8 <__sfvwrite_r+0x34c>
    4cc0:	80800917 	ldw	r2,36(r16)
    4cc4:	81400717 	ldw	r5,28(r16)
    4cc8:	e00d883a 	mov	r6,fp
    4ccc:	da000115 	stw	r8,4(sp)
    4cd0:	a809883a 	mov	r4,r21
    4cd4:	103ee83a 	callr	r2
    4cd8:	102f883a 	mov	r23,r2
    4cdc:	da000117 	ldw	r8,4(sp)
    4ce0:	00bfe00e 	bge	zero,r2,4c64 <__alt_mem_onchip_memory+0xf7804c64>
    4ce4:	9de7c83a 	sub	r19,r19,r23
    4ce8:	98001f26 	beq	r19,zero,4d68 <__sfvwrite_r+0x2fc>
    4cec:	a0800217 	ldw	r2,8(r20)
    4cf0:	e5f9883a 	add	fp,fp,r23
    4cf4:	95e5c83a 	sub	r18,r18,r23
    4cf8:	15efc83a 	sub	r23,r2,r23
    4cfc:	a5c00215 	stw	r23,8(r20)
    4d00:	b83f8726 	beq	r23,zero,4b20 <__alt_mem_onchip_memory+0xf7804b20>
    4d04:	903fe11e 	bne	r18,zero,4c8c <__alt_mem_onchip_memory+0xf7804c8c>
    4d08:	8f000017 	ldw	fp,0(r17)
    4d0c:	8c800117 	ldw	r18,4(r17)
    4d10:	0011883a 	mov	r8,zero
    4d14:	8c400204 	addi	r17,r17,8
    4d18:	003fdb06 	br	4c88 <__alt_mem_onchip_memory+0xf7804c88>
    4d1c:	180d883a 	mov	r6,r3
    4d20:	e00b883a 	mov	r5,fp
    4d24:	da000115 	stw	r8,4(sp)
    4d28:	d8c00015 	stw	r3,0(sp)
    4d2c:	00050c00 	call	50c0 <memmove>
    4d30:	d8c00017 	ldw	r3,0(sp)
    4d34:	80800017 	ldw	r2,0(r16)
    4d38:	800b883a 	mov	r5,r16
    4d3c:	a809883a 	mov	r4,r21
    4d40:	10c5883a 	add	r2,r2,r3
    4d44:	80800015 	stw	r2,0(r16)
    4d48:	d8c00015 	stw	r3,0(sp)
    4d4c:	00025300 	call	2530 <_fflush_r>
    4d50:	d8c00017 	ldw	r3,0(sp)
    4d54:	da000117 	ldw	r8,4(sp)
    4d58:	103fc21e 	bne	r2,zero,4c64 <__alt_mem_onchip_memory+0xf7804c64>
    4d5c:	182f883a 	mov	r23,r3
    4d60:	9de7c83a 	sub	r19,r19,r23
    4d64:	983fe11e 	bne	r19,zero,4cec <__alt_mem_onchip_memory+0xf7804cec>
    4d68:	800b883a 	mov	r5,r16
    4d6c:	a809883a 	mov	r4,r21
    4d70:	00025300 	call	2530 <_fflush_r>
    4d74:	103fbb1e 	bne	r2,zero,4c64 <__alt_mem_onchip_memory+0xf7804c64>
    4d78:	0011883a 	mov	r8,zero
    4d7c:	003fdb06 	br	4cec <__alt_mem_onchip_memory+0xf7804cec>
    4d80:	94c0012e 	bgeu	r18,r19,4d88 <__sfvwrite_r+0x31c>
    4d84:	9027883a 	mov	r19,r18
    4d88:	980d883a 	mov	r6,r19
    4d8c:	e00b883a 	mov	r5,fp
    4d90:	00050c00 	call	50c0 <memmove>
    4d94:	80800217 	ldw	r2,8(r16)
    4d98:	80c00017 	ldw	r3,0(r16)
    4d9c:	14c5c83a 	sub	r2,r2,r19
    4da0:	1cc7883a 	add	r3,r3,r19
    4da4:	80800215 	stw	r2,8(r16)
    4da8:	80c00015 	stw	r3,0(r16)
    4dac:	10004326 	beq	r2,zero,4ebc <__sfvwrite_r+0x450>
    4db0:	9805883a 	mov	r2,r19
    4db4:	003f8606 	br	4bd0 <__alt_mem_onchip_memory+0xf7804bd0>
    4db8:	b00d883a 	mov	r6,r22
    4dbc:	e00b883a 	mov	r5,fp
    4dc0:	da000115 	stw	r8,4(sp)
    4dc4:	00050c00 	call	50c0 <memmove>
    4dc8:	80800217 	ldw	r2,8(r16)
    4dcc:	80c00017 	ldw	r3,0(r16)
    4dd0:	da000117 	ldw	r8,4(sp)
    4dd4:	1585c83a 	sub	r2,r2,r22
    4dd8:	1dad883a 	add	r22,r3,r22
    4ddc:	80800215 	stw	r2,8(r16)
    4de0:	85800015 	stw	r22,0(r16)
    4de4:	003fbf06 	br	4ce4 <__alt_mem_onchip_memory+0xf7804ce4>
    4de8:	81000017 	ldw	r4,0(r16)
    4dec:	9027883a 	mov	r19,r18
    4df0:	902f883a 	mov	r23,r18
    4df4:	003f6c06 	br	4ba8 <__alt_mem_onchip_memory+0xf7804ba8>
    4df8:	900d883a 	mov	r6,r18
    4dfc:	01400284 	movi	r5,10
    4e00:	e009883a 	mov	r4,fp
    4e04:	0004fdc0 	call	4fdc <memchr>
    4e08:	10003e26 	beq	r2,zero,4f04 <__sfvwrite_r+0x498>
    4e0c:	10800044 	addi	r2,r2,1
    4e10:	1727c83a 	sub	r19,r2,fp
    4e14:	02000044 	movi	r8,1
    4e18:	003f9d06 	br	4c90 <__alt_mem_onchip_memory+0xf7804c90>
    4e1c:	80800517 	ldw	r2,20(r16)
    4e20:	81400417 	ldw	r5,16(r16)
    4e24:	81c00017 	ldw	r7,0(r16)
    4e28:	10a7883a 	add	r19,r2,r2
    4e2c:	9885883a 	add	r2,r19,r2
    4e30:	1026d7fa 	srli	r19,r2,31
    4e34:	396dc83a 	sub	r22,r7,r5
    4e38:	b1000044 	addi	r4,r22,1
    4e3c:	9885883a 	add	r2,r19,r2
    4e40:	1027d07a 	srai	r19,r2,1
    4e44:	2485883a 	add	r2,r4,r18
    4e48:	980d883a 	mov	r6,r19
    4e4c:	9880022e 	bgeu	r19,r2,4e58 <__sfvwrite_r+0x3ec>
    4e50:	1027883a 	mov	r19,r2
    4e54:	100d883a 	mov	r6,r2
    4e58:	18c1000c 	andi	r3,r3,1024
    4e5c:	18001c26 	beq	r3,zero,4ed0 <__sfvwrite_r+0x464>
    4e60:	300b883a 	mov	r5,r6
    4e64:	a809883a 	mov	r4,r21
    4e68:	00039440 	call	3944 <_malloc_r>
    4e6c:	102f883a 	mov	r23,r2
    4e70:	10002926 	beq	r2,zero,4f18 <__sfvwrite_r+0x4ac>
    4e74:	81400417 	ldw	r5,16(r16)
    4e78:	b00d883a 	mov	r6,r22
    4e7c:	1009883a 	mov	r4,r2
    4e80:	00041500 	call	4150 <memcpy>
    4e84:	8080030b 	ldhu	r2,12(r16)
    4e88:	00fedfc4 	movi	r3,-1153
    4e8c:	10c4703a 	and	r2,r2,r3
    4e90:	10802014 	ori	r2,r2,128
    4e94:	8080030d 	sth	r2,12(r16)
    4e98:	bd89883a 	add	r4,r23,r22
    4e9c:	9d8fc83a 	sub	r7,r19,r22
    4ea0:	85c00415 	stw	r23,16(r16)
    4ea4:	84c00515 	stw	r19,20(r16)
    4ea8:	81000015 	stw	r4,0(r16)
    4eac:	9027883a 	mov	r19,r18
    4eb0:	81c00215 	stw	r7,8(r16)
    4eb4:	902f883a 	mov	r23,r18
    4eb8:	003f3b06 	br	4ba8 <__alt_mem_onchip_memory+0xf7804ba8>
    4ebc:	800b883a 	mov	r5,r16
    4ec0:	a809883a 	mov	r4,r21
    4ec4:	00025300 	call	2530 <_fflush_r>
    4ec8:	103fb926 	beq	r2,zero,4db0 <__alt_mem_onchip_memory+0xf7804db0>
    4ecc:	003f6506 	br	4c64 <__alt_mem_onchip_memory+0xf7804c64>
    4ed0:	a809883a 	mov	r4,r21
    4ed4:	000527c0 	call	527c <_realloc_r>
    4ed8:	102f883a 	mov	r23,r2
    4edc:	103fee1e 	bne	r2,zero,4e98 <__alt_mem_onchip_memory+0xf7804e98>
    4ee0:	81400417 	ldw	r5,16(r16)
    4ee4:	a809883a 	mov	r4,r21
    4ee8:	0002dec0 	call	2dec <_free_r>
    4eec:	8080030b 	ldhu	r2,12(r16)
    4ef0:	00ffdfc4 	movi	r3,-129
    4ef4:	1884703a 	and	r2,r3,r2
    4ef8:	00c00304 	movi	r3,12
    4efc:	a8c00015 	stw	r3,0(r21)
    4f00:	003f5906 	br	4c68 <__alt_mem_onchip_memory+0xf7804c68>
    4f04:	94c00044 	addi	r19,r18,1
    4f08:	02000044 	movi	r8,1
    4f0c:	003f6006 	br	4c90 <__alt_mem_onchip_memory+0xf7804c90>
    4f10:	00bfffc4 	movi	r2,-1
    4f14:	003f0306 	br	4b24 <__alt_mem_onchip_memory+0xf7804b24>
    4f18:	00800304 	movi	r2,12
    4f1c:	a8800015 	stw	r2,0(r21)
    4f20:	8080030b 	ldhu	r2,12(r16)
    4f24:	003f5006 	br	4c68 <__alt_mem_onchip_memory+0xf7804c68>

00004f28 <_isatty_r>:
    4f28:	defffd04 	addi	sp,sp,-12
    4f2c:	dc000015 	stw	r16,0(sp)
    4f30:	04000074 	movhi	r16,1
    4f34:	dc400115 	stw	r17,4(sp)
    4f38:	84034804 	addi	r16,r16,3360
    4f3c:	2023883a 	mov	r17,r4
    4f40:	2809883a 	mov	r4,r5
    4f44:	dfc00215 	stw	ra,8(sp)
    4f48:	80000015 	stw	zero,0(r16)
    4f4c:	0005d480 	call	5d48 <isatty>
    4f50:	00ffffc4 	movi	r3,-1
    4f54:	10c00526 	beq	r2,r3,4f6c <_isatty_r+0x44>
    4f58:	dfc00217 	ldw	ra,8(sp)
    4f5c:	dc400117 	ldw	r17,4(sp)
    4f60:	dc000017 	ldw	r16,0(sp)
    4f64:	dec00304 	addi	sp,sp,12
    4f68:	f800283a 	ret
    4f6c:	80c00017 	ldw	r3,0(r16)
    4f70:	183ff926 	beq	r3,zero,4f58 <__alt_mem_onchip_memory+0xf7804f58>
    4f74:	88c00015 	stw	r3,0(r17)
    4f78:	003ff706 	br	4f58 <__alt_mem_onchip_memory+0xf7804f58>

00004f7c <_lseek_r>:
    4f7c:	defffd04 	addi	sp,sp,-12
    4f80:	2805883a 	mov	r2,r5
    4f84:	dc000015 	stw	r16,0(sp)
    4f88:	04000074 	movhi	r16,1
    4f8c:	dc400115 	stw	r17,4(sp)
    4f90:	300b883a 	mov	r5,r6
    4f94:	84034804 	addi	r16,r16,3360
    4f98:	2023883a 	mov	r17,r4
    4f9c:	380d883a 	mov	r6,r7
    4fa0:	1009883a 	mov	r4,r2
    4fa4:	dfc00215 	stw	ra,8(sp)
    4fa8:	80000015 	stw	zero,0(r16)
    4fac:	0005f140 	call	5f14 <lseek>
    4fb0:	00ffffc4 	movi	r3,-1
    4fb4:	10c00526 	beq	r2,r3,4fcc <_lseek_r+0x50>
    4fb8:	dfc00217 	ldw	ra,8(sp)
    4fbc:	dc400117 	ldw	r17,4(sp)
    4fc0:	dc000017 	ldw	r16,0(sp)
    4fc4:	dec00304 	addi	sp,sp,12
    4fc8:	f800283a 	ret
    4fcc:	80c00017 	ldw	r3,0(r16)
    4fd0:	183ff926 	beq	r3,zero,4fb8 <__alt_mem_onchip_memory+0xf7804fb8>
    4fd4:	88c00015 	stw	r3,0(r17)
    4fd8:	003ff706 	br	4fb8 <__alt_mem_onchip_memory+0xf7804fb8>

00004fdc <memchr>:
    4fdc:	208000cc 	andi	r2,r4,3
    4fe0:	280f883a 	mov	r7,r5
    4fe4:	10003426 	beq	r2,zero,50b8 <memchr+0xdc>
    4fe8:	30bfffc4 	addi	r2,r6,-1
    4fec:	30001a26 	beq	r6,zero,5058 <memchr+0x7c>
    4ff0:	20c00003 	ldbu	r3,0(r4)
    4ff4:	29803fcc 	andi	r6,r5,255
    4ff8:	30c0051e 	bne	r6,r3,5010 <memchr+0x34>
    4ffc:	00001806 	br	5060 <memchr+0x84>
    5000:	10001526 	beq	r2,zero,5058 <memchr+0x7c>
    5004:	20c00003 	ldbu	r3,0(r4)
    5008:	10bfffc4 	addi	r2,r2,-1
    500c:	30c01426 	beq	r6,r3,5060 <memchr+0x84>
    5010:	21000044 	addi	r4,r4,1
    5014:	20c000cc 	andi	r3,r4,3
    5018:	183ff91e 	bne	r3,zero,5000 <__alt_mem_onchip_memory+0xf7805000>
    501c:	020000c4 	movi	r8,3
    5020:	40801136 	bltu	r8,r2,5068 <memchr+0x8c>
    5024:	10000c26 	beq	r2,zero,5058 <memchr+0x7c>
    5028:	20c00003 	ldbu	r3,0(r4)
    502c:	29403fcc 	andi	r5,r5,255
    5030:	28c00b26 	beq	r5,r3,5060 <memchr+0x84>
    5034:	20c00044 	addi	r3,r4,1
    5038:	39803fcc 	andi	r6,r7,255
    503c:	2089883a 	add	r4,r4,r2
    5040:	00000306 	br	5050 <memchr+0x74>
    5044:	18c00044 	addi	r3,r3,1
    5048:	197fffc3 	ldbu	r5,-1(r3)
    504c:	31400526 	beq	r6,r5,5064 <memchr+0x88>
    5050:	1805883a 	mov	r2,r3
    5054:	20fffb1e 	bne	r4,r3,5044 <__alt_mem_onchip_memory+0xf7805044>
    5058:	0005883a 	mov	r2,zero
    505c:	f800283a 	ret
    5060:	2005883a 	mov	r2,r4
    5064:	f800283a 	ret
    5068:	28c03fcc 	andi	r3,r5,255
    506c:	1812923a 	slli	r9,r3,8
    5070:	02ffbff4 	movhi	r11,65279
    5074:	02a02074 	movhi	r10,32897
    5078:	48d2b03a 	or	r9,r9,r3
    507c:	4806943a 	slli	r3,r9,16
    5080:	5affbfc4 	addi	r11,r11,-257
    5084:	52a02004 	addi	r10,r10,-32640
    5088:	48d2b03a 	or	r9,r9,r3
    508c:	20c00017 	ldw	r3,0(r4)
    5090:	48c6f03a 	xor	r3,r9,r3
    5094:	1acd883a 	add	r6,r3,r11
    5098:	00c6303a 	nor	r3,zero,r3
    509c:	30c6703a 	and	r3,r6,r3
    50a0:	1a86703a 	and	r3,r3,r10
    50a4:	183fe01e 	bne	r3,zero,5028 <__alt_mem_onchip_memory+0xf7805028>
    50a8:	10bfff04 	addi	r2,r2,-4
    50ac:	21000104 	addi	r4,r4,4
    50b0:	40bff636 	bltu	r8,r2,508c <__alt_mem_onchip_memory+0xf780508c>
    50b4:	003fdb06 	br	5024 <__alt_mem_onchip_memory+0xf7805024>
    50b8:	3005883a 	mov	r2,r6
    50bc:	003fd706 	br	501c <__alt_mem_onchip_memory+0xf780501c>

000050c0 <memmove>:
    50c0:	2005883a 	mov	r2,r4
    50c4:	29000b2e 	bgeu	r5,r4,50f4 <memmove+0x34>
    50c8:	298f883a 	add	r7,r5,r6
    50cc:	21c0092e 	bgeu	r4,r7,50f4 <memmove+0x34>
    50d0:	2187883a 	add	r3,r4,r6
    50d4:	198bc83a 	sub	r5,r3,r6
    50d8:	30004826 	beq	r6,zero,51fc <memmove+0x13c>
    50dc:	39ffffc4 	addi	r7,r7,-1
    50e0:	39000003 	ldbu	r4,0(r7)
    50e4:	18ffffc4 	addi	r3,r3,-1
    50e8:	19000005 	stb	r4,0(r3)
    50ec:	28fffb1e 	bne	r5,r3,50dc <__alt_mem_onchip_memory+0xf78050dc>
    50f0:	f800283a 	ret
    50f4:	00c003c4 	movi	r3,15
    50f8:	1980412e 	bgeu	r3,r6,5200 <memmove+0x140>
    50fc:	2886b03a 	or	r3,r5,r2
    5100:	18c000cc 	andi	r3,r3,3
    5104:	1800401e 	bne	r3,zero,5208 <memmove+0x148>
    5108:	33fffc04 	addi	r15,r6,-16
    510c:	781ed13a 	srli	r15,r15,4
    5110:	28c00104 	addi	r3,r5,4
    5114:	13400104 	addi	r13,r2,4
    5118:	781c913a 	slli	r14,r15,4
    511c:	2b000204 	addi	r12,r5,8
    5120:	12c00204 	addi	r11,r2,8
    5124:	73800504 	addi	r14,r14,20
    5128:	2a800304 	addi	r10,r5,12
    512c:	12400304 	addi	r9,r2,12
    5130:	2b9d883a 	add	r14,r5,r14
    5134:	2811883a 	mov	r8,r5
    5138:	100f883a 	mov	r7,r2
    513c:	41000017 	ldw	r4,0(r8)
    5140:	39c00404 	addi	r7,r7,16
    5144:	18c00404 	addi	r3,r3,16
    5148:	393ffc15 	stw	r4,-16(r7)
    514c:	193ffc17 	ldw	r4,-16(r3)
    5150:	6b400404 	addi	r13,r13,16
    5154:	5ac00404 	addi	r11,r11,16
    5158:	693ffc15 	stw	r4,-16(r13)
    515c:	61000017 	ldw	r4,0(r12)
    5160:	4a400404 	addi	r9,r9,16
    5164:	42000404 	addi	r8,r8,16
    5168:	593ffc15 	stw	r4,-16(r11)
    516c:	51000017 	ldw	r4,0(r10)
    5170:	63000404 	addi	r12,r12,16
    5174:	52800404 	addi	r10,r10,16
    5178:	493ffc15 	stw	r4,-16(r9)
    517c:	1bbfef1e 	bne	r3,r14,513c <__alt_mem_onchip_memory+0xf780513c>
    5180:	79000044 	addi	r4,r15,1
    5184:	2008913a 	slli	r4,r4,4
    5188:	328003cc 	andi	r10,r6,15
    518c:	02c000c4 	movi	r11,3
    5190:	1107883a 	add	r3,r2,r4
    5194:	290b883a 	add	r5,r5,r4
    5198:	5a801e2e 	bgeu	r11,r10,5214 <memmove+0x154>
    519c:	1813883a 	mov	r9,r3
    51a0:	2811883a 	mov	r8,r5
    51a4:	500f883a 	mov	r7,r10
    51a8:	41000017 	ldw	r4,0(r8)
    51ac:	4a400104 	addi	r9,r9,4
    51b0:	39ffff04 	addi	r7,r7,-4
    51b4:	493fff15 	stw	r4,-4(r9)
    51b8:	42000104 	addi	r8,r8,4
    51bc:	59fffa36 	bltu	r11,r7,51a8 <__alt_mem_onchip_memory+0xf78051a8>
    51c0:	513fff04 	addi	r4,r10,-4
    51c4:	2008d0ba 	srli	r4,r4,2
    51c8:	318000cc 	andi	r6,r6,3
    51cc:	21000044 	addi	r4,r4,1
    51d0:	2109883a 	add	r4,r4,r4
    51d4:	2109883a 	add	r4,r4,r4
    51d8:	1907883a 	add	r3,r3,r4
    51dc:	290b883a 	add	r5,r5,r4
    51e0:	30000b26 	beq	r6,zero,5210 <memmove+0x150>
    51e4:	198d883a 	add	r6,r3,r6
    51e8:	29c00003 	ldbu	r7,0(r5)
    51ec:	18c00044 	addi	r3,r3,1
    51f0:	29400044 	addi	r5,r5,1
    51f4:	19ffffc5 	stb	r7,-1(r3)
    51f8:	19bffb1e 	bne	r3,r6,51e8 <__alt_mem_onchip_memory+0xf78051e8>
    51fc:	f800283a 	ret
    5200:	1007883a 	mov	r3,r2
    5204:	003ff606 	br	51e0 <__alt_mem_onchip_memory+0xf78051e0>
    5208:	1007883a 	mov	r3,r2
    520c:	003ff506 	br	51e4 <__alt_mem_onchip_memory+0xf78051e4>
    5210:	f800283a 	ret
    5214:	500d883a 	mov	r6,r10
    5218:	003ff106 	br	51e0 <__alt_mem_onchip_memory+0xf78051e0>

0000521c <_read_r>:
    521c:	defffd04 	addi	sp,sp,-12
    5220:	2805883a 	mov	r2,r5
    5224:	dc000015 	stw	r16,0(sp)
    5228:	04000074 	movhi	r16,1
    522c:	dc400115 	stw	r17,4(sp)
    5230:	300b883a 	mov	r5,r6
    5234:	84034804 	addi	r16,r16,3360
    5238:	2023883a 	mov	r17,r4
    523c:	380d883a 	mov	r6,r7
    5240:	1009883a 	mov	r4,r2
    5244:	dfc00215 	stw	ra,8(sp)
    5248:	80000015 	stw	zero,0(r16)
    524c:	000633c0 	call	633c <read>
    5250:	00ffffc4 	movi	r3,-1
    5254:	10c00526 	beq	r2,r3,526c <_read_r+0x50>
    5258:	dfc00217 	ldw	ra,8(sp)
    525c:	dc400117 	ldw	r17,4(sp)
    5260:	dc000017 	ldw	r16,0(sp)
    5264:	dec00304 	addi	sp,sp,12
    5268:	f800283a 	ret
    526c:	80c00017 	ldw	r3,0(r16)
    5270:	183ff926 	beq	r3,zero,5258 <__alt_mem_onchip_memory+0xf7805258>
    5274:	88c00015 	stw	r3,0(r17)
    5278:	003ff706 	br	5258 <__alt_mem_onchip_memory+0xf7805258>

0000527c <_realloc_r>:
    527c:	defff604 	addi	sp,sp,-40
    5280:	dc800215 	stw	r18,8(sp)
    5284:	dfc00915 	stw	ra,36(sp)
    5288:	df000815 	stw	fp,32(sp)
    528c:	ddc00715 	stw	r23,28(sp)
    5290:	dd800615 	stw	r22,24(sp)
    5294:	dd400515 	stw	r21,20(sp)
    5298:	dd000415 	stw	r20,16(sp)
    529c:	dcc00315 	stw	r19,12(sp)
    52a0:	dc400115 	stw	r17,4(sp)
    52a4:	dc000015 	stw	r16,0(sp)
    52a8:	3025883a 	mov	r18,r6
    52ac:	2800b726 	beq	r5,zero,558c <_realloc_r+0x310>
    52b0:	282b883a 	mov	r21,r5
    52b4:	2029883a 	mov	r20,r4
    52b8:	00060640 	call	6064 <__malloc_lock>
    52bc:	a8bfff17 	ldw	r2,-4(r21)
    52c0:	043fff04 	movi	r16,-4
    52c4:	90c002c4 	addi	r3,r18,11
    52c8:	01000584 	movi	r4,22
    52cc:	acfffe04 	addi	r19,r21,-8
    52d0:	1420703a 	and	r16,r2,r16
    52d4:	20c0332e 	bgeu	r4,r3,53a4 <_realloc_r+0x128>
    52d8:	047ffe04 	movi	r17,-8
    52dc:	1c62703a 	and	r17,r3,r17
    52e0:	8807883a 	mov	r3,r17
    52e4:	88005816 	blt	r17,zero,5448 <_realloc_r+0x1cc>
    52e8:	8c805736 	bltu	r17,r18,5448 <_realloc_r+0x1cc>
    52ec:	80c0300e 	bge	r16,r3,53b0 <_realloc_r+0x134>
    52f0:	07000074 	movhi	fp,1
    52f4:	e7351504 	addi	fp,fp,-11180
    52f8:	e1c00217 	ldw	r7,8(fp)
    52fc:	9c09883a 	add	r4,r19,r16
    5300:	22000117 	ldw	r8,4(r4)
    5304:	21c06326 	beq	r4,r7,5494 <_realloc_r+0x218>
    5308:	017fff84 	movi	r5,-2
    530c:	414a703a 	and	r5,r8,r5
    5310:	214b883a 	add	r5,r4,r5
    5314:	29800117 	ldw	r6,4(r5)
    5318:	3180004c 	andi	r6,r6,1
    531c:	30003f26 	beq	r6,zero,541c <_realloc_r+0x1a0>
    5320:	1080004c 	andi	r2,r2,1
    5324:	10008326 	beq	r2,zero,5534 <_realloc_r+0x2b8>
    5328:	900b883a 	mov	r5,r18
    532c:	a009883a 	mov	r4,r20
    5330:	00039440 	call	3944 <_malloc_r>
    5334:	1025883a 	mov	r18,r2
    5338:	10011e26 	beq	r2,zero,57b4 <_realloc_r+0x538>
    533c:	a93fff17 	ldw	r4,-4(r21)
    5340:	10fffe04 	addi	r3,r2,-8
    5344:	00bfff84 	movi	r2,-2
    5348:	2084703a 	and	r2,r4,r2
    534c:	9885883a 	add	r2,r19,r2
    5350:	1880ee26 	beq	r3,r2,570c <_realloc_r+0x490>
    5354:	81bfff04 	addi	r6,r16,-4
    5358:	00800904 	movi	r2,36
    535c:	1180b836 	bltu	r2,r6,5640 <_realloc_r+0x3c4>
    5360:	00c004c4 	movi	r3,19
    5364:	19809636 	bltu	r3,r6,55c0 <_realloc_r+0x344>
    5368:	9005883a 	mov	r2,r18
    536c:	a807883a 	mov	r3,r21
    5370:	19000017 	ldw	r4,0(r3)
    5374:	11000015 	stw	r4,0(r2)
    5378:	19000117 	ldw	r4,4(r3)
    537c:	11000115 	stw	r4,4(r2)
    5380:	18c00217 	ldw	r3,8(r3)
    5384:	10c00215 	stw	r3,8(r2)
    5388:	a80b883a 	mov	r5,r21
    538c:	a009883a 	mov	r4,r20
    5390:	0002dec0 	call	2dec <_free_r>
    5394:	a009883a 	mov	r4,r20
    5398:	00060880 	call	6088 <__malloc_unlock>
    539c:	9005883a 	mov	r2,r18
    53a0:	00001206 	br	53ec <_realloc_r+0x170>
    53a4:	00c00404 	movi	r3,16
    53a8:	1823883a 	mov	r17,r3
    53ac:	003fce06 	br	52e8 <__alt_mem_onchip_memory+0xf78052e8>
    53b0:	a825883a 	mov	r18,r21
    53b4:	8445c83a 	sub	r2,r16,r17
    53b8:	00c003c4 	movi	r3,15
    53bc:	18802636 	bltu	r3,r2,5458 <_realloc_r+0x1dc>
    53c0:	99800117 	ldw	r6,4(r19)
    53c4:	9c07883a 	add	r3,r19,r16
    53c8:	3180004c 	andi	r6,r6,1
    53cc:	3420b03a 	or	r16,r6,r16
    53d0:	9c000115 	stw	r16,4(r19)
    53d4:	18800117 	ldw	r2,4(r3)
    53d8:	10800054 	ori	r2,r2,1
    53dc:	18800115 	stw	r2,4(r3)
    53e0:	a009883a 	mov	r4,r20
    53e4:	00060880 	call	6088 <__malloc_unlock>
    53e8:	9005883a 	mov	r2,r18
    53ec:	dfc00917 	ldw	ra,36(sp)
    53f0:	df000817 	ldw	fp,32(sp)
    53f4:	ddc00717 	ldw	r23,28(sp)
    53f8:	dd800617 	ldw	r22,24(sp)
    53fc:	dd400517 	ldw	r21,20(sp)
    5400:	dd000417 	ldw	r20,16(sp)
    5404:	dcc00317 	ldw	r19,12(sp)
    5408:	dc800217 	ldw	r18,8(sp)
    540c:	dc400117 	ldw	r17,4(sp)
    5410:	dc000017 	ldw	r16,0(sp)
    5414:	dec00a04 	addi	sp,sp,40
    5418:	f800283a 	ret
    541c:	017fff04 	movi	r5,-4
    5420:	414a703a 	and	r5,r8,r5
    5424:	814d883a 	add	r6,r16,r5
    5428:	30c01f16 	blt	r6,r3,54a8 <_realloc_r+0x22c>
    542c:	20800317 	ldw	r2,12(r4)
    5430:	20c00217 	ldw	r3,8(r4)
    5434:	a825883a 	mov	r18,r21
    5438:	3021883a 	mov	r16,r6
    543c:	18800315 	stw	r2,12(r3)
    5440:	10c00215 	stw	r3,8(r2)
    5444:	003fdb06 	br	53b4 <__alt_mem_onchip_memory+0xf78053b4>
    5448:	00800304 	movi	r2,12
    544c:	a0800015 	stw	r2,0(r20)
    5450:	0005883a 	mov	r2,zero
    5454:	003fe506 	br	53ec <__alt_mem_onchip_memory+0xf78053ec>
    5458:	98c00117 	ldw	r3,4(r19)
    545c:	9c4b883a 	add	r5,r19,r17
    5460:	11000054 	ori	r4,r2,1
    5464:	18c0004c 	andi	r3,r3,1
    5468:	1c62b03a 	or	r17,r3,r17
    546c:	9c400115 	stw	r17,4(r19)
    5470:	29000115 	stw	r4,4(r5)
    5474:	2885883a 	add	r2,r5,r2
    5478:	10c00117 	ldw	r3,4(r2)
    547c:	29400204 	addi	r5,r5,8
    5480:	a009883a 	mov	r4,r20
    5484:	18c00054 	ori	r3,r3,1
    5488:	10c00115 	stw	r3,4(r2)
    548c:	0002dec0 	call	2dec <_free_r>
    5490:	003fd306 	br	53e0 <__alt_mem_onchip_memory+0xf78053e0>
    5494:	017fff04 	movi	r5,-4
    5498:	414a703a 	and	r5,r8,r5
    549c:	89800404 	addi	r6,r17,16
    54a0:	8151883a 	add	r8,r16,r5
    54a4:	4180590e 	bge	r8,r6,560c <_realloc_r+0x390>
    54a8:	1080004c 	andi	r2,r2,1
    54ac:	103f9e1e 	bne	r2,zero,5328 <__alt_mem_onchip_memory+0xf7805328>
    54b0:	adbffe17 	ldw	r22,-8(r21)
    54b4:	00bfff04 	movi	r2,-4
    54b8:	9dadc83a 	sub	r22,r19,r22
    54bc:	b1800117 	ldw	r6,4(r22)
    54c0:	3084703a 	and	r2,r6,r2
    54c4:	20002026 	beq	r4,zero,5548 <_realloc_r+0x2cc>
    54c8:	80af883a 	add	r23,r16,r2
    54cc:	b96f883a 	add	r23,r23,r5
    54d0:	21c05f26 	beq	r4,r7,5650 <_realloc_r+0x3d4>
    54d4:	b8c01c16 	blt	r23,r3,5548 <_realloc_r+0x2cc>
    54d8:	20800317 	ldw	r2,12(r4)
    54dc:	20c00217 	ldw	r3,8(r4)
    54e0:	81bfff04 	addi	r6,r16,-4
    54e4:	01000904 	movi	r4,36
    54e8:	18800315 	stw	r2,12(r3)
    54ec:	10c00215 	stw	r3,8(r2)
    54f0:	b0c00217 	ldw	r3,8(r22)
    54f4:	b0800317 	ldw	r2,12(r22)
    54f8:	b4800204 	addi	r18,r22,8
