
CromaKey.elf:     file format elf32-littlenios2
CromaKey.elf
architecture: nios2:r1, flags 0x00000112:
EXEC_P, HAS_SYMS, D_PAGED
start address 0x00000248

Program Header:
    LOAD off    0x00001000 vaddr 0x00000000 paddr 0x00000000 align 2**12
         filesz 0x00000020 memsz 0x00000020 flags r-x
    LOAD off    0x00001020 vaddr 0x00000020 paddr 0x00000020 align 2**12
         filesz 0x00009754 memsz 0x00009754 flags r-x
    LOAD off    0x0000a774 vaddr 0x00009774 paddr 0x0000b5bc align 2**12
         filesz 0x00001e48 memsz 0x00001e48 flags rw-
    LOAD off    0x0000d404 vaddr 0x0000d404 paddr 0x0000d404 align 2**12
         filesz 0x00000000 memsz 0x00000154 flags rw-

Sections:
Idx Name          Size      VMA       LMA       File off  Algn
  0 .entry        00000020  00000000  00000000  00001000  2**5
                  CONTENTS, ALLOC, LOAD, READONLY, CODE
  1 .exceptions   00000228  00000020  00000020  00001020  2**2
                  CONTENTS, ALLOC, LOAD, READONLY, CODE
  2 .text         00009384  00000248  00000248  00001248  2**2
                  CONTENTS, ALLOC, LOAD, READONLY, CODE
  3 .rodata       000001a8  000095cc  000095cc  0000a5cc  2**2
                  CONTENTS, ALLOC, LOAD, READONLY, DATA
  4 .rwdata       00001e48  00009774  0000b5bc  0000a774  2**2
                  CONTENTS, ALLOC, LOAD, DATA, SMALL_DATA
  5 .bss          00000154  0000d404  0000d404  0000d404  2**2
                  ALLOC, SMALL_DATA
  6 .sdram        00000000  0000d558  0000d558  0000c5bc  2**0
                  CONTENTS
  7 .flash_controller 00000000  08000000  08000000  0000c5bc  2**0
                  CONTENTS
  8 .onchip_memory 00000000  08800000  08800000  0000c5bc  2**0
                  CONTENTS
  9 .comment      00000023  00000000  00000000  0000c5bc  2**0
                  CONTENTS, READONLY
 10 .debug_aranges 00000bb0  00000000  00000000  0000c5e0  2**3
                  CONTENTS, READONLY, DEBUGGING
 11 .debug_info   0001a907  00000000  00000000  0000d190  2**0
                  CONTENTS, READONLY, DEBUGGING
 12 .debug_abbrev 00006d60  00000000  00000000  00027a97  2**0
                  CONTENTS, READONLY, DEBUGGING
 13 .debug_line   00007e72  00000000  00000000  0002e7f7  2**0
                  CONTENTS, READONLY, DEBUGGING
 14 .debug_frame  00002258  00000000  00000000  0003666c  2**2
                  CONTENTS, READONLY, DEBUGGING
 15 .debug_str    000037fd  00000000  00000000  000388c4  2**0
                  CONTENTS, READONLY, DEBUGGING
 16 .debug_loc    00004b12  00000000  00000000  0003c0c1  2**0
                  CONTENTS, READONLY, DEBUGGING
 17 .debug_alt_sim_info 00000060  00000000  00000000  00040bd4  2**2
                  CONTENTS, READONLY, DEBUGGING
 18 .debug_ranges 00000690  00000000  00000000  00040c38  2**3
                  CONTENTS, READONLY, DEBUGGING
 19 .thread_model 00000003  00000000  00000000  00044a3e  2**0
                  CONTENTS, READONLY
 20 .cpu          00000003  00000000  00000000  00044a41  2**0
                  CONTENTS, READONLY
 21 .qsys         00000001  00000000  00000000  00044a44  2**0
                  CONTENTS, READONLY
 22 .simulation_enabled 00000001  00000000  00000000  00044a45  2**0
                  CONTENTS, READONLY
 23 .sysid_hash   00000004  00000000  00000000  00044a46  2**0
                  CONTENTS, READONLY
 24 .sysid_base   00000004  00000000  00000000  00044a4a  2**0
                  CONTENTS, READONLY
 25 .sysid_time   00000004  00000000  00000000  00044a4e  2**0
                  CONTENTS, READONLY
 26 .stderr_dev   00000009  00000000  00000000  00044a52  2**0
                  CONTENTS, READONLY
 27 .stdin_dev    00000009  00000000  00000000  00044a5b  2**0
                  CONTENTS, READONLY
 28 .stdout_dev   00000009  00000000  00000000  00044a64  2**0
                  CONTENTS, READONLY
 29 .sopc_system_name 0000000b  00000000  00000000  00044a6d  2**0
                  CONTENTS, READONLY
 30 .quartus_project_dir 00000039  00000000  00000000  00044a78  2**0
                  CONTENTS, READONLY
 31 .jdi          000039fa  00000000  00000000  00044ab1  2**0
                  CONTENTS, READONLY
 32 .sopcinfo     00102648  00000000  00000000  000484ab  2**0
                  CONTENTS, READONLY
SYMBOL TABLE:
00000000 l    d  .entry	00000000 .entry
00000020 l    d  .exceptions	00000000 .exceptions
00000248 l    d  .text	00000000 .text
000095cc l    d  .rodata	00000000 .rodata
00009774 l    d  .rwdata	00000000 .rwdata
0000d404 l    d  .bss	00000000 .bss
0000d558 l    d  .sdram	00000000 .sdram
08000000 l    d  .flash_controller	00000000 .flash_controller
08800000 l    d  .onchip_memory	00000000 .onchip_memory
00000000 l    d  .comment	00000000 .comment
00000000 l    d  .debug_aranges	00000000 .debug_aranges
00000000 l    d  .debug_info	00000000 .debug_info
00000000 l    d  .debug_abbrev	00000000 .debug_abbrev
00000000 l    d  .debug_line	00000000 .debug_line
00000000 l    d  .debug_frame	00000000 .debug_frame
00000000 l    d  .debug_str	00000000 .debug_str
00000000 l    d  .debug_loc	00000000 .debug_loc
00000000 l    d  .debug_alt_sim_info	00000000 .debug_alt_sim_info
00000000 l    d  .debug_ranges	00000000 .debug_ranges
00000000 l    df *ABS*	00000000 ../CromaKey_bsp//obj/HAL/src/crt0.o
00000290 l       .text	00000000 alt_after_alt_main
00000000 l    df *ABS*	00000000 alt_irq_handler.c
00000000 l    df *ABS*	00000000 alt_instruction_exception_entry.c
00000000 l    df *ABS*	00000000 hello_world.c
00000000 l    df *ABS*	00000000 puts.c
00000000 l    df *ABS*	00000000 strlen.c
00000000 l    df *ABS*	00000000 findfp.c
00000434 l     F .text	00000008 __fp_unlock
00000448 l     F .text	0000019c __sinit.part.1
000005e4 l     F .text	00000008 __fp_lock
00000000 l    df *ABS*	00000000 fvwrite.c
00000000 l    df *ABS*	00000000 fwalk.c
00000000 l    df *ABS*	00000000 impure.c
00009774 l     O .rwdata	00000424 impure_data
00000000 l    df *ABS*	00000000 mallocr.c
00000000 l    df *ABS*	00000000 memchr.c
00000000 l    df *ABS*	00000000 memcpy.c
00000000 l    df *ABS*	00000000 memmove.c
00000000 l    df *ABS*	00000000 memset.c
00000000 l    df *ABS*	00000000 mallocr.c
00000000 l    df *ABS*	00000000 sbrkr.c
00000000 l    df *ABS*	00000000 stdio.c
00000000 l    df *ABS*	00000000 writer.c
00000000 l    df *ABS*	00000000 wsetup.c
00000000 l    df *ABS*	00000000 closer.c
00000000 l    df *ABS*	00000000 fclose.c
00000000 l    df *ABS*	00000000 fflush.c
00000000 l    df *ABS*	00000000 mallocr.c
00000000 l    df *ABS*	00000000 int_errno.c
00000000 l    df *ABS*	00000000 lseekr.c
00000000 l    df *ABS*	00000000 makebuf.c
00000000 l    df *ABS*	00000000 readr.c
00000000 l    df *ABS*	00000000 fstatr.c
00000000 l    df *ABS*	00000000 isattyr.c
00000000 l    df *ABS*	00000000 lib2-divmod.c
00000000 l    df *ABS*	00000000 alt_close.c
00003090 l     F .text	0000003c alt_get_errno
00000000 l    df *ABS*	00000000 alt_dev.c
0000319c l     F .text	0000002c alt_dev_null_write
00000000 l    df *ABS*	00000000 alt_errno.c
00000000 l    df *ABS*	00000000 alt_fstat.c
000031c8 l     F .text	0000003c alt_get_errno
00000000 l    df *ABS*	00000000 alt_isatty.c
000032b4 l     F .text	0000003c alt_get_errno
00000000 l    df *ABS*	00000000 alt_load.c
00003394 l     F .text	00000068 alt_load_section
00000000 l    df *ABS*	00000000 alt_lseek.c
00003480 l     F .text	0000003c alt_get_errno
00000000 l    df *ABS*	00000000 alt_main.c
00000000 l    df *ABS*	00000000 alt_malloc_lock.c
00000000 l    df *ABS*	00000000 alt_read.c
00003654 l     F .text	0000003c alt_get_errno
00000000 l    df *ABS*	00000000 alt_release_fd.c
00000000 l    df *ABS*	00000000 alt_sbrk.c
0000b5a4 l     O .rwdata	00000004 heap_end
00000000 l    df *ABS*	00000000 alt_write.c
000038a0 l     F .text	0000003c alt_get_errno
00000000 l    df *ABS*	00000000 alt_sys_init.c
000039d4 l     F .text	00000034 alt_dev_reg
0000a148 l     O .rwdata	000000dc flash_controller
0000a224 l     O .rwdata	00001060 jtag_uart
0000b284 l     O .rwdata	00000030 audio_and_video_config
0000b2b4 l     O .rwdata	00000030 audio
0000b2e4 l     O .rwdata	0000002c char_lcd
0000b310 l     O .rwdata	0000002c Green_LED
0000b33c l     O .rwdata	0000002c HEX3_HEX0
0000b368 l     O .rwdata	0000002c HEX7_HEX4
0000b394 l     O .rwdata	0000002c pushbuttons
0000b3c0 l     O .rwdata	0000002c red_LEDs
0000b3ec l     O .rwdata	0000002c switches
0000b418 l     O .rwdata	00000038 ps2_key
0000b450 l     O .rwdata	00000038 ps2_mouse
0000b488 l     O .rwdata	0000002c serial_port
0000b4b4 l     O .rwdata	00000048 mtl_char_buffer
0000b4fc l     O .rwdata	00000054 pixel_buffer_dma_green
0000b550 l     O .rwdata	0000002c sd_card
00000000 l    df *ABS*	00000000 altera_avalon_cfi_flash.c
00003e14 l     F .text	00000034 alt_flash_device_register
00000000 l    df *ABS*	00000000 altera_avalon_cfi_flash_table.c
00004c64 l     F .text	00000080 alt_read_16bit_query_entry
00000000 l    df *ABS*	00000000 altera_avalon_jtag_uart_fd.c
00000000 l    df *ABS*	00000000 altera_avalon_jtag_uart_init.c
00005d0c l     F .text	00000210 altera_avalon_jtag_uart_irq
00005f1c l     F .text	000000a0 altera_avalon_jtag_uart_timeout
00000000 l    df *ABS*	00000000 altera_avalon_jtag_uart_ioctl.c
00000000 l    df *ABS*	00000000 altera_avalon_jtag_uart_read.c
00000000 l    df *ABS*	00000000 altera_avalon_jtag_uart_write.c
00000000 l    df *ABS*	00000000 altera_avalon_timer_sc.c
00006554 l     F .text	0000007c alt_avalon_timer_sc_irq
00000000 l    df *ABS*	00000000 altera_up_avalon_character_lcd.c
00000000 l    df *ABS*	00000000 altera_up_avalon_ps2.c
00000000 l    df *ABS*	00000000 altera_up_avalon_rs232.c
00000000 l    df *ABS*	00000000 altera_up_avalon_video_character_buffer_with_dma.c
00000000 l    df *ABS*	00000000 alt_alarm_start.c
00000000 l    df *ABS*	00000000 alt_dcache_flush.c
00000000 l    df *ABS*	00000000 alt_dcache_flush_all.c
00000000 l    df *ABS*	00000000 alt_dev_llist_insert.c
00007a44 l     F .text	0000003c alt_get_errno
00000000 l    df *ABS*	00000000 alt_do_ctors.c
00000000 l    df *ABS*	00000000 alt_do_dtors.c
00000000 l    df *ABS*	00000000 alt_find_dev.c
00000000 l    df *ABS*	00000000 alt_flash_dev.c
00000000 l    df *ABS*	00000000 alt_icache_flush_all.c
00000000 l    df *ABS*	00000000 alt_io_redirect.c
00007d64 l     F .text	000000c4 alt_open_fd
00000000 l    df *ABS*	00000000 alt_irq_register.c
00000000 l    df *ABS*	00000000 alt_irq_vars.c
00000000 l    df *ABS*	00000000 alt_open.c
00008024 l     F .text	0000003c alt_get_errno
00008060 l     F .text	000000c4 alt_file_locked
00000000 l    df *ABS*	00000000 alt_tick.c
00000000 l    df *ABS*	00000000 altera_nios2_gen2_irq.c
00000000 l    df *ABS*	00000000 altera_avalon_cfi_flash_amd.c
000087d4 l     F .text	000000cc alt_write_word_amd
000086b8 l     F .text	0000011c alt_wait_for_command_to_complete_amd
00000000 l    df *ABS*	00000000 altera_avalon_cfi_flash_intel.c
00008aac l     F .text	0000017c alt_unlock_block_intel
00008c28 l     F .text	000000d4 alt_write_word_intel
00000000 l    df *ABS*	00000000 alt_find_file.c
00000000 l    df *ABS*	00000000 alt_get_fd.c
00000000 l    df *ABS*	00000000 alt_icache_flush.c
00000000 l    df *ABS*	00000000 alt_usleep.c
00000000 l    df *ABS*	00000000 alt_busy_sleep.c
00000000 l    df *ABS*	00000000 atexit.c
00000000 l    df *ABS*	00000000 exit.c
00000000 l    df *ABS*	00000000 memcmp.c
00000000 l    df *ABS*	00000000 strcmp.c
00000000 l    df *ABS*	00000000 __atexit.c
00000000 l    df *ABS*	00000000 __call_atexit.c
00000000 l    df *ABS*	00000000 alt_exit.c
0000d42c g     O .bss	00000004 alt_instruction_exception_handler
00002e88 g     F .text	00000054 _isatty_r
00003590 g     F .text	0000007c alt_main
000002c8 g     F .text	000000c0 _puts_r
00004728 g     F .text	00000040 alt_read_query_entry_32bit
0000d458 g     O .bss	00000100 alt_irq
00006d84 g     F .text	00000060 alt_up_ps2_disable_read_interrupt
00002bb0 g     F .text	00000060 _lseek_r
00003ed8 g     F .text	000002a8 alt_flash_cfi_write
0000b5bc g       *ABS*	00000000 __flash_rwdata_start
000066b8 g     F .text	00000040 alt_up_character_lcd_send_cmd
0000d558 g       *ABS*	00000000 __alt_heap_start
00002164 g     F .text	0000005c __sseek
00000784 g     F .text	00000010 __sinit
00007700 g     F .text	000000fc alt_up_char_buffer_string
00006b9c g     F .text	00000034 read_CE_bit
000005ec g     F .text	00000068 __sfmoreglue
00003630 g     F .text	00000024 __malloc_unlock
00006f24 g     F .text	0000009c alt_up_ps2_read_data_byte_timeout
00007418 g     F .text	00000090 alt_up_rs232_read_fd
00007634 g     F .text	000000cc alt_up_char_buffer_draw
00001850 g     F .text	0000015c memmove
0000076c g     F .text	00000018 _cleanup
0000841c g     F .text	00000024 altera_nios2_gen2_irq_init
00006644 g     F .text	00000074 get_DDRAM_addr
000048c0 g     F .text	00000050 alt_write_flash_command_32bit_device_16bit_mode
00000000 g     F .entry	0000001c __reset
00000020 g       *ABS*	00000000 __flash_exceptions_start
00002e2c g     F .text	0000005c _fstat_r
000043cc g     F .text	000002e0 alt_flash_program_block
0000d410 g     O .bss	00000004 errno
000020e0 g     F .text	00000008 __seofread
0000d418 g     O .bss	00000004 alt_argv
0001357c g       *ABS*	00000000 _gp
00008f38 g     F .text	00000030 usleep
00009fc8 g     O .rwdata	00000180 alt_fd_list
00007be4 g     F .text	00000090 alt_find_dev
00001708 g     F .text	00000148 memcpy
00006860 g     F .text	00000050 alt_up_character_lcd_write_fd
000077fc g     F .text	0000005c alt_up_char_buffer_clear
0000043c g     F .text	0000000c _cleanup_r
00007e28 g     F .text	0000007c alt_io_redirect
000095cc g       *ABS*	00000000 __DTOR_END__
000073a4 g     F .text	00000074 alt_up_rs232_read_data
00000388 g     F .text	00000014 puts
000090c0 g     F .text	0000009c alt_exception_cause_generated_bad_addr
08000000 g       *ABS*	00000000 __alt_mem_flash_controller
00006114 g     F .text	0000021c altera_avalon_jtag_uart_read
00002fd4 g     F .text	00000064 .hidden __udivsi3
000032f0 g     F .text	000000a4 isatty
00008ea8 g     F .text	00000090 alt_icache_flush
0000d40c g     O .bss	00000004 __malloc_top_pad
000007d4 g     F .text	000004bc __sfvwrite_r
00002038 g     F .text	00000054 _sbrk_r
000088a0 g     F .text	00000080 alt_program_intel
00002dcc g     F .text	00000060 _read_r
00007984 g     F .text	00000078 alt_dcache_flush
0000b59c g     O .rwdata	00000004 alt_max_fd
00007320 g     F .text	00000044 alt_up_rs232_check_parity
000046ac g     F .text	0000003c alt_read_query_entry_8bit
000023d0 g     F .text	000000f0 _fclose_r
00006bd0 g     F .text	00000030 read_num_bytes_available
00008920 g     F .text	0000018c alt_erase_block_intel
0000274c g     F .text	00000030 fflush
0000d408 g     O .bss	00000004 __malloc_max_sbrked_mem
00007ea4 g     F .text	00000180 alt_irq_register
00006b38 g     F .text	00000034 read_RI_bit
000034bc g     F .text	000000d4 lseek
0000b57c g     O .rwdata	00000004 _global_impure_ptr
00001ad4 g     F .text	00000564 _realloc_r
0000d558 g       *ABS*	00000000 __bss_end
00008314 g     F .text	00000108 alt_tick
00006c34 g     F .text	0000002c read_data_byte
000007a4 g     F .text	00000018 __fp_lock_all
00008278 g     F .text	0000009c alt_alarm_stop
00006b6c g     F .text	00000030 read_RE_bit
0000d420 g     O .bss	00000004 alt_irq_active
000000fc g     F .exceptions	000000d8 alt_irq_handler
00009fa0 g     O .rwdata	00000028 alt_dev_null
00006b00 g     F .text	00000038 alt_up_character_lcd_cursor_blink_on
00004bc8 g     F .text	0000009c alt_set_flash_algorithm_func
00006de4 g     F .text	00000074 alt_up_ps2_write_data_byte
000079fc g     F .text	00000048 alt_dcache_flush_all
00004768 g     F .text	00000044 alt_write_flash_command_8bit_device_8bit_mode
0000b5bc g       *ABS*	00000000 __ram_rwdata_end
08800000 g       *ABS*	00000000 __alt_mem_onchip_memory
0000b594 g     O .rwdata	00000008 alt_dev_list
000038dc g     F .text	000000f8 write
00009774 g       *ABS*	00000000 __ram_rodata_end
00003204 g     F .text	000000b0 fstat
000074a8 g     F .text	00000094 alt_up_rs232_write_fd
00005a1c g     F .text	000000d8 alt_check_primary_table
00003038 g     F .text	00000058 .hidden __umodsi3
0000420c g     F .text	00000064 alt_flash_cfi_read
00004960 g     F .text	00000038 alt_write_native_8bit
0000d558 g       *ABS*	00000000 end
00007114 g     F .text	00000098 alt_up_ps2_write_fd
000047ac g     F .text	00000078 alt_write_flash_command_16bit_device_8bit_mode
00007578 g     F .text	00000080 alt_up_char_buffer_init
00004ce4 g     F .text	000005c8 alt_read_cfi_table
00005c58 g     F .text	000000b4 altera_avalon_jtag_uart_init
000001d4 g     F .exceptions	00000074 alt_instruction_exception_entry
000095cc g       *ABS*	00000000 __CTOR_LIST__
08000000 g       *ABS*	00000000 __alt_stack_pointer
000065d0 g     F .text	00000074 alt_avalon_timer_sc_init
00006330 g     F .text	00000224 altera_avalon_jtag_uart_write
00003e48 g     F .text	00000090 alt_flash_cfi_init
00000794 g     F .text	00000004 __sfp_lock_acquire
00001624 g     F .text	000000e4 memchr
0000676c g     F .text	0000007c alt_up_character_lcd_write
000028a0 g     F .text	00000310 _free_r
00009418 g     F .text	00000180 __call_exitprocs
0000b584 g     O .rwdata	00000004 __malloc_sbrk_base
00000248 g     F .text	0000004c _start
0000d424 g     O .bss	00000004 _alt_tick_rate
0000d428 g     O .bss	00000004 _alt_nticks
00003690 g     F .text	000000fc read
00003a40 g     F .text	000003d4 alt_sys_init
000069b0 g     F .text	0000008c alt_up_character_lcd_shift_display
00009300 g     F .text	00000118 __register_exitproc
00007030 g     F .text	00000058 alt_up_ps2_clear_fifo
000072e4 g     F .text	0000003c alt_up_rs232_get_available_space_in_write_FIFO
000046e8 g     F .text	00000040 alt_read_query_entry_16bit
00006a3c g     F .text	0000008c alt_up_character_lcd_erase_pos
00005fbc g     F .text	00000068 altera_avalon_jtag_uart_close
00009774 g       *ABS*	00000000 __ram_rwdata_start
000095cc g       *ABS*	00000000 __ram_rodata_start
0000d430 g     O .bss	00000028 __malloc_current_mallinfo
00004a04 g     F .text	000001c4 alt_set_flash_width_func
00005af4 g     F .text	00000060 altera_avalon_jtag_uart_read_fd
00008e04 g     F .text	000000a4 alt_get_fd
00008f68 g     F .text	00000158 alt_busy_sleep
0000237c g     F .text	00000054 _close_r
000084a8 g     F .text	00000210 alt_erase_block_amd
000091a8 g     F .text	0000007c memcmp
00005bb4 g     F .text	00000050 altera_avalon_jtag_uart_close_fd
0000d558 g       *ABS*	00000000 __alt_stack_base
00005c04 g     F .text	00000054 altera_avalon_jtag_uart_ioctl_fd
00002228 g     F .text	00000154 __swsetup_r
000052ac g     F .text	00000770 alt_read_cfi_width
00000654 g     F .text	00000118 __sfp
00009b98 g     O .rwdata	00000408 __malloc_av_
000007a0 g     F .text	00000004 __sinit_lock_release
0000208c g     F .text	00000054 __sread
00007244 g     F .text	00000060 alt_up_rs232_disable_read_interrupt
00008cfc g     F .text	00000108 alt_find_file
00007a80 g     F .text	000000a4 alt_dev_llist_insert
0000360c g     F .text	00000024 __malloc_lock
000037f0 g     F .text	000000b0 sbrk
000026f0 g     F .text	0000005c _fflush_r
0000b5a8 g     O .rwdata	00000008 alt_flash_dev_list
00004874 g     F .text	0000004c alt_write_flash_command_16bit_device_16bit_mode
0000d404 g       *ABS*	00000000 __bss_start
000019ac g     F .text	00000128 memset
00000294 g     F .text	00000034 main
0000d41c g     O .bss	00000004 alt_envp
0000d404 g     O .bss	00000004 __malloc_max_total_mem
000075f8 g     F .text	0000003c alt_up_char_buffer_open_dev
00005b54 g     F .text	00000060 altera_avalon_jtag_uart_write_fd
00006924 g     F .text	0000008c alt_up_character_lcd_shift_cursor
000021c0 g     F .text	00000008 __sclose
08000000 g       *ABS*	00000000 __alt_heap_limit
000024c0 g     F .text	00000014 fclose
00006fc0 g     F .text	00000070 alt_up_ps2_read_data_byte
00000e18 g     F .text	0000080c _malloc_r
0000b5a0 g     O .rwdata	00000004 alt_errno
00004910 g     F .text	00000050 alt_write_flash_command_32bit_device_32bit_mode
00000c90 g     F .text	000000c4 _fwalk
00004270 g     F .text	0000015c alt_write_value_to_flash
000071ac g     F .text	0000003c alt_up_ps2_open_dev
00004998 g     F .text	00000038 alt_write_native_16bit
00002edc g     F .text	00000084 .hidden __divsi3
00006730 g     F .text	0000003c alt_up_character_lcd_open_dev
0000277c g     F .text	00000124 _malloc_trim_r
00006d28 g     F .text	0000005c alt_up_ps2_enable_read_interrupt
000095cc g       *ABS*	00000000 __CTOR_END__
000066f8 g     F .text	00000038 alt_up_character_lcd_init
00009224 g     F .text	000000dc strcmp
000095cc g       *ABS*	00000000 __flash_rodata_start
000095cc g       *ABS*	00000000 __DTOR_LIST__
0000753c g     F .text	0000003c alt_up_rs232_open_dev
00003a08 g     F .text	00000038 alt_irq_init
0000378c g     F .text	00000064 alt_release_fd
00006c00 g     F .text	00000034 read_data_valid
00006ac8 g     F .text	00000038 alt_up_character_lcd_cursor_off
00006ec0 g     F .text	00000064 alt_up_ps2_write_data_byte_with_ack
0000915c g     F .text	00000014 atexit
000021c8 g     F .text	00000060 _write_r
0000b580 g     O .rwdata	00000004 _impure_ptr
0000d414 g     O .bss	00000004 alt_argc
000024d4 g     F .text	0000021c __sflush_r
00007b84 g     F .text	00000060 _do_dtors
00000020 g       .exceptions	00000000 alt_irq_entry
000007bc g     F .text	00000018 __fp_unlock_all
0000b58c g     O .rwdata	00000008 alt_fs_list
000071e8 g     F .text	0000005c alt_up_rs232_enable_read_interrupt
00004824 g     F .text	00000050 alt_write_flash_command_32bit_device_8bit_mode
00007364 g     F .text	00000040 alt_up_rs232_write_data
00000020 g       *ABS*	00000000 __ram_exceptions_start
0000b5bc g       *ABS*	00000000 _edata
0000d558 g       *ABS*	00000000 _end
00007c74 g     F .text	00000068 alt_flash_open_dev
00000248 g       *ABS*	00000000 __ram_exceptions_end
00006024 g     F .text	000000f0 altera_avalon_jtag_uart_ioctl
000020e8 g     F .text	0000007c __swrite
0000b588 g     O .rwdata	00000004 __malloc_trim_threshold
00009170 g     F .text	00000038 exit
00000d54 g     F .text	000000c4 _fwalk_reent
00006c60 g     F .text	000000c8 alt_up_ps2_init
00007cdc g     F .text	00000054 alt_flash_close_dev
00002f60 g     F .text	00000074 .hidden __modsi3
08000000 g       *ABS*	00000000 __alt_data_end
00000020 g     F .exceptions	00000000 alt_exception
00000798 g     F .text	00000004 __sfp_lock_release
00000000 g       *ABS*	00000000 __alt_mem_sdram
000067e8 g     F .text	00000078 alt_up_character_lcd_string
00009598 g     F .text	00000034 _exit
00007858 g     F .text	0000012c alt_alarm_start
00002c10 g     F .text	000001bc __smakebuf_r
000049d0 g     F .text	00000034 alt_write_native_32bit
00006e58 g     F .text	00000068 alt_up_ps2_wait_for_ack
0000039c g     F .text	00000098 strlen
00008124 g     F .text	00000154 open
00004180 g     F .text	0000008c alt_flash_cfi_get_info
00007d30 g     F .text	00000034 alt_icache_flush_all
000068b0 g     F .text	00000074 alt_up_character_lcd_set_cursor_pos
0000b5b0 g     O .rwdata	00000004 alt_priority_mask
00007088 g     F .text	0000008c alt_up_ps2_read_fd
0000b5b4 g     O .rwdata	00000008 alt_alarm_list
00007b24 g     F .text	00000060 _do_ctors
000072a4 g     F .text	00000040 alt_up_rs232_get_used_space_in_read_FIFO
000030cc g     F .text	000000d0 close
00008440 g     F .text	00000068 alt_program_amd
000033fc g     F .text	00000084 alt_load
0000079c g     F .text	00000004 __sinit_lock_acquire



Disassembly of section .entry:

00000000 <__reset>:
#if NIOS2_ICACHE_SIZE > 0 && defined(ALT_ALLOW_CODE_AT_RESET) && (!defined(ALT_SIM_OPTIMIZE) || defined(NIOS2_ECC_PRESENT))
    /* Assume the instruction cache size is always a power of two. */
#if NIOS2_ICACHE_SIZE > 0x8000
    movhi r2, %hi(NIOS2_ICACHE_SIZE)
#else
    movui r2, NIOS2_ICACHE_SIZE
   0:	00840014 	movui	r2,4096
#endif

0:
    initi r2
   4:	1001483a 	initi	r2
    addi r2, r2, -NIOS2_ICACHE_LINE_SIZE
   8:	10bff804 	addi	r2,r2,-32
    bgt r2, zero, 0b
   c:	00bffd16 	blt	zero,r2,4 <__alt_mem_onchip_memory+0xf7800004>
 * Jump to the _start entry point in the .text section if reset code
 * is allowed or if optimizing for RTL simulation.
 */
#if defined(ALT_ALLOW_CODE_AT_RESET) || defined(ALT_SIM_OPTIMIZE)
    /* Jump to the _start entry point in the .text section. */
    movhi r1, %hi(_start)
  10:	00400034 	movhi	at,0
    ori r1, r1, %lo(_start)
  14:	08409214 	ori	at,at,584
    jmp r1
  18:	0800683a 	jmp	at
  1c:	00000000 	call	0 <__reset>

Disassembly of section .exceptions:

00000020 <alt_exception>:

#else /* ALT_EXCEPTION_STACK disabled */
        /* 
         * Reserve space on normal stack for registers about to be pushed.
         */
        addi  sp, sp, -76
  20:	deffed04 	addi	sp,sp,-76
         * documentation for details).
         *
         * Leave a gap in the stack frame at 4(sp) for the muldiv handler to
         * store zero into.
         */
        stw   ra,  0(sp)
  24:	dfc00015 	stw	ra,0(sp)
        stw   r1,   8(sp)
  28:	d8400215 	stw	at,8(sp)
        stw   r2,  12(sp)
  2c:	d8800315 	stw	r2,12(sp)
        stw   r3,  16(sp)
  30:	d8c00415 	stw	r3,16(sp)
        stw   r4,  20(sp)
  34:	d9000515 	stw	r4,20(sp)
        stw   r5,  24(sp)
  38:	d9400615 	stw	r5,24(sp)
        stw   r6,  28(sp)
  3c:	d9800715 	stw	r6,28(sp)
        stw   r7,  32(sp)
  40:	d9c00815 	stw	r7,32(sp)
        rdctl r5, estatus   /* Read early to avoid usage stall */
  44:	000b307a 	rdctl	r5,estatus
        stw   r8,  36(sp)
  48:	da000915 	stw	r8,36(sp)
        stw   r9,  40(sp)
  4c:	da400a15 	stw	r9,40(sp)
        stw   r10, 44(sp)
  50:	da800b15 	stw	r10,44(sp)
        stw   r11, 48(sp)
  54:	dac00c15 	stw	r11,48(sp)
        stw   r12, 52(sp)
  58:	db000d15 	stw	r12,52(sp)
        stw   r13, 56(sp)
  5c:	db400e15 	stw	r13,56(sp)
        stw   r14, 60(sp)
  60:	db800f15 	stw	r14,60(sp)
        stw   r15, 64(sp)
  64:	dbc01015 	stw	r15,64(sp)
        /*
         * ea-4 contains the address of the instruction being executed
         * when the exception occured. For interrupt exceptions, we will
         * will be re-issue the isntruction. Store it in 72(sp)
         */
        stw   r5,  68(sp)  /* estatus */
  68:	d9401115 	stw	r5,68(sp)
        addi  r15, ea, -4  /* instruction that caused exception */
  6c:	ebffff04 	addi	r15,ea,-4
        stw   r15,  72(sp)
  70:	dbc01215 	stw	r15,72(sp)
#else
        /*
         * Test to see if the exception was a software exception or caused 
         * by an external interrupt, and vector accordingly.
         */
        rdctl r4, ipending
  74:	0009313a 	rdctl	r4,ipending
        andi  r2, r5, 1
  78:	2880004c 	andi	r2,r5,1
        beq   r2, zero, .Lnot_irq
  7c:	10000326 	beq	r2,zero,8c <alt_exception+0x6c>
        beq   r4, zero, .Lnot_irq
  80:	20000226 	beq	r4,zero,8c <alt_exception+0x6c>
        /*
         * Now that all necessary registers have been preserved, call 
         * alt_irq_handler() to process the interrupts.
         */

        call alt_irq_handler
  84:	00000fc0 	call	fc <alt_irq_handler>

        .section .exceptions.irqreturn, "xa"

        br    .Lexception_exit
  88:	00000706 	br	a8 <alt_exception+0x88>
         * upon completion, so we write ea (address of instruction *after*
         * the one where the exception occured) into 72(sp). The actual
         * instruction that caused the exception is written in r2, which these
         * handlers will utilize.
         */
        stw ea, 72(sp) /* EA is PC+4 so will skip over instruction causing exception */
  8c:	df401215 	stw	ea,72(sp)
.Lunknown_16bit:
        addi.n r4, r4, 2 /* Need PC+2 to skip over instruction causing exception */
        stw r4, 72(sp)

#else /* CDX is not Enabled and all instructions are 32bits */
        ldw r2, -4(ea) /* Instruction value that caused exception */
  90:	e8bfff17 	ldw	r2,-4(ea)
         * debugger is present) or go into an infinite loop since the
         * handling behavior is undefined; in that case we will not return here.
         */

        /* Load exception-causing address as first argument (r4) */
        addi   r4, ea, -4
  94:	e93fff04 	addi	r4,ea,-4

        /* Call the instruction-exception entry */
        call   alt_instruction_exception_entry
  98:	00001d40 	call	1d4 <alt_instruction_exception_entry>
         * instruction
         *
         * Return code was 0: Skip. The instruction after the exception is
         * already stored in 72(sp).
         */
        bne   r2, r0, .Lexception_exit
  9c:	1000021e 	bne	r2,zero,a8 <alt_exception+0x88>

        /*
         * Otherwise, modify 72(sp) to re-issue the instruction that caused the
         * exception.
         */
        addi  r15, ea, -4  /* instruction that caused exception */
  a0:	ebffff04 	addi	r15,ea,-4
        stw   r15,  72(sp)
  a4:	dbc01215 	stw	r15,72(sp)
        /* 
         * Restore the saved registers, so that all general purpose registers 
         * have been restored to their state at the time the interrupt occured.
         */

        ldw   r5,  68(sp)
  a8:	d9401117 	ldw	r5,68(sp)
        ldw   ea,  72(sp)  /* This becomes the PC once eret is executed */
  ac:	df401217 	ldw	ea,72(sp)
        ldw   ra,   0(sp)
  b0:	dfc00017 	ldw	ra,0(sp)

        wrctl estatus, r5
  b4:	2801707a 	wrctl	estatus,r5

        ldw   r1,   8(sp)
  b8:	d8400217 	ldw	at,8(sp)
        ldw   r2,  12(sp)
  bc:	d8800317 	ldw	r2,12(sp)
        ldw   r3,  16(sp)
  c0:	d8c00417 	ldw	r3,16(sp)
        ldw   r4,  20(sp)
  c4:	d9000517 	ldw	r4,20(sp)
        ldw   r5,  24(sp)
  c8:	d9400617 	ldw	r5,24(sp)
        ldw   r6,  28(sp)
  cc:	d9800717 	ldw	r6,28(sp)
        ldw   r7,  32(sp)
  d0:	d9c00817 	ldw	r7,32(sp)

#if defined(ALT_EXCEPTION_STACK) && defined(ALT_STACK_CHECK)
        ldw   et, %gprel(alt_exception_old_stack_limit)(gp)
#endif

        ldw   r8,  36(sp)
  d4:	da000917 	ldw	r8,36(sp)
        ldw   r9,  40(sp)
  d8:	da400a17 	ldw	r9,40(sp)
        ldw   r10, 44(sp)
  dc:	da800b17 	ldw	r10,44(sp)
        ldw   r11, 48(sp)
  e0:	dac00c17 	ldw	r11,48(sp)
        ldw   r12, 52(sp)
  e4:	db000d17 	ldw	r12,52(sp)
        ldw   r13, 56(sp)
  e8:	db400e17 	ldw	r13,56(sp)
        ldw   r14, 60(sp)
  ec:	db800f17 	ldw	r14,60(sp)
        ldw   r15, 64(sp)
  f0:	dbc01017 	ldw	r15,64(sp)
        stw   et, %gprel(alt_stack_limit_value)(gp)
        stw   zero, %gprel(alt_exception_old_stack_limit)(gp)
#endif /* ALT_STACK_CHECK */
        ldw   sp,  76(sp)
#else /* ALT_EXCEPTION_STACK disabled */
        addi  sp, sp, 76
  f4:	dec01304 	addi	sp,sp,76

        /*
         * Return to the interrupted instruction.
         */

        eret
  f8:	ef80083a 	eret

000000fc <alt_irq_handler>:
 * instruction is present if the macro ALT_CI_INTERRUPT_VECTOR defined.
 */

void alt_irq_handler (void) __attribute__ ((section (".exceptions")));
void alt_irq_handler (void)
{
  fc:	defff904 	addi	sp,sp,-28
 100:	dfc00615 	stw	ra,24(sp)
 104:	df000515 	stw	fp,20(sp)
 108:	df000504 	addi	fp,sp,20
  
  /*
   * Notify the operating system that we are at interrupt level.
   */ 
  
  ALT_OS_INT_ENTER();
 10c:	0001883a 	nop
#ifndef NIOS2_EIC_PRESENT
static ALT_INLINE alt_u32 ALT_ALWAYS_INLINE alt_irq_pending (void)
{
  alt_u32 active;

  NIOS2_READ_IPENDING (active);
 110:	0005313a 	rdctl	r2,ipending
 114:	e0bffe15 	stw	r2,-8(fp)

  return active;
 118:	e0bffe17 	ldw	r2,-8(fp)
   * Consider the case where the high priority interupt is asserted during
   * the interrupt entry sequence for a lower priority interrupt to see why
   * this is the case.
   */

  active = alt_irq_pending ();
 11c:	e0bffb15 	stw	r2,-20(fp)

  do
  {
    i = 0;
 120:	e03ffd15 	stw	zero,-12(fp)
    mask = 1;
 124:	00800044 	movi	r2,1
 128:	e0bffc15 	stw	r2,-16(fp)
     * called to clear the interrupt condition.
     */

    do
    {
      if (active & mask)
 12c:	e0fffb17 	ldw	r3,-20(fp)
 130:	e0bffc17 	ldw	r2,-16(fp)
 134:	1884703a 	and	r2,r3,r2
 138:	10001526 	beq	r2,zero,190 <alt_irq_handler+0x94>
      { 
#ifdef ALT_ENHANCED_INTERRUPT_API_PRESENT
        alt_irq[i].handler(alt_irq[i].context); 
#else
        alt_irq[i].handler(alt_irq[i].context, i); 
 13c:	00800074 	movhi	r2,1
 140:	10b51604 	addi	r2,r2,-11176
 144:	e0fffd17 	ldw	r3,-12(fp)
 148:	180690fa 	slli	r3,r3,3
 14c:	10c5883a 	add	r2,r2,r3
 150:	10c00017 	ldw	r3,0(r2)
 154:	00800074 	movhi	r2,1
 158:	10b51604 	addi	r2,r2,-11176
 15c:	e13ffd17 	ldw	r4,-12(fp)
 160:	200890fa 	slli	r4,r4,3
 164:	1105883a 	add	r2,r2,r4
 168:	10800104 	addi	r2,r2,4
 16c:	10800017 	ldw	r2,0(r2)
 170:	e17ffd17 	ldw	r5,-12(fp)
 174:	1009883a 	mov	r4,r2
 178:	183ee83a 	callr	r3
#endif
        break;
 17c:	0001883a 	nop
#ifndef NIOS2_EIC_PRESENT
static ALT_INLINE alt_u32 ALT_ALWAYS_INLINE alt_irq_pending (void)
{
  alt_u32 active;

  NIOS2_READ_IPENDING (active);
 180:	0005313a 	rdctl	r2,ipending
 184:	e0bfff15 	stw	r2,-4(fp)

  return active;
 188:	e0bfff17 	ldw	r2,-4(fp)
 18c:	00000706 	br	1ac <alt_irq_handler+0xb0>
      }
      mask <<= 1;
 190:	e0bffc17 	ldw	r2,-16(fp)
 194:	1085883a 	add	r2,r2,r2
 198:	e0bffc15 	stw	r2,-16(fp)
      i++;
 19c:	e0bffd17 	ldw	r2,-12(fp)
 1a0:	10800044 	addi	r2,r2,1
 1a4:	e0bffd15 	stw	r2,-12(fp)

    } while (1);
 1a8:	003fe006 	br	12c <__alt_mem_onchip_memory+0xf780012c>

    active = alt_irq_pending ();
 1ac:	e0bffb15 	stw	r2,-20(fp)
    
  } while (active);
 1b0:	e0bffb17 	ldw	r2,-20(fp)
 1b4:	103fda1e 	bne	r2,zero,120 <__alt_mem_onchip_memory+0xf7800120>

  /*
   * Notify the operating system that interrupt processing is complete.
   */ 

  ALT_OS_INT_EXIT();
 1b8:	0001883a 	nop
}
 1bc:	0001883a 	nop
 1c0:	e037883a 	mov	sp,fp
 1c4:	dfc00117 	ldw	ra,4(sp)
 1c8:	df000017 	ldw	fp,0(sp)
 1cc:	dec00204 	addi	sp,sp,8
 1d0:	f800283a 	ret

000001d4 <alt_instruction_exception_entry>:
 * that handler if it has been registered. Absent a handler, it will
 * break break or hang as discussed below.
 */
int 
alt_instruction_exception_entry (alt_u32 exception_pc)
{
 1d4:	defffb04 	addi	sp,sp,-20
 1d8:	dfc00415 	stw	ra,16(sp)
 1dc:	df000315 	stw	fp,12(sp)
 1e0:	df000304 	addi	fp,sp,12
 1e4:	e13fff15 	stw	r4,-4(fp)
 * NIOS2_EXCEPTION_CAUSE_NOT_PRESENT. Your handling routine should
 * check the validity of the cause argument before proceeding.
 */
#ifdef NIOS2_HAS_EXTRA_EXCEPTION_INFO
  /* Get exception cause & "badaddr" */
  NIOS2_READ_EXCEPTION(cause);
 1e8:	000531fa 	rdctl	r2,exception
 1ec:	e0bffd15 	stw	r2,-12(fp)
  cause = ( (cause & NIOS2_EXCEPTION_REG_CAUSE_MASK) >>
 1f0:	e0bffd17 	ldw	r2,-12(fp)
 1f4:	10801f0c 	andi	r2,r2,124
 1f8:	1004d0ba 	srli	r2,r2,2
 1fc:	e0bffd15 	stw	r2,-12(fp)
              NIOS2_EXCEPTION_REG_CAUSE_OFST );

  NIOS2_READ_BADADDR(badaddr);
 200:	0005333a 	rdctl	r2,badaddr
 204:	e0bffe15 	stw	r2,-8(fp)
#else
  cause = NIOS2_EXCEPTION_CAUSE_NOT_PRESENT;
  badaddr = 0;
#endif /* NIOS2_HAS_EXTRA_EXCEPTION_INFO */

  if(alt_instruction_exception_handler) {
 208:	d0a7ac17 	ldw	r2,-24912(gp)
 20c:	10000726 	beq	r2,zero,22c <alt_instruction_exception_entry+0x58>
     * Call handler. Its return value indicates whether the exception-causing
     * instruction should be re-issued. The code that called us,
     * alt_eceptions_entry.S, will look at this value and adjust the ea
     * register as necessary
     */
    return alt_instruction_exception_handler(cause, exception_pc, badaddr);
 210:	d0a7ac17 	ldw	r2,-24912(gp)
 214:	e0fffd17 	ldw	r3,-12(fp)
 218:	e1bffe17 	ldw	r6,-8(fp)
 21c:	e17fff17 	ldw	r5,-4(fp)
 220:	1809883a 	mov	r4,r3
 224:	103ee83a 	callr	r2
 228:	00000206 	br	234 <alt_instruction_exception_entry+0x60>
   *    (a peripheral which negates its interrupt output before its
   *    interrupt handler has been executed will cause spurious interrupts)
   */
  else {
#ifdef NIOS2_HAS_DEBUG_STUB
    NIOS2_BREAK();
 22c:	003da03a 	break	0
      ;
#endif /* NIOS2_HAS_DEBUG_STUB */
  }

  /* We should not get here. Remove compiler warning. */
  return NIOS2_EXCEPTION_RETURN_REISSUE_INST;
 230:	0005883a 	mov	r2,zero
}
 234:	e037883a 	mov	sp,fp
 238:	dfc00117 	ldw	ra,4(sp)
 23c:	df000017 	ldw	fp,0(sp)
 240:	dec00204 	addi	sp,sp,8
 244:	f800283a 	ret

Disassembly of section .text:

00000248 <_start>:

    /* Assume the data cache size is always a power of two. */
#if NIOS2_DCACHE_SIZE > 0x8000
    movhi r2, %hi(NIOS2_DCACHE_SIZE)
#else
    movui r2, NIOS2_DCACHE_SIZE
     248:	00820014 	movui	r2,2048
#endif

0:
    initd 0(r2)
     24c:	10000033 	initd	0(r2)
#ifdef NIOS2_ECC_PRESENT
    addi r2, r2, -4
#else
    addi r2, r2, -NIOS2_DCACHE_LINE_SIZE
     250:	10bff804 	addi	r2,r2,-32
#endif
    bgt r2, zero, 0b
     254:	00bffd16 	blt	zero,r2,24c <__alt_mem_onchip_memory+0xf780024c>

    /*
     * Now that the caches are initialized, set up the stack pointer and global pointer.
     * The values provided by the linker are assumed to be correctly aligned.
     */
    movhi sp, %hi(__alt_stack_pointer)
     258:	06c20034 	movhi	sp,2048
    ori sp, sp, %lo(__alt_stack_pointer)
     25c:	dec00014 	ori	sp,sp,0
    movhi gp, %hi(_gp)
     260:	06800074 	movhi	gp,1
    ori gp, gp, %lo(_gp)
     264:	d68d5f14 	ori	gp,gp,13692
 */
#ifndef ALT_SIM_OPTIMIZE
    /* Log that the BSS is about to be cleared. */
    ALT_LOG_PUTS(alt_log_msg_bss)

    movhi r2, %hi(__bss_start)
     268:	00800034 	movhi	r2,0
    ori r2, r2, %lo(__bss_start)
     26c:	10b50114 	ori	r2,r2,54276

    movhi r3, %hi(__bss_end)
     270:	00c00034 	movhi	r3,0
    ori r3, r3, %lo(__bss_end)
     274:	18f55614 	ori	r3,r3,54616

    beq r2, r3, 1f
     278:	10c00326 	beq	r2,r3,288 <_start+0x40>

0:
    stw zero, (r2)
     27c:	10000015 	stw	zero,0(r2)
    addi r2, r2, 4
     280:	10800104 	addi	r2,r2,4
    bltu r2, r3, 0b
     284:	10fffd36 	bltu	r2,r3,27c <__alt_mem_onchip_memory+0xf780027c>
     * section aren't defined until alt_load() has been called).
     */
    mov   et, zero
#endif

    call alt_load
     288:	00033fc0 	call	33fc <alt_load>

    /* Log that alt_main is about to be called. */
    ALT_LOG_PUTS(alt_log_msg_alt_main)

    /* Call the C entry point. It should never return. */
    call alt_main
     28c:	00035900 	call	3590 <alt_main>

00000290 <alt_after_alt_main>:

    /* Wait in infinite loop in case alt_main does return. */
alt_after_alt_main:
    br alt_after_alt_main
     290:	003fff06 	br	290 <__alt_mem_onchip_memory+0xf7800290>

00000294 <main>:
 */

#include <stdio.h>

int main()
{
     294:	defffe04 	addi	sp,sp,-8
     298:	dfc00115 	stw	ra,4(sp)
     29c:	df000015 	stw	fp,0(sp)
     2a0:	d839883a 	mov	fp,sp
  printf("Hello from Nios II!\n");
     2a4:	01000074 	movhi	r4,1
     2a8:	21257304 	addi	r4,r4,-27188
     2ac:	00003880 	call	388 <puts>

  return 0;
     2b0:	0005883a 	mov	r2,zero
}
     2b4:	e037883a 	mov	sp,fp
     2b8:	dfc00117 	ldw	ra,4(sp)
     2bc:	df000017 	ldw	fp,0(sp)
     2c0:	dec00204 	addi	sp,sp,8
     2c4:	f800283a 	ret

000002c8 <_puts_r>:
     2c8:	defff604 	addi	sp,sp,-40
     2cc:	dc000715 	stw	r16,28(sp)
     2d0:	2021883a 	mov	r16,r4
     2d4:	2809883a 	mov	r4,r5
     2d8:	dc400815 	stw	r17,32(sp)
     2dc:	dfc00915 	stw	ra,36(sp)
     2e0:	2823883a 	mov	r17,r5
     2e4:	000039c0 	call	39c <strlen>
     2e8:	10c00044 	addi	r3,r2,1
     2ec:	d8800115 	stw	r2,4(sp)
     2f0:	00800074 	movhi	r2,1
     2f4:	10a57804 	addi	r2,r2,-27168
     2f8:	d8800215 	stw	r2,8(sp)
     2fc:	00800044 	movi	r2,1
     300:	d8800315 	stw	r2,12(sp)
     304:	00800084 	movi	r2,2
     308:	dc400015 	stw	r17,0(sp)
     30c:	d8c00615 	stw	r3,24(sp)
     310:	dec00415 	stw	sp,16(sp)
     314:	d8800515 	stw	r2,20(sp)
     318:	80000226 	beq	r16,zero,324 <_puts_r+0x5c>
     31c:	80800e17 	ldw	r2,56(r16)
     320:	10001426 	beq	r2,zero,374 <_puts_r+0xac>
     324:	81400217 	ldw	r5,8(r16)
     328:	2880030b 	ldhu	r2,12(r5)
     32c:	10c8000c 	andi	r3,r2,8192
     330:	1800061e 	bne	r3,zero,34c <_puts_r+0x84>
     334:	29001917 	ldw	r4,100(r5)
     338:	00f7ffc4 	movi	r3,-8193
     33c:	10880014 	ori	r2,r2,8192
     340:	20c6703a 	and	r3,r4,r3
     344:	2880030d 	sth	r2,12(r5)
     348:	28c01915 	stw	r3,100(r5)
     34c:	d9800404 	addi	r6,sp,16
     350:	8009883a 	mov	r4,r16
     354:	00007d40 	call	7d4 <__sfvwrite_r>
     358:	1000091e 	bne	r2,zero,380 <_puts_r+0xb8>
     35c:	00800284 	movi	r2,10
     360:	dfc00917 	ldw	ra,36(sp)
     364:	dc400817 	ldw	r17,32(sp)
     368:	dc000717 	ldw	r16,28(sp)
     36c:	dec00a04 	addi	sp,sp,40
     370:	f800283a 	ret
     374:	8009883a 	mov	r4,r16
     378:	00007840 	call	784 <__sinit>
     37c:	003fe906 	br	324 <__alt_mem_onchip_memory+0xf7800324>
     380:	00bfffc4 	movi	r2,-1
     384:	003ff606 	br	360 <__alt_mem_onchip_memory+0xf7800360>

00000388 <puts>:
     388:	00800074 	movhi	r2,1
     38c:	10ad6004 	addi	r2,r2,-19072
     390:	200b883a 	mov	r5,r4
     394:	11000017 	ldw	r4,0(r2)
     398:	00002c81 	jmpi	2c8 <_puts_r>

0000039c <strlen>:
     39c:	208000cc 	andi	r2,r4,3
     3a0:	10002026 	beq	r2,zero,424 <strlen+0x88>
     3a4:	20800007 	ldb	r2,0(r4)
     3a8:	10002026 	beq	r2,zero,42c <strlen+0x90>
     3ac:	2005883a 	mov	r2,r4
     3b0:	00000206 	br	3bc <strlen+0x20>
     3b4:	10c00007 	ldb	r3,0(r2)
     3b8:	18001826 	beq	r3,zero,41c <strlen+0x80>
     3bc:	10800044 	addi	r2,r2,1
     3c0:	10c000cc 	andi	r3,r2,3
     3c4:	183ffb1e 	bne	r3,zero,3b4 <__alt_mem_onchip_memory+0xf78003b4>
     3c8:	10c00017 	ldw	r3,0(r2)
     3cc:	01ffbff4 	movhi	r7,65279
     3d0:	39ffbfc4 	addi	r7,r7,-257
     3d4:	00ca303a 	nor	r5,zero,r3
     3d8:	01a02074 	movhi	r6,32897
     3dc:	19c7883a 	add	r3,r3,r7
     3e0:	31a02004 	addi	r6,r6,-32640
     3e4:	1946703a 	and	r3,r3,r5
     3e8:	1986703a 	and	r3,r3,r6
     3ec:	1800091e 	bne	r3,zero,414 <strlen+0x78>
     3f0:	10800104 	addi	r2,r2,4
     3f4:	10c00017 	ldw	r3,0(r2)
     3f8:	19cb883a 	add	r5,r3,r7
     3fc:	00c6303a 	nor	r3,zero,r3
     400:	28c6703a 	and	r3,r5,r3
     404:	1986703a 	and	r3,r3,r6
     408:	183ff926 	beq	r3,zero,3f0 <__alt_mem_onchip_memory+0xf78003f0>
     40c:	00000106 	br	414 <strlen+0x78>
     410:	10800044 	addi	r2,r2,1
     414:	10c00007 	ldb	r3,0(r2)
     418:	183ffd1e 	bne	r3,zero,410 <__alt_mem_onchip_memory+0xf7800410>
     41c:	1105c83a 	sub	r2,r2,r4
     420:	f800283a 	ret
     424:	2005883a 	mov	r2,r4
     428:	003fe706 	br	3c8 <__alt_mem_onchip_memory+0xf78003c8>
     42c:	0005883a 	mov	r2,zero
     430:	f800283a 	ret

00000434 <__fp_unlock>:
     434:	0005883a 	mov	r2,zero
     438:	f800283a 	ret

0000043c <_cleanup_r>:
     43c:	01400034 	movhi	r5,0
     440:	2948f404 	addi	r5,r5,9168
     444:	0000d541 	jmpi	d54 <_fwalk_reent>

00000448 <__sinit.part.1>:
     448:	defff704 	addi	sp,sp,-36
     44c:	00c00034 	movhi	r3,0
     450:	dfc00815 	stw	ra,32(sp)
     454:	ddc00715 	stw	r23,28(sp)
     458:	dd800615 	stw	r22,24(sp)
     45c:	dd400515 	stw	r21,20(sp)
     460:	dd000415 	stw	r20,16(sp)
     464:	dcc00315 	stw	r19,12(sp)
     468:	dc800215 	stw	r18,8(sp)
     46c:	dc400115 	stw	r17,4(sp)
     470:	dc000015 	stw	r16,0(sp)
     474:	18c10f04 	addi	r3,r3,1084
     478:	24000117 	ldw	r16,4(r4)
     47c:	20c00f15 	stw	r3,60(r4)
     480:	2080bb04 	addi	r2,r4,748
     484:	00c000c4 	movi	r3,3
     488:	20c0b915 	stw	r3,740(r4)
     48c:	2080ba15 	stw	r2,744(r4)
     490:	2000b815 	stw	zero,736(r4)
     494:	05c00204 	movi	r23,8
     498:	00800104 	movi	r2,4
     49c:	2025883a 	mov	r18,r4
     4a0:	b80d883a 	mov	r6,r23
     4a4:	81001704 	addi	r4,r16,92
     4a8:	000b883a 	mov	r5,zero
     4ac:	80000015 	stw	zero,0(r16)
     4b0:	80000115 	stw	zero,4(r16)
     4b4:	80000215 	stw	zero,8(r16)
     4b8:	8080030d 	sth	r2,12(r16)
     4bc:	80001915 	stw	zero,100(r16)
     4c0:	8000038d 	sth	zero,14(r16)
     4c4:	80000415 	stw	zero,16(r16)
     4c8:	80000515 	stw	zero,20(r16)
     4cc:	80000615 	stw	zero,24(r16)
     4d0:	00019ac0 	call	19ac <memset>
     4d4:	05800034 	movhi	r22,0
     4d8:	94400217 	ldw	r17,8(r18)
     4dc:	05400034 	movhi	r21,0
     4e0:	05000034 	movhi	r20,0
     4e4:	04c00034 	movhi	r19,0
     4e8:	b5882304 	addi	r22,r22,8332
     4ec:	ad483a04 	addi	r21,r21,8424
     4f0:	a5085904 	addi	r20,r20,8548
     4f4:	9cc87004 	addi	r19,r19,8640
     4f8:	85800815 	stw	r22,32(r16)
     4fc:	85400915 	stw	r21,36(r16)
     500:	85000a15 	stw	r20,40(r16)
     504:	84c00b15 	stw	r19,44(r16)
     508:	84000715 	stw	r16,28(r16)
     50c:	00800284 	movi	r2,10
     510:	8880030d 	sth	r2,12(r17)
     514:	00800044 	movi	r2,1
     518:	b80d883a 	mov	r6,r23
     51c:	89001704 	addi	r4,r17,92
     520:	000b883a 	mov	r5,zero
     524:	88000015 	stw	zero,0(r17)
     528:	88000115 	stw	zero,4(r17)
     52c:	88000215 	stw	zero,8(r17)
     530:	88001915 	stw	zero,100(r17)
     534:	8880038d 	sth	r2,14(r17)
     538:	88000415 	stw	zero,16(r17)
     53c:	88000515 	stw	zero,20(r17)
     540:	88000615 	stw	zero,24(r17)
     544:	00019ac0 	call	19ac <memset>
     548:	94000317 	ldw	r16,12(r18)
     54c:	00800484 	movi	r2,18
     550:	8c400715 	stw	r17,28(r17)
     554:	8d800815 	stw	r22,32(r17)
     558:	8d400915 	stw	r21,36(r17)
     55c:	8d000a15 	stw	r20,40(r17)
     560:	8cc00b15 	stw	r19,44(r17)
     564:	8080030d 	sth	r2,12(r16)
     568:	00800084 	movi	r2,2
     56c:	80000015 	stw	zero,0(r16)
     570:	80000115 	stw	zero,4(r16)
     574:	80000215 	stw	zero,8(r16)
     578:	80001915 	stw	zero,100(r16)
     57c:	8080038d 	sth	r2,14(r16)
     580:	80000415 	stw	zero,16(r16)
     584:	80000515 	stw	zero,20(r16)
     588:	80000615 	stw	zero,24(r16)
     58c:	b80d883a 	mov	r6,r23
     590:	000b883a 	mov	r5,zero
     594:	81001704 	addi	r4,r16,92
     598:	00019ac0 	call	19ac <memset>
     59c:	00800044 	movi	r2,1
     5a0:	84000715 	stw	r16,28(r16)
     5a4:	85800815 	stw	r22,32(r16)
     5a8:	85400915 	stw	r21,36(r16)
     5ac:	85000a15 	stw	r20,40(r16)
     5b0:	84c00b15 	stw	r19,44(r16)
     5b4:	90800e15 	stw	r2,56(r18)
     5b8:	dfc00817 	ldw	ra,32(sp)
     5bc:	ddc00717 	ldw	r23,28(sp)
     5c0:	dd800617 	ldw	r22,24(sp)
     5c4:	dd400517 	ldw	r21,20(sp)
     5c8:	dd000417 	ldw	r20,16(sp)
     5cc:	dcc00317 	ldw	r19,12(sp)
     5d0:	dc800217 	ldw	r18,8(sp)
     5d4:	dc400117 	ldw	r17,4(sp)
     5d8:	dc000017 	ldw	r16,0(sp)
     5dc:	dec00904 	addi	sp,sp,36
     5e0:	f800283a 	ret

000005e4 <__fp_lock>:
     5e4:	0005883a 	mov	r2,zero
     5e8:	f800283a 	ret

000005ec <__sfmoreglue>:
     5ec:	defffc04 	addi	sp,sp,-16
     5f0:	dc400115 	stw	r17,4(sp)
     5f4:	2c7fffc4 	addi	r17,r5,-1
     5f8:	8c401a24 	muli	r17,r17,104
     5fc:	dc800215 	stw	r18,8(sp)
     600:	2825883a 	mov	r18,r5
     604:	89401d04 	addi	r5,r17,116
     608:	dc000015 	stw	r16,0(sp)
     60c:	dfc00315 	stw	ra,12(sp)
     610:	0000e180 	call	e18 <_malloc_r>
     614:	1021883a 	mov	r16,r2
     618:	10000726 	beq	r2,zero,638 <__sfmoreglue+0x4c>
     61c:	11000304 	addi	r4,r2,12
     620:	10000015 	stw	zero,0(r2)
     624:	14800115 	stw	r18,4(r2)
     628:	11000215 	stw	r4,8(r2)
     62c:	89801a04 	addi	r6,r17,104
     630:	000b883a 	mov	r5,zero
     634:	00019ac0 	call	19ac <memset>
     638:	8005883a 	mov	r2,r16
     63c:	dfc00317 	ldw	ra,12(sp)
     640:	dc800217 	ldw	r18,8(sp)
     644:	dc400117 	ldw	r17,4(sp)
     648:	dc000017 	ldw	r16,0(sp)
     64c:	dec00404 	addi	sp,sp,16
     650:	f800283a 	ret

00000654 <__sfp>:
     654:	defffb04 	addi	sp,sp,-20
     658:	dc000015 	stw	r16,0(sp)
     65c:	04000074 	movhi	r16,1
     660:	842d5f04 	addi	r16,r16,-19076
     664:	dcc00315 	stw	r19,12(sp)
     668:	2027883a 	mov	r19,r4
     66c:	81000017 	ldw	r4,0(r16)
     670:	dfc00415 	stw	ra,16(sp)
     674:	dc800215 	stw	r18,8(sp)
     678:	20800e17 	ldw	r2,56(r4)
     67c:	dc400115 	stw	r17,4(sp)
     680:	1000021e 	bne	r2,zero,68c <__sfp+0x38>
     684:	00004480 	call	448 <__sinit.part.1>
     688:	81000017 	ldw	r4,0(r16)
     68c:	2480b804 	addi	r18,r4,736
     690:	047fffc4 	movi	r17,-1
     694:	91000117 	ldw	r4,4(r18)
     698:	94000217 	ldw	r16,8(r18)
     69c:	213fffc4 	addi	r4,r4,-1
     6a0:	20000a16 	blt	r4,zero,6cc <__sfp+0x78>
     6a4:	8080030f 	ldh	r2,12(r16)
     6a8:	10000c26 	beq	r2,zero,6dc <__sfp+0x88>
     6ac:	80c01d04 	addi	r3,r16,116
     6b0:	00000206 	br	6bc <__sfp+0x68>
     6b4:	18bfe60f 	ldh	r2,-104(r3)
     6b8:	10000826 	beq	r2,zero,6dc <__sfp+0x88>
     6bc:	213fffc4 	addi	r4,r4,-1
     6c0:	1c3ffd04 	addi	r16,r3,-12
     6c4:	18c01a04 	addi	r3,r3,104
     6c8:	247ffa1e 	bne	r4,r17,6b4 <__alt_mem_onchip_memory+0xf78006b4>
     6cc:	90800017 	ldw	r2,0(r18)
     6d0:	10001d26 	beq	r2,zero,748 <__sfp+0xf4>
     6d4:	1025883a 	mov	r18,r2
     6d8:	003fee06 	br	694 <__alt_mem_onchip_memory+0xf7800694>
     6dc:	00bfffc4 	movi	r2,-1
     6e0:	8080038d 	sth	r2,14(r16)
     6e4:	00800044 	movi	r2,1
     6e8:	8080030d 	sth	r2,12(r16)
     6ec:	80001915 	stw	zero,100(r16)
     6f0:	80000015 	stw	zero,0(r16)
     6f4:	80000215 	stw	zero,8(r16)
     6f8:	80000115 	stw	zero,4(r16)
     6fc:	80000415 	stw	zero,16(r16)
     700:	80000515 	stw	zero,20(r16)
     704:	80000615 	stw	zero,24(r16)
     708:	01800204 	movi	r6,8
     70c:	000b883a 	mov	r5,zero
     710:	81001704 	addi	r4,r16,92
     714:	00019ac0 	call	19ac <memset>
     718:	8005883a 	mov	r2,r16
     71c:	80000c15 	stw	zero,48(r16)
     720:	80000d15 	stw	zero,52(r16)
     724:	80001115 	stw	zero,68(r16)
     728:	80001215 	stw	zero,72(r16)
     72c:	dfc00417 	ldw	ra,16(sp)
     730:	dcc00317 	ldw	r19,12(sp)
     734:	dc800217 	ldw	r18,8(sp)
     738:	dc400117 	ldw	r17,4(sp)
     73c:	dc000017 	ldw	r16,0(sp)
     740:	dec00504 	addi	sp,sp,20
     744:	f800283a 	ret
     748:	01400104 	movi	r5,4
     74c:	9809883a 	mov	r4,r19
     750:	00005ec0 	call	5ec <__sfmoreglue>
     754:	90800015 	stw	r2,0(r18)
     758:	103fde1e 	bne	r2,zero,6d4 <__alt_mem_onchip_memory+0xf78006d4>
     75c:	00800304 	movi	r2,12
     760:	98800015 	stw	r2,0(r19)
     764:	0005883a 	mov	r2,zero
     768:	003ff006 	br	72c <__alt_mem_onchip_memory+0xf780072c>

0000076c <_cleanup>:
     76c:	00800074 	movhi	r2,1
     770:	10ad5f04 	addi	r2,r2,-19076
     774:	11000017 	ldw	r4,0(r2)
     778:	01400034 	movhi	r5,0
     77c:	2948f404 	addi	r5,r5,9168
     780:	0000d541 	jmpi	d54 <_fwalk_reent>

00000784 <__sinit>:
     784:	20800e17 	ldw	r2,56(r4)
     788:	10000126 	beq	r2,zero,790 <__sinit+0xc>
     78c:	f800283a 	ret
     790:	00004481 	jmpi	448 <__sinit.part.1>

00000794 <__sfp_lock_acquire>:
     794:	f800283a 	ret

00000798 <__sfp_lock_release>:
     798:	f800283a 	ret

0000079c <__sinit_lock_acquire>:
     79c:	f800283a 	ret

000007a0 <__sinit_lock_release>:
     7a0:	f800283a 	ret

000007a4 <__fp_lock_all>:
     7a4:	00800074 	movhi	r2,1
     7a8:	10ad6004 	addi	r2,r2,-19072
     7ac:	11000017 	ldw	r4,0(r2)
     7b0:	01400034 	movhi	r5,0
     7b4:	29417904 	addi	r5,r5,1508
     7b8:	0000c901 	jmpi	c90 <_fwalk>

000007bc <__fp_unlock_all>:
     7bc:	00800074 	movhi	r2,1
     7c0:	10ad6004 	addi	r2,r2,-19072
     7c4:	11000017 	ldw	r4,0(r2)
     7c8:	01400034 	movhi	r5,0
     7cc:	29410d04 	addi	r5,r5,1076
     7d0:	0000c901 	jmpi	c90 <_fwalk>

000007d4 <__sfvwrite_r>:
     7d4:	30800217 	ldw	r2,8(r6)
     7d8:	10006726 	beq	r2,zero,978 <__sfvwrite_r+0x1a4>
     7dc:	28c0030b 	ldhu	r3,12(r5)
     7e0:	defff404 	addi	sp,sp,-48
     7e4:	dd400715 	stw	r21,28(sp)
     7e8:	dd000615 	stw	r20,24(sp)
     7ec:	dc000215 	stw	r16,8(sp)
     7f0:	dfc00b15 	stw	ra,44(sp)
     7f4:	df000a15 	stw	fp,40(sp)
     7f8:	ddc00915 	stw	r23,36(sp)
     7fc:	dd800815 	stw	r22,32(sp)
     800:	dcc00515 	stw	r19,20(sp)
     804:	dc800415 	stw	r18,16(sp)
     808:	dc400315 	stw	r17,12(sp)
     80c:	1880020c 	andi	r2,r3,8
     810:	2821883a 	mov	r16,r5
     814:	202b883a 	mov	r21,r4
     818:	3029883a 	mov	r20,r6
     81c:	10002726 	beq	r2,zero,8bc <__sfvwrite_r+0xe8>
     820:	28800417 	ldw	r2,16(r5)
     824:	10002526 	beq	r2,zero,8bc <__sfvwrite_r+0xe8>
     828:	1880008c 	andi	r2,r3,2
     82c:	a4400017 	ldw	r17,0(r20)
     830:	10002a26 	beq	r2,zero,8dc <__sfvwrite_r+0x108>
     834:	05a00034 	movhi	r22,32768
     838:	0027883a 	mov	r19,zero
     83c:	0025883a 	mov	r18,zero
     840:	b5bf0004 	addi	r22,r22,-1024
     844:	980d883a 	mov	r6,r19
     848:	a809883a 	mov	r4,r21
     84c:	90004626 	beq	r18,zero,968 <__sfvwrite_r+0x194>
     850:	900f883a 	mov	r7,r18
     854:	b480022e 	bgeu	r22,r18,860 <__sfvwrite_r+0x8c>
     858:	01e00034 	movhi	r7,32768
     85c:	39ff0004 	addi	r7,r7,-1024
     860:	80800917 	ldw	r2,36(r16)
     864:	81400717 	ldw	r5,28(r16)
     868:	103ee83a 	callr	r2
     86c:	0080570e 	bge	zero,r2,9cc <__sfvwrite_r+0x1f8>
     870:	a0c00217 	ldw	r3,8(r20)
     874:	98a7883a 	add	r19,r19,r2
     878:	90a5c83a 	sub	r18,r18,r2
     87c:	1885c83a 	sub	r2,r3,r2
     880:	a0800215 	stw	r2,8(r20)
     884:	103fef1e 	bne	r2,zero,844 <__alt_mem_onchip_memory+0xf7800844>
     888:	0005883a 	mov	r2,zero
     88c:	dfc00b17 	ldw	ra,44(sp)
     890:	df000a17 	ldw	fp,40(sp)
     894:	ddc00917 	ldw	r23,36(sp)
     898:	dd800817 	ldw	r22,32(sp)
     89c:	dd400717 	ldw	r21,28(sp)
     8a0:	dd000617 	ldw	r20,24(sp)
     8a4:	dcc00517 	ldw	r19,20(sp)
     8a8:	dc800417 	ldw	r18,16(sp)
     8ac:	dc400317 	ldw	r17,12(sp)
     8b0:	dc000217 	ldw	r16,8(sp)
     8b4:	dec00c04 	addi	sp,sp,48
     8b8:	f800283a 	ret
     8bc:	800b883a 	mov	r5,r16
     8c0:	a809883a 	mov	r4,r21
     8c4:	00022280 	call	2228 <__swsetup_r>
     8c8:	1000eb1e 	bne	r2,zero,c78 <__sfvwrite_r+0x4a4>
     8cc:	80c0030b 	ldhu	r3,12(r16)
     8d0:	a4400017 	ldw	r17,0(r20)
     8d4:	1880008c 	andi	r2,r3,2
     8d8:	103fd61e 	bne	r2,zero,834 <__alt_mem_onchip_memory+0xf7800834>
     8dc:	1880004c 	andi	r2,r3,1
     8e0:	10003f1e 	bne	r2,zero,9e0 <__sfvwrite_r+0x20c>
     8e4:	0039883a 	mov	fp,zero
     8e8:	0025883a 	mov	r18,zero
     8ec:	90001a26 	beq	r18,zero,958 <__sfvwrite_r+0x184>
     8f0:	1880800c 	andi	r2,r3,512
     8f4:	84c00217 	ldw	r19,8(r16)
     8f8:	10002126 	beq	r2,zero,980 <__sfvwrite_r+0x1ac>
     8fc:	982f883a 	mov	r23,r19
     900:	94c09336 	bltu	r18,r19,b50 <__sfvwrite_r+0x37c>
     904:	1881200c 	andi	r2,r3,1152
     908:	10009e1e 	bne	r2,zero,b84 <__sfvwrite_r+0x3b0>
     90c:	81000017 	ldw	r4,0(r16)
     910:	b80d883a 	mov	r6,r23
     914:	e00b883a 	mov	r5,fp
     918:	00018500 	call	1850 <memmove>
     91c:	80c00217 	ldw	r3,8(r16)
     920:	81000017 	ldw	r4,0(r16)
     924:	9005883a 	mov	r2,r18
     928:	1ce7c83a 	sub	r19,r3,r19
     92c:	25cf883a 	add	r7,r4,r23
     930:	84c00215 	stw	r19,8(r16)
     934:	81c00015 	stw	r7,0(r16)
     938:	a0c00217 	ldw	r3,8(r20)
     93c:	e0b9883a 	add	fp,fp,r2
     940:	90a5c83a 	sub	r18,r18,r2
     944:	18a7c83a 	sub	r19,r3,r2
     948:	a4c00215 	stw	r19,8(r20)
     94c:	983fce26 	beq	r19,zero,888 <__alt_mem_onchip_memory+0xf7800888>
     950:	80c0030b 	ldhu	r3,12(r16)
     954:	903fe61e 	bne	r18,zero,8f0 <__alt_mem_onchip_memory+0xf78008f0>
     958:	8f000017 	ldw	fp,0(r17)
     95c:	8c800117 	ldw	r18,4(r17)
     960:	8c400204 	addi	r17,r17,8
     964:	003fe106 	br	8ec <__alt_mem_onchip_memory+0xf78008ec>
     968:	8cc00017 	ldw	r19,0(r17)
     96c:	8c800117 	ldw	r18,4(r17)
     970:	8c400204 	addi	r17,r17,8
     974:	003fb306 	br	844 <__alt_mem_onchip_memory+0xf7800844>
     978:	0005883a 	mov	r2,zero
     97c:	f800283a 	ret
     980:	81000017 	ldw	r4,0(r16)
     984:	80800417 	ldw	r2,16(r16)
     988:	11005736 	bltu	r2,r4,ae8 <__sfvwrite_r+0x314>
     98c:	85c00517 	ldw	r23,20(r16)
     990:	95c05536 	bltu	r18,r23,ae8 <__sfvwrite_r+0x314>
     994:	00a00034 	movhi	r2,32768
     998:	10bfffc4 	addi	r2,r2,-1
     99c:	9009883a 	mov	r4,r18
     9a0:	1480012e 	bgeu	r2,r18,9a8 <__sfvwrite_r+0x1d4>
     9a4:	1009883a 	mov	r4,r2
     9a8:	b80b883a 	mov	r5,r23
     9ac:	0002edc0 	call	2edc <__divsi3>
     9b0:	15cf383a 	mul	r7,r2,r23
     9b4:	81400717 	ldw	r5,28(r16)
     9b8:	80800917 	ldw	r2,36(r16)
     9bc:	e00d883a 	mov	r6,fp
     9c0:	a809883a 	mov	r4,r21
     9c4:	103ee83a 	callr	r2
     9c8:	00bfdb16 	blt	zero,r2,938 <__alt_mem_onchip_memory+0xf7800938>
     9cc:	8080030b 	ldhu	r2,12(r16)
     9d0:	10801014 	ori	r2,r2,64
     9d4:	8080030d 	sth	r2,12(r16)
     9d8:	00bfffc4 	movi	r2,-1
     9dc:	003fab06 	br	88c <__alt_mem_onchip_memory+0xf780088c>
     9e0:	0027883a 	mov	r19,zero
     9e4:	0011883a 	mov	r8,zero
     9e8:	0039883a 	mov	fp,zero
     9ec:	0025883a 	mov	r18,zero
     9f0:	90001f26 	beq	r18,zero,a70 <__sfvwrite_r+0x29c>
     9f4:	40005a26 	beq	r8,zero,b60 <__sfvwrite_r+0x38c>
     9f8:	982d883a 	mov	r22,r19
     9fc:	94c0012e 	bgeu	r18,r19,a04 <__sfvwrite_r+0x230>
     a00:	902d883a 	mov	r22,r18
     a04:	81000017 	ldw	r4,0(r16)
     a08:	80800417 	ldw	r2,16(r16)
     a0c:	b02f883a 	mov	r23,r22
     a10:	81c00517 	ldw	r7,20(r16)
     a14:	1100032e 	bgeu	r2,r4,a24 <__sfvwrite_r+0x250>
     a18:	80c00217 	ldw	r3,8(r16)
     a1c:	38c7883a 	add	r3,r7,r3
     a20:	1d801816 	blt	r3,r22,a84 <__sfvwrite_r+0x2b0>
     a24:	b1c03e16 	blt	r22,r7,b20 <__sfvwrite_r+0x34c>
     a28:	80800917 	ldw	r2,36(r16)
     a2c:	81400717 	ldw	r5,28(r16)
     a30:	e00d883a 	mov	r6,fp
     a34:	da000115 	stw	r8,4(sp)
     a38:	a809883a 	mov	r4,r21
     a3c:	103ee83a 	callr	r2
     a40:	102f883a 	mov	r23,r2
     a44:	da000117 	ldw	r8,4(sp)
     a48:	00bfe00e 	bge	zero,r2,9cc <__alt_mem_onchip_memory+0xf78009cc>
     a4c:	9de7c83a 	sub	r19,r19,r23
     a50:	98001f26 	beq	r19,zero,ad0 <__sfvwrite_r+0x2fc>
     a54:	a0800217 	ldw	r2,8(r20)
     a58:	e5f9883a 	add	fp,fp,r23
     a5c:	95e5c83a 	sub	r18,r18,r23
     a60:	15efc83a 	sub	r23,r2,r23
     a64:	a5c00215 	stw	r23,8(r20)
     a68:	b83f8726 	beq	r23,zero,888 <__alt_mem_onchip_memory+0xf7800888>
     a6c:	903fe11e 	bne	r18,zero,9f4 <__alt_mem_onchip_memory+0xf78009f4>
     a70:	8f000017 	ldw	fp,0(r17)
     a74:	8c800117 	ldw	r18,4(r17)
     a78:	0011883a 	mov	r8,zero
     a7c:	8c400204 	addi	r17,r17,8
     a80:	003fdb06 	br	9f0 <__alt_mem_onchip_memory+0xf78009f0>
     a84:	180d883a 	mov	r6,r3
     a88:	e00b883a 	mov	r5,fp
     a8c:	da000115 	stw	r8,4(sp)
     a90:	d8c00015 	stw	r3,0(sp)
     a94:	00018500 	call	1850 <memmove>
     a98:	d8c00017 	ldw	r3,0(sp)
     a9c:	80800017 	ldw	r2,0(r16)
     aa0:	800b883a 	mov	r5,r16
     aa4:	a809883a 	mov	r4,r21
     aa8:	10c5883a 	add	r2,r2,r3
     aac:	80800015 	stw	r2,0(r16)
     ab0:	d8c00015 	stw	r3,0(sp)
     ab4:	00026f00 	call	26f0 <_fflush_r>
     ab8:	d8c00017 	ldw	r3,0(sp)
     abc:	da000117 	ldw	r8,4(sp)
     ac0:	103fc21e 	bne	r2,zero,9cc <__alt_mem_onchip_memory+0xf78009cc>
     ac4:	182f883a 	mov	r23,r3
     ac8:	9de7c83a 	sub	r19,r19,r23
     acc:	983fe11e 	bne	r19,zero,a54 <__alt_mem_onchip_memory+0xf7800a54>
     ad0:	800b883a 	mov	r5,r16
     ad4:	a809883a 	mov	r4,r21
     ad8:	00026f00 	call	26f0 <_fflush_r>
     adc:	103fbb1e 	bne	r2,zero,9cc <__alt_mem_onchip_memory+0xf78009cc>
     ae0:	0011883a 	mov	r8,zero
     ae4:	003fdb06 	br	a54 <__alt_mem_onchip_memory+0xf7800a54>
     ae8:	94c0012e 	bgeu	r18,r19,af0 <__sfvwrite_r+0x31c>
     aec:	9027883a 	mov	r19,r18
     af0:	980d883a 	mov	r6,r19
     af4:	e00b883a 	mov	r5,fp
     af8:	00018500 	call	1850 <memmove>
     afc:	80800217 	ldw	r2,8(r16)
     b00:	80c00017 	ldw	r3,0(r16)
     b04:	14c5c83a 	sub	r2,r2,r19
     b08:	1cc7883a 	add	r3,r3,r19
     b0c:	80800215 	stw	r2,8(r16)
     b10:	80c00015 	stw	r3,0(r16)
     b14:	10004326 	beq	r2,zero,c24 <__sfvwrite_r+0x450>
     b18:	9805883a 	mov	r2,r19
     b1c:	003f8606 	br	938 <__alt_mem_onchip_memory+0xf7800938>
     b20:	b00d883a 	mov	r6,r22
     b24:	e00b883a 	mov	r5,fp
     b28:	da000115 	stw	r8,4(sp)
     b2c:	00018500 	call	1850 <memmove>
     b30:	80800217 	ldw	r2,8(r16)
     b34:	80c00017 	ldw	r3,0(r16)
     b38:	da000117 	ldw	r8,4(sp)
     b3c:	1585c83a 	sub	r2,r2,r22
     b40:	1dad883a 	add	r22,r3,r22
     b44:	80800215 	stw	r2,8(r16)
     b48:	85800015 	stw	r22,0(r16)
     b4c:	003fbf06 	br	a4c <__alt_mem_onchip_memory+0xf7800a4c>
     b50:	81000017 	ldw	r4,0(r16)
     b54:	9027883a 	mov	r19,r18
     b58:	902f883a 	mov	r23,r18
     b5c:	003f6c06 	br	910 <__alt_mem_onchip_memory+0xf7800910>
     b60:	900d883a 	mov	r6,r18
     b64:	01400284 	movi	r5,10
     b68:	e009883a 	mov	r4,fp
     b6c:	00016240 	call	1624 <memchr>
     b70:	10003e26 	beq	r2,zero,c6c <__sfvwrite_r+0x498>
     b74:	10800044 	addi	r2,r2,1
     b78:	1727c83a 	sub	r19,r2,fp
     b7c:	02000044 	movi	r8,1
     b80:	003f9d06 	br	9f8 <__alt_mem_onchip_memory+0xf78009f8>
     b84:	80800517 	ldw	r2,20(r16)
     b88:	81400417 	ldw	r5,16(r16)
     b8c:	81c00017 	ldw	r7,0(r16)
     b90:	10a7883a 	add	r19,r2,r2
     b94:	9885883a 	add	r2,r19,r2
     b98:	1026d7fa 	srli	r19,r2,31
     b9c:	396dc83a 	sub	r22,r7,r5
     ba0:	b1000044 	addi	r4,r22,1
     ba4:	9885883a 	add	r2,r19,r2
     ba8:	1027d07a 	srai	r19,r2,1
     bac:	2485883a 	add	r2,r4,r18
     bb0:	980d883a 	mov	r6,r19
     bb4:	9880022e 	bgeu	r19,r2,bc0 <__sfvwrite_r+0x3ec>
     bb8:	1027883a 	mov	r19,r2
     bbc:	100d883a 	mov	r6,r2
     bc0:	18c1000c 	andi	r3,r3,1024
     bc4:	18001c26 	beq	r3,zero,c38 <__sfvwrite_r+0x464>
     bc8:	300b883a 	mov	r5,r6
     bcc:	a809883a 	mov	r4,r21
     bd0:	0000e180 	call	e18 <_malloc_r>
     bd4:	102f883a 	mov	r23,r2
     bd8:	10002926 	beq	r2,zero,c80 <__sfvwrite_r+0x4ac>
     bdc:	81400417 	ldw	r5,16(r16)
     be0:	b00d883a 	mov	r6,r22
     be4:	1009883a 	mov	r4,r2
     be8:	00017080 	call	1708 <memcpy>
     bec:	8080030b 	ldhu	r2,12(r16)
     bf0:	00fedfc4 	movi	r3,-1153
     bf4:	10c4703a 	and	r2,r2,r3
     bf8:	10802014 	ori	r2,r2,128
     bfc:	8080030d 	sth	r2,12(r16)
     c00:	bd89883a 	add	r4,r23,r22
     c04:	9d8fc83a 	sub	r7,r19,r22
     c08:	85c00415 	stw	r23,16(r16)
     c0c:	84c00515 	stw	r19,20(r16)
     c10:	81000015 	stw	r4,0(r16)
     c14:	9027883a 	mov	r19,r18
     c18:	81c00215 	stw	r7,8(r16)
     c1c:	902f883a 	mov	r23,r18
     c20:	003f3b06 	br	910 <__alt_mem_onchip_memory+0xf7800910>
     c24:	800b883a 	mov	r5,r16
     c28:	a809883a 	mov	r4,r21
     c2c:	00026f00 	call	26f0 <_fflush_r>
     c30:	103fb926 	beq	r2,zero,b18 <__alt_mem_onchip_memory+0xf7800b18>
     c34:	003f6506 	br	9cc <__alt_mem_onchip_memory+0xf78009cc>
     c38:	a809883a 	mov	r4,r21
     c3c:	0001ad40 	call	1ad4 <_realloc_r>
     c40:	102f883a 	mov	r23,r2
     c44:	103fee1e 	bne	r2,zero,c00 <__alt_mem_onchip_memory+0xf7800c00>
     c48:	81400417 	ldw	r5,16(r16)
     c4c:	a809883a 	mov	r4,r21
     c50:	00028a00 	call	28a0 <_free_r>
     c54:	8080030b 	ldhu	r2,12(r16)
     c58:	00ffdfc4 	movi	r3,-129
     c5c:	1884703a 	and	r2,r3,r2
     c60:	00c00304 	movi	r3,12
     c64:	a8c00015 	stw	r3,0(r21)
     c68:	003f5906 	br	9d0 <__alt_mem_onchip_memory+0xf78009d0>
     c6c:	94c00044 	addi	r19,r18,1
     c70:	02000044 	movi	r8,1
     c74:	003f6006 	br	9f8 <__alt_mem_onchip_memory+0xf78009f8>
     c78:	00bfffc4 	movi	r2,-1
     c7c:	003f0306 	br	88c <__alt_mem_onchip_memory+0xf780088c>
     c80:	00800304 	movi	r2,12
     c84:	a8800015 	stw	r2,0(r21)
     c88:	8080030b 	ldhu	r2,12(r16)
     c8c:	003f5006 	br	9d0 <__alt_mem_onchip_memory+0xf78009d0>

00000c90 <_fwalk>:
     c90:	defff704 	addi	sp,sp,-36
     c94:	dd000415 	stw	r20,16(sp)
     c98:	dfc00815 	stw	ra,32(sp)
     c9c:	ddc00715 	stw	r23,28(sp)
     ca0:	dd800615 	stw	r22,24(sp)
     ca4:	dd400515 	stw	r21,20(sp)
     ca8:	dcc00315 	stw	r19,12(sp)
     cac:	dc800215 	stw	r18,8(sp)
     cb0:	dc400115 	stw	r17,4(sp)
     cb4:	dc000015 	stw	r16,0(sp)
     cb8:	2500b804 	addi	r20,r4,736
     cbc:	a0002326 	beq	r20,zero,d4c <_fwalk+0xbc>
     cc0:	282b883a 	mov	r21,r5
     cc4:	002f883a 	mov	r23,zero
     cc8:	05800044 	movi	r22,1
     ccc:	04ffffc4 	movi	r19,-1
     cd0:	a4400117 	ldw	r17,4(r20)
     cd4:	a4800217 	ldw	r18,8(r20)
     cd8:	8c7fffc4 	addi	r17,r17,-1
     cdc:	88000d16 	blt	r17,zero,d14 <_fwalk+0x84>
     ce0:	94000304 	addi	r16,r18,12
     ce4:	94800384 	addi	r18,r18,14
     ce8:	8080000b 	ldhu	r2,0(r16)
     cec:	8c7fffc4 	addi	r17,r17,-1
     cf0:	813ffd04 	addi	r4,r16,-12
     cf4:	b080042e 	bgeu	r22,r2,d08 <_fwalk+0x78>
     cf8:	9080000f 	ldh	r2,0(r18)
     cfc:	14c00226 	beq	r2,r19,d08 <_fwalk+0x78>
     d00:	a83ee83a 	callr	r21
     d04:	b8aeb03a 	or	r23,r23,r2
     d08:	84001a04 	addi	r16,r16,104
     d0c:	94801a04 	addi	r18,r18,104
     d10:	8cfff51e 	bne	r17,r19,ce8 <__alt_mem_onchip_memory+0xf7800ce8>
     d14:	a5000017 	ldw	r20,0(r20)
     d18:	a03fed1e 	bne	r20,zero,cd0 <__alt_mem_onchip_memory+0xf7800cd0>
     d1c:	b805883a 	mov	r2,r23
     d20:	dfc00817 	ldw	ra,32(sp)
     d24:	ddc00717 	ldw	r23,28(sp)
     d28:	dd800617 	ldw	r22,24(sp)
     d2c:	dd400517 	ldw	r21,20(sp)
     d30:	dd000417 	ldw	r20,16(sp)
     d34:	dcc00317 	ldw	r19,12(sp)
     d38:	dc800217 	ldw	r18,8(sp)
     d3c:	dc400117 	ldw	r17,4(sp)
     d40:	dc000017 	ldw	r16,0(sp)
     d44:	dec00904 	addi	sp,sp,36
     d48:	f800283a 	ret
     d4c:	002f883a 	mov	r23,zero
     d50:	003ff206 	br	d1c <__alt_mem_onchip_memory+0xf7800d1c>

00000d54 <_fwalk_reent>:
     d54:	defff704 	addi	sp,sp,-36
     d58:	dd000415 	stw	r20,16(sp)
     d5c:	dfc00815 	stw	ra,32(sp)
     d60:	ddc00715 	stw	r23,28(sp)
     d64:	dd800615 	stw	r22,24(sp)
     d68:	dd400515 	stw	r21,20(sp)
     d6c:	dcc00315 	stw	r19,12(sp)
     d70:	dc800215 	stw	r18,8(sp)
     d74:	dc400115 	stw	r17,4(sp)
     d78:	dc000015 	stw	r16,0(sp)
     d7c:	2500b804 	addi	r20,r4,736
     d80:	a0002326 	beq	r20,zero,e10 <_fwalk_reent+0xbc>
     d84:	282b883a 	mov	r21,r5
     d88:	2027883a 	mov	r19,r4
     d8c:	002f883a 	mov	r23,zero
     d90:	05800044 	movi	r22,1
     d94:	04bfffc4 	movi	r18,-1
     d98:	a4400117 	ldw	r17,4(r20)
     d9c:	a4000217 	ldw	r16,8(r20)
     da0:	8c7fffc4 	addi	r17,r17,-1
     da4:	88000c16 	blt	r17,zero,dd8 <_fwalk_reent+0x84>
     da8:	84000304 	addi	r16,r16,12
     dac:	8080000b 	ldhu	r2,0(r16)
     db0:	8c7fffc4 	addi	r17,r17,-1
     db4:	817ffd04 	addi	r5,r16,-12
     db8:	b080052e 	bgeu	r22,r2,dd0 <_fwalk_reent+0x7c>
     dbc:	8080008f 	ldh	r2,2(r16)
     dc0:	9809883a 	mov	r4,r19
     dc4:	14800226 	beq	r2,r18,dd0 <_fwalk_reent+0x7c>
     dc8:	a83ee83a 	callr	r21
     dcc:	b8aeb03a 	or	r23,r23,r2
     dd0:	84001a04 	addi	r16,r16,104
     dd4:	8cbff51e 	bne	r17,r18,dac <__alt_mem_onchip_memory+0xf7800dac>
     dd8:	a5000017 	ldw	r20,0(r20)
     ddc:	a03fee1e 	bne	r20,zero,d98 <__alt_mem_onchip_memory+0xf7800d98>
     de0:	b805883a 	mov	r2,r23
     de4:	dfc00817 	ldw	ra,32(sp)
     de8:	ddc00717 	ldw	r23,28(sp)
     dec:	dd800617 	ldw	r22,24(sp)
     df0:	dd400517 	ldw	r21,20(sp)
     df4:	dd000417 	ldw	r20,16(sp)
     df8:	dcc00317 	ldw	r19,12(sp)
     dfc:	dc800217 	ldw	r18,8(sp)
     e00:	dc400117 	ldw	r17,4(sp)
     e04:	dc000017 	ldw	r16,0(sp)
     e08:	dec00904 	addi	sp,sp,36
     e0c:	f800283a 	ret
     e10:	002f883a 	mov	r23,zero
     e14:	003ff206 	br	de0 <__alt_mem_onchip_memory+0xf7800de0>

00000e18 <_malloc_r>:
     e18:	defff504 	addi	sp,sp,-44
     e1c:	dc800315 	stw	r18,12(sp)
     e20:	dfc00a15 	stw	ra,40(sp)
     e24:	df000915 	stw	fp,36(sp)
     e28:	ddc00815 	stw	r23,32(sp)
     e2c:	dd800715 	stw	r22,28(sp)
     e30:	dd400615 	stw	r21,24(sp)
     e34:	dd000515 	stw	r20,20(sp)
     e38:	dcc00415 	stw	r19,16(sp)
     e3c:	dc400215 	stw	r17,8(sp)
     e40:	dc000115 	stw	r16,4(sp)
     e44:	288002c4 	addi	r2,r5,11
     e48:	00c00584 	movi	r3,22
     e4c:	2025883a 	mov	r18,r4
     e50:	18807f2e 	bgeu	r3,r2,1050 <_malloc_r+0x238>
     e54:	047ffe04 	movi	r17,-8
     e58:	1462703a 	and	r17,r2,r17
     e5c:	8800a316 	blt	r17,zero,10ec <_malloc_r+0x2d4>
     e60:	8940a236 	bltu	r17,r5,10ec <_malloc_r+0x2d4>
     e64:	000360c0 	call	360c <__malloc_lock>
     e68:	00807dc4 	movi	r2,503
     e6c:	1441e92e 	bgeu	r2,r17,1614 <_malloc_r+0x7fc>
     e70:	8804d27a 	srli	r2,r17,9
     e74:	1000a126 	beq	r2,zero,10fc <_malloc_r+0x2e4>
     e78:	00c00104 	movi	r3,4
     e7c:	18811e36 	bltu	r3,r2,12f8 <_malloc_r+0x4e0>
     e80:	8804d1ba 	srli	r2,r17,6
     e84:	12000e44 	addi	r8,r2,57
     e88:	11c00e04 	addi	r7,r2,56
     e8c:	4209883a 	add	r4,r8,r8
     e90:	04c00074 	movhi	r19,1
     e94:	2109883a 	add	r4,r4,r4
     e98:	9ce6e604 	addi	r19,r19,-25704
     e9c:	2109883a 	add	r4,r4,r4
     ea0:	9909883a 	add	r4,r19,r4
     ea4:	24000117 	ldw	r16,4(r4)
     ea8:	213ffe04 	addi	r4,r4,-8
     eac:	24009726 	beq	r4,r16,110c <_malloc_r+0x2f4>
     eb0:	80800117 	ldw	r2,4(r16)
     eb4:	01bfff04 	movi	r6,-4
     eb8:	014003c4 	movi	r5,15
     ebc:	1184703a 	and	r2,r2,r6
     ec0:	1447c83a 	sub	r3,r2,r17
     ec4:	28c00716 	blt	r5,r3,ee4 <_malloc_r+0xcc>
     ec8:	1800920e 	bge	r3,zero,1114 <_malloc_r+0x2fc>
     ecc:	84000317 	ldw	r16,12(r16)
     ed0:	24008e26 	beq	r4,r16,110c <_malloc_r+0x2f4>
     ed4:	80800117 	ldw	r2,4(r16)
     ed8:	1184703a 	and	r2,r2,r6
     edc:	1447c83a 	sub	r3,r2,r17
     ee0:	28fff90e 	bge	r5,r3,ec8 <__alt_mem_onchip_memory+0xf7800ec8>
     ee4:	3809883a 	mov	r4,r7
     ee8:	01800074 	movhi	r6,1
     eec:	9c000417 	ldw	r16,16(r19)
     ef0:	31a6e604 	addi	r6,r6,-25704
     ef4:	32000204 	addi	r8,r6,8
     ef8:	82013426 	beq	r16,r8,13cc <_malloc_r+0x5b4>
     efc:	80c00117 	ldw	r3,4(r16)
     f00:	00bfff04 	movi	r2,-4
     f04:	188e703a 	and	r7,r3,r2
     f08:	3c45c83a 	sub	r2,r7,r17
     f0c:	00c003c4 	movi	r3,15
     f10:	18811f16 	blt	r3,r2,1390 <_malloc_r+0x578>
     f14:	32000515 	stw	r8,20(r6)
     f18:	32000415 	stw	r8,16(r6)
     f1c:	10007f0e 	bge	r2,zero,111c <_malloc_r+0x304>
     f20:	00807fc4 	movi	r2,511
     f24:	11c0fd36 	bltu	r2,r7,131c <_malloc_r+0x504>
     f28:	3806d0fa 	srli	r3,r7,3
     f2c:	01c00044 	movi	r7,1
     f30:	30800117 	ldw	r2,4(r6)
     f34:	19400044 	addi	r5,r3,1
     f38:	294b883a 	add	r5,r5,r5
     f3c:	1807d0ba 	srai	r3,r3,2
     f40:	294b883a 	add	r5,r5,r5
     f44:	294b883a 	add	r5,r5,r5
     f48:	298b883a 	add	r5,r5,r6
     f4c:	38c6983a 	sll	r3,r7,r3
     f50:	29c00017 	ldw	r7,0(r5)
     f54:	2a7ffe04 	addi	r9,r5,-8
     f58:	1886b03a 	or	r3,r3,r2
     f5c:	82400315 	stw	r9,12(r16)
     f60:	81c00215 	stw	r7,8(r16)
     f64:	30c00115 	stw	r3,4(r6)
     f68:	2c000015 	stw	r16,0(r5)
     f6c:	3c000315 	stw	r16,12(r7)
     f70:	2005d0ba 	srai	r2,r4,2
     f74:	01400044 	movi	r5,1
     f78:	288a983a 	sll	r5,r5,r2
     f7c:	19406f36 	bltu	r3,r5,113c <_malloc_r+0x324>
     f80:	28c4703a 	and	r2,r5,r3
     f84:	10000a1e 	bne	r2,zero,fb0 <_malloc_r+0x198>
     f88:	00bfff04 	movi	r2,-4
     f8c:	294b883a 	add	r5,r5,r5
     f90:	2088703a 	and	r4,r4,r2
     f94:	28c4703a 	and	r2,r5,r3
     f98:	21000104 	addi	r4,r4,4
     f9c:	1000041e 	bne	r2,zero,fb0 <_malloc_r+0x198>
     fa0:	294b883a 	add	r5,r5,r5
     fa4:	28c4703a 	and	r2,r5,r3
     fa8:	21000104 	addi	r4,r4,4
     fac:	103ffc26 	beq	r2,zero,fa0 <__alt_mem_onchip_memory+0xf7800fa0>
     fb0:	02bfff04 	movi	r10,-4
     fb4:	024003c4 	movi	r9,15
     fb8:	21800044 	addi	r6,r4,1
     fbc:	318d883a 	add	r6,r6,r6
     fc0:	318d883a 	add	r6,r6,r6
     fc4:	318d883a 	add	r6,r6,r6
     fc8:	998d883a 	add	r6,r19,r6
     fcc:	333ffe04 	addi	r12,r6,-8
     fd0:	2017883a 	mov	r11,r4
     fd4:	31800104 	addi	r6,r6,4
     fd8:	34000017 	ldw	r16,0(r6)
     fdc:	31fffd04 	addi	r7,r6,-12
     fe0:	81c0041e 	bne	r16,r7,ff4 <_malloc_r+0x1dc>
     fe4:	0000fb06 	br	13d4 <_malloc_r+0x5bc>
     fe8:	1801030e 	bge	r3,zero,13f8 <_malloc_r+0x5e0>
     fec:	84000317 	ldw	r16,12(r16)
     ff0:	81c0f826 	beq	r16,r7,13d4 <_malloc_r+0x5bc>
     ff4:	80800117 	ldw	r2,4(r16)
     ff8:	1284703a 	and	r2,r2,r10
     ffc:	1447c83a 	sub	r3,r2,r17
    1000:	48fff90e 	bge	r9,r3,fe8 <__alt_mem_onchip_memory+0xf7800fe8>
    1004:	80800317 	ldw	r2,12(r16)
    1008:	81000217 	ldw	r4,8(r16)
    100c:	89400054 	ori	r5,r17,1
    1010:	81400115 	stw	r5,4(r16)
    1014:	20800315 	stw	r2,12(r4)
    1018:	11000215 	stw	r4,8(r2)
    101c:	8463883a 	add	r17,r16,r17
    1020:	9c400515 	stw	r17,20(r19)
    1024:	9c400415 	stw	r17,16(r19)
    1028:	18800054 	ori	r2,r3,1
    102c:	88800115 	stw	r2,4(r17)
    1030:	8a000315 	stw	r8,12(r17)
    1034:	8a000215 	stw	r8,8(r17)
    1038:	88e3883a 	add	r17,r17,r3
    103c:	88c00015 	stw	r3,0(r17)
    1040:	9009883a 	mov	r4,r18
    1044:	00036300 	call	3630 <__malloc_unlock>
    1048:	80800204 	addi	r2,r16,8
    104c:	00001b06 	br	10bc <_malloc_r+0x2a4>
    1050:	04400404 	movi	r17,16
    1054:	89402536 	bltu	r17,r5,10ec <_malloc_r+0x2d4>
    1058:	000360c0 	call	360c <__malloc_lock>
    105c:	00800184 	movi	r2,6
    1060:	01000084 	movi	r4,2
    1064:	04c00074 	movhi	r19,1
    1068:	1085883a 	add	r2,r2,r2
    106c:	9ce6e604 	addi	r19,r19,-25704
    1070:	1085883a 	add	r2,r2,r2
    1074:	9885883a 	add	r2,r19,r2
    1078:	14000117 	ldw	r16,4(r2)
    107c:	10fffe04 	addi	r3,r2,-8
    1080:	80c0d926 	beq	r16,r3,13e8 <_malloc_r+0x5d0>
    1084:	80c00117 	ldw	r3,4(r16)
    1088:	81000317 	ldw	r4,12(r16)
    108c:	00bfff04 	movi	r2,-4
    1090:	1884703a 	and	r2,r3,r2
    1094:	81400217 	ldw	r5,8(r16)
    1098:	8085883a 	add	r2,r16,r2
    109c:	10c00117 	ldw	r3,4(r2)
    10a0:	29000315 	stw	r4,12(r5)
    10a4:	21400215 	stw	r5,8(r4)
    10a8:	18c00054 	ori	r3,r3,1
    10ac:	10c00115 	stw	r3,4(r2)
    10b0:	9009883a 	mov	r4,r18
    10b4:	00036300 	call	3630 <__malloc_unlock>
    10b8:	80800204 	addi	r2,r16,8
    10bc:	dfc00a17 	ldw	ra,40(sp)
    10c0:	df000917 	ldw	fp,36(sp)
    10c4:	ddc00817 	ldw	r23,32(sp)
    10c8:	dd800717 	ldw	r22,28(sp)
    10cc:	dd400617 	ldw	r21,24(sp)
    10d0:	dd000517 	ldw	r20,20(sp)
    10d4:	dcc00417 	ldw	r19,16(sp)
    10d8:	dc800317 	ldw	r18,12(sp)
    10dc:	dc400217 	ldw	r17,8(sp)
    10e0:	dc000117 	ldw	r16,4(sp)
    10e4:	dec00b04 	addi	sp,sp,44
    10e8:	f800283a 	ret
    10ec:	00800304 	movi	r2,12
    10f0:	90800015 	stw	r2,0(r18)
    10f4:	0005883a 	mov	r2,zero
    10f8:	003ff006 	br	10bc <__alt_mem_onchip_memory+0xf78010bc>
    10fc:	01002004 	movi	r4,128
    1100:	02001004 	movi	r8,64
    1104:	01c00fc4 	movi	r7,63
    1108:	003f6106 	br	e90 <__alt_mem_onchip_memory+0xf7800e90>
    110c:	4009883a 	mov	r4,r8
    1110:	003f7506 	br	ee8 <__alt_mem_onchip_memory+0xf7800ee8>
    1114:	81000317 	ldw	r4,12(r16)
    1118:	003fde06 	br	1094 <__alt_mem_onchip_memory+0xf7801094>
    111c:	81c5883a 	add	r2,r16,r7
    1120:	11400117 	ldw	r5,4(r2)
    1124:	9009883a 	mov	r4,r18
    1128:	29400054 	ori	r5,r5,1
    112c:	11400115 	stw	r5,4(r2)
    1130:	00036300 	call	3630 <__malloc_unlock>
    1134:	80800204 	addi	r2,r16,8
    1138:	003fe006 	br	10bc <__alt_mem_onchip_memory+0xf78010bc>
    113c:	9c000217 	ldw	r16,8(r19)
    1140:	00bfff04 	movi	r2,-4
    1144:	85800117 	ldw	r22,4(r16)
    1148:	b0ac703a 	and	r22,r22,r2
    114c:	b4400336 	bltu	r22,r17,115c <_malloc_r+0x344>
    1150:	b445c83a 	sub	r2,r22,r17
    1154:	00c003c4 	movi	r3,15
    1158:	18805d16 	blt	r3,r2,12d0 <_malloc_r+0x4b8>
    115c:	05c00074 	movhi	r23,1
    1160:	00800074 	movhi	r2,1
    1164:	10b50304 	addi	r2,r2,-11252
    1168:	bded6104 	addi	r23,r23,-19068
    116c:	15400017 	ldw	r21,0(r2)
    1170:	b8c00017 	ldw	r3,0(r23)
    1174:	00bfffc4 	movi	r2,-1
    1178:	858d883a 	add	r6,r16,r22
    117c:	8d6b883a 	add	r21,r17,r21
    1180:	1880ea26 	beq	r3,r2,152c <_malloc_r+0x714>
    1184:	ad4403c4 	addi	r21,r21,4111
    1188:	00bc0004 	movi	r2,-4096
    118c:	a8aa703a 	and	r21,r21,r2
    1190:	a80b883a 	mov	r5,r21
    1194:	9009883a 	mov	r4,r18
    1198:	d9800015 	stw	r6,0(sp)
    119c:	00020380 	call	2038 <_sbrk_r>
    11a0:	1029883a 	mov	r20,r2
    11a4:	00bfffc4 	movi	r2,-1
    11a8:	d9800017 	ldw	r6,0(sp)
    11ac:	a080e826 	beq	r20,r2,1550 <_malloc_r+0x738>
    11b0:	a180a636 	bltu	r20,r6,144c <_malloc_r+0x634>
    11b4:	07000074 	movhi	fp,1
    11b8:	e7350c04 	addi	fp,fp,-11216
    11bc:	e0800017 	ldw	r2,0(fp)
    11c0:	a887883a 	add	r3,r21,r2
    11c4:	e0c00015 	stw	r3,0(fp)
    11c8:	3500e626 	beq	r6,r20,1564 <_malloc_r+0x74c>
    11cc:	b9000017 	ldw	r4,0(r23)
    11d0:	00bfffc4 	movi	r2,-1
    11d4:	2080ee26 	beq	r4,r2,1590 <_malloc_r+0x778>
    11d8:	a185c83a 	sub	r2,r20,r6
    11dc:	10c5883a 	add	r2,r2,r3
    11e0:	e0800015 	stw	r2,0(fp)
    11e4:	a0c001cc 	andi	r3,r20,7
    11e8:	1800bc26 	beq	r3,zero,14dc <_malloc_r+0x6c4>
    11ec:	a0e9c83a 	sub	r20,r20,r3
    11f0:	00840204 	movi	r2,4104
    11f4:	a5000204 	addi	r20,r20,8
    11f8:	10c7c83a 	sub	r3,r2,r3
    11fc:	a545883a 	add	r2,r20,r21
    1200:	1083ffcc 	andi	r2,r2,4095
    1204:	18abc83a 	sub	r21,r3,r2
    1208:	a80b883a 	mov	r5,r21
    120c:	9009883a 	mov	r4,r18
    1210:	00020380 	call	2038 <_sbrk_r>
    1214:	00ffffc4 	movi	r3,-1
    1218:	10c0e126 	beq	r2,r3,15a0 <_malloc_r+0x788>
    121c:	1505c83a 	sub	r2,r2,r20
    1220:	1545883a 	add	r2,r2,r21
    1224:	10800054 	ori	r2,r2,1
    1228:	e0c00017 	ldw	r3,0(fp)
    122c:	9d000215 	stw	r20,8(r19)
    1230:	a0800115 	stw	r2,4(r20)
    1234:	a8c7883a 	add	r3,r21,r3
    1238:	e0c00015 	stw	r3,0(fp)
    123c:	84c00e26 	beq	r16,r19,1278 <_malloc_r+0x460>
    1240:	018003c4 	movi	r6,15
    1244:	3580a72e 	bgeu	r6,r22,14e4 <_malloc_r+0x6cc>
    1248:	81400117 	ldw	r5,4(r16)
    124c:	013ffe04 	movi	r4,-8
    1250:	b0bffd04 	addi	r2,r22,-12
    1254:	1104703a 	and	r2,r2,r4
    1258:	2900004c 	andi	r4,r5,1
    125c:	2088b03a 	or	r4,r4,r2
    1260:	81000115 	stw	r4,4(r16)
    1264:	01400144 	movi	r5,5
    1268:	8089883a 	add	r4,r16,r2
    126c:	21400115 	stw	r5,4(r4)
    1270:	21400215 	stw	r5,8(r4)
    1274:	3080cd36 	bltu	r6,r2,15ac <_malloc_r+0x794>
    1278:	00800074 	movhi	r2,1
    127c:	10b50204 	addi	r2,r2,-11256
    1280:	11000017 	ldw	r4,0(r2)
    1284:	20c0012e 	bgeu	r4,r3,128c <_malloc_r+0x474>
    1288:	10c00015 	stw	r3,0(r2)
    128c:	00800074 	movhi	r2,1
    1290:	10b50104 	addi	r2,r2,-11260
    1294:	11000017 	ldw	r4,0(r2)
    1298:	9c000217 	ldw	r16,8(r19)
    129c:	20c0012e 	bgeu	r4,r3,12a4 <_malloc_r+0x48c>
    12a0:	10c00015 	stw	r3,0(r2)
    12a4:	80c00117 	ldw	r3,4(r16)
    12a8:	00bfff04 	movi	r2,-4
    12ac:	1886703a 	and	r3,r3,r2
    12b0:	1c45c83a 	sub	r2,r3,r17
    12b4:	1c400236 	bltu	r3,r17,12c0 <_malloc_r+0x4a8>
    12b8:	00c003c4 	movi	r3,15
    12bc:	18800416 	blt	r3,r2,12d0 <_malloc_r+0x4b8>
    12c0:	9009883a 	mov	r4,r18
    12c4:	00036300 	call	3630 <__malloc_unlock>
    12c8:	0005883a 	mov	r2,zero
    12cc:	003f7b06 	br	10bc <__alt_mem_onchip_memory+0xf78010bc>
    12d0:	88c00054 	ori	r3,r17,1
    12d4:	80c00115 	stw	r3,4(r16)
    12d8:	8463883a 	add	r17,r16,r17
    12dc:	10800054 	ori	r2,r2,1
    12e0:	9c400215 	stw	r17,8(r19)
    12e4:	88800115 	stw	r2,4(r17)
    12e8:	9009883a 	mov	r4,r18
    12ec:	00036300 	call	3630 <__malloc_unlock>
    12f0:	80800204 	addi	r2,r16,8
    12f4:	003f7106 	br	10bc <__alt_mem_onchip_memory+0xf78010bc>
    12f8:	00c00504 	movi	r3,20
    12fc:	18804a2e 	bgeu	r3,r2,1428 <_malloc_r+0x610>
    1300:	00c01504 	movi	r3,84
    1304:	18806e36 	bltu	r3,r2,14c0 <_malloc_r+0x6a8>
    1308:	8804d33a 	srli	r2,r17,12
    130c:	12001bc4 	addi	r8,r2,111
    1310:	11c01b84 	addi	r7,r2,110
    1314:	4209883a 	add	r4,r8,r8
    1318:	003edd06 	br	e90 <__alt_mem_onchip_memory+0xf7800e90>
    131c:	3804d27a 	srli	r2,r7,9
    1320:	00c00104 	movi	r3,4
    1324:	1880442e 	bgeu	r3,r2,1438 <_malloc_r+0x620>
    1328:	00c00504 	movi	r3,20
    132c:	18808136 	bltu	r3,r2,1534 <_malloc_r+0x71c>
    1330:	11401704 	addi	r5,r2,92
    1334:	10c016c4 	addi	r3,r2,91
    1338:	294b883a 	add	r5,r5,r5
    133c:	294b883a 	add	r5,r5,r5
    1340:	294b883a 	add	r5,r5,r5
    1344:	994b883a 	add	r5,r19,r5
    1348:	28800017 	ldw	r2,0(r5)
    134c:	01800074 	movhi	r6,1
    1350:	297ffe04 	addi	r5,r5,-8
    1354:	31a6e604 	addi	r6,r6,-25704
    1358:	28806526 	beq	r5,r2,14f0 <_malloc_r+0x6d8>
    135c:	01bfff04 	movi	r6,-4
    1360:	10c00117 	ldw	r3,4(r2)
    1364:	1986703a 	and	r3,r3,r6
    1368:	38c0022e 	bgeu	r7,r3,1374 <_malloc_r+0x55c>
    136c:	10800217 	ldw	r2,8(r2)
    1370:	28bffb1e 	bne	r5,r2,1360 <__alt_mem_onchip_memory+0xf7801360>
    1374:	11400317 	ldw	r5,12(r2)
    1378:	98c00117 	ldw	r3,4(r19)
    137c:	81400315 	stw	r5,12(r16)
    1380:	80800215 	stw	r2,8(r16)
    1384:	2c000215 	stw	r16,8(r5)
    1388:	14000315 	stw	r16,12(r2)
    138c:	003ef806 	br	f70 <__alt_mem_onchip_memory+0xf7800f70>
    1390:	88c00054 	ori	r3,r17,1
    1394:	80c00115 	stw	r3,4(r16)
    1398:	8463883a 	add	r17,r16,r17
    139c:	34400515 	stw	r17,20(r6)
    13a0:	34400415 	stw	r17,16(r6)
    13a4:	10c00054 	ori	r3,r2,1
    13a8:	8a000315 	stw	r8,12(r17)
    13ac:	8a000215 	stw	r8,8(r17)
    13b0:	88c00115 	stw	r3,4(r17)
    13b4:	88a3883a 	add	r17,r17,r2
    13b8:	88800015 	stw	r2,0(r17)
    13bc:	9009883a 	mov	r4,r18
    13c0:	00036300 	call	3630 <__malloc_unlock>
    13c4:	80800204 	addi	r2,r16,8
    13c8:	003f3c06 	br	10bc <__alt_mem_onchip_memory+0xf78010bc>
    13cc:	30c00117 	ldw	r3,4(r6)
    13d0:	003ee706 	br	f70 <__alt_mem_onchip_memory+0xf7800f70>
    13d4:	5ac00044 	addi	r11,r11,1
    13d8:	588000cc 	andi	r2,r11,3
    13dc:	31800204 	addi	r6,r6,8
    13e0:	103efd1e 	bne	r2,zero,fd8 <__alt_mem_onchip_memory+0xf7800fd8>
    13e4:	00002406 	br	1478 <_malloc_r+0x660>
    13e8:	14000317 	ldw	r16,12(r2)
    13ec:	143f251e 	bne	r2,r16,1084 <__alt_mem_onchip_memory+0xf7801084>
    13f0:	21000084 	addi	r4,r4,2
    13f4:	003ebc06 	br	ee8 <__alt_mem_onchip_memory+0xf7800ee8>
    13f8:	8085883a 	add	r2,r16,r2
    13fc:	10c00117 	ldw	r3,4(r2)
    1400:	81000317 	ldw	r4,12(r16)
    1404:	81400217 	ldw	r5,8(r16)
    1408:	18c00054 	ori	r3,r3,1
    140c:	10c00115 	stw	r3,4(r2)
    1410:	29000315 	stw	r4,12(r5)
    1414:	21400215 	stw	r5,8(r4)
    1418:	9009883a 	mov	r4,r18
    141c:	00036300 	call	3630 <__malloc_unlock>
    1420:	80800204 	addi	r2,r16,8
    1424:	003f2506 	br	10bc <__alt_mem_onchip_memory+0xf78010bc>
    1428:	12001704 	addi	r8,r2,92
    142c:	11c016c4 	addi	r7,r2,91
    1430:	4209883a 	add	r4,r8,r8
    1434:	003e9606 	br	e90 <__alt_mem_onchip_memory+0xf7800e90>
    1438:	3804d1ba 	srli	r2,r7,6
    143c:	11400e44 	addi	r5,r2,57
    1440:	10c00e04 	addi	r3,r2,56
    1444:	294b883a 	add	r5,r5,r5
    1448:	003fbc06 	br	133c <__alt_mem_onchip_memory+0xf780133c>
    144c:	84ff5926 	beq	r16,r19,11b4 <__alt_mem_onchip_memory+0xf78011b4>
    1450:	00800074 	movhi	r2,1
    1454:	10a6e604 	addi	r2,r2,-25704
    1458:	14000217 	ldw	r16,8(r2)
    145c:	00bfff04 	movi	r2,-4
    1460:	80c00117 	ldw	r3,4(r16)
    1464:	1886703a 	and	r3,r3,r2
    1468:	003f9106 	br	12b0 <__alt_mem_onchip_memory+0xf78012b0>
    146c:	60800217 	ldw	r2,8(r12)
    1470:	213fffc4 	addi	r4,r4,-1
    1474:	1300651e 	bne	r2,r12,160c <_malloc_r+0x7f4>
    1478:	208000cc 	andi	r2,r4,3
    147c:	633ffe04 	addi	r12,r12,-8
    1480:	103ffa1e 	bne	r2,zero,146c <__alt_mem_onchip_memory+0xf780146c>
    1484:	98800117 	ldw	r2,4(r19)
    1488:	0146303a 	nor	r3,zero,r5
    148c:	1884703a 	and	r2,r3,r2
    1490:	98800115 	stw	r2,4(r19)
    1494:	294b883a 	add	r5,r5,r5
    1498:	117f2836 	bltu	r2,r5,113c <__alt_mem_onchip_memory+0xf780113c>
    149c:	283f2726 	beq	r5,zero,113c <__alt_mem_onchip_memory+0xf780113c>
    14a0:	2886703a 	and	r3,r5,r2
    14a4:	5809883a 	mov	r4,r11
    14a8:	183ec31e 	bne	r3,zero,fb8 <__alt_mem_onchip_memory+0xf7800fb8>
    14ac:	294b883a 	add	r5,r5,r5
    14b0:	2886703a 	and	r3,r5,r2
    14b4:	21000104 	addi	r4,r4,4
    14b8:	183ffc26 	beq	r3,zero,14ac <__alt_mem_onchip_memory+0xf78014ac>
    14bc:	003ebe06 	br	fb8 <__alt_mem_onchip_memory+0xf7800fb8>
    14c0:	00c05504 	movi	r3,340
    14c4:	18801236 	bltu	r3,r2,1510 <_malloc_r+0x6f8>
    14c8:	8804d3fa 	srli	r2,r17,15
    14cc:	12001e04 	addi	r8,r2,120
    14d0:	11c01dc4 	addi	r7,r2,119
    14d4:	4209883a 	add	r4,r8,r8
    14d8:	003e6d06 	br	e90 <__alt_mem_onchip_memory+0xf7800e90>
    14dc:	00c40004 	movi	r3,4096
    14e0:	003f4606 	br	11fc <__alt_mem_onchip_memory+0xf78011fc>
    14e4:	00800044 	movi	r2,1
    14e8:	a0800115 	stw	r2,4(r20)
    14ec:	003f7406 	br	12c0 <__alt_mem_onchip_memory+0xf78012c0>
    14f0:	1805d0ba 	srai	r2,r3,2
    14f4:	01c00044 	movi	r7,1
    14f8:	30c00117 	ldw	r3,4(r6)
    14fc:	388e983a 	sll	r7,r7,r2
    1500:	2805883a 	mov	r2,r5
    1504:	38c6b03a 	or	r3,r7,r3
    1508:	30c00115 	stw	r3,4(r6)
    150c:	003f9b06 	br	137c <__alt_mem_onchip_memory+0xf780137c>
    1510:	00c15504 	movi	r3,1364
    1514:	18801a36 	bltu	r3,r2,1580 <_malloc_r+0x768>
    1518:	8804d4ba 	srli	r2,r17,18
    151c:	12001f44 	addi	r8,r2,125
    1520:	11c01f04 	addi	r7,r2,124
    1524:	4209883a 	add	r4,r8,r8
    1528:	003e5906 	br	e90 <__alt_mem_onchip_memory+0xf7800e90>
    152c:	ad400404 	addi	r21,r21,16
    1530:	003f1706 	br	1190 <__alt_mem_onchip_memory+0xf7801190>
    1534:	00c01504 	movi	r3,84
    1538:	18802336 	bltu	r3,r2,15c8 <_malloc_r+0x7b0>
    153c:	3804d33a 	srli	r2,r7,12
    1540:	11401bc4 	addi	r5,r2,111
    1544:	10c01b84 	addi	r3,r2,110
    1548:	294b883a 	add	r5,r5,r5
    154c:	003f7b06 	br	133c <__alt_mem_onchip_memory+0xf780133c>
    1550:	9c000217 	ldw	r16,8(r19)
    1554:	00bfff04 	movi	r2,-4
    1558:	80c00117 	ldw	r3,4(r16)
    155c:	1886703a 	and	r3,r3,r2
    1560:	003f5306 	br	12b0 <__alt_mem_onchip_memory+0xf78012b0>
    1564:	3083ffcc 	andi	r2,r6,4095
    1568:	103f181e 	bne	r2,zero,11cc <__alt_mem_onchip_memory+0xf78011cc>
    156c:	99000217 	ldw	r4,8(r19)
    1570:	b545883a 	add	r2,r22,r21
    1574:	10800054 	ori	r2,r2,1
    1578:	20800115 	stw	r2,4(r4)
    157c:	003f3e06 	br	1278 <__alt_mem_onchip_memory+0xf7801278>
    1580:	01003f84 	movi	r4,254
    1584:	02001fc4 	movi	r8,127
    1588:	01c01f84 	movi	r7,126
    158c:	003e4006 	br	e90 <__alt_mem_onchip_memory+0xf7800e90>
    1590:	00800074 	movhi	r2,1
    1594:	10ad6104 	addi	r2,r2,-19068
    1598:	15000015 	stw	r20,0(r2)
    159c:	003f1106 	br	11e4 <__alt_mem_onchip_memory+0xf78011e4>
    15a0:	00800044 	movi	r2,1
    15a4:	002b883a 	mov	r21,zero
    15a8:	003f1f06 	br	1228 <__alt_mem_onchip_memory+0xf7801228>
    15ac:	81400204 	addi	r5,r16,8
    15b0:	9009883a 	mov	r4,r18
    15b4:	00028a00 	call	28a0 <_free_r>
    15b8:	00800074 	movhi	r2,1
    15bc:	10b50c04 	addi	r2,r2,-11216
    15c0:	10c00017 	ldw	r3,0(r2)
    15c4:	003f2c06 	br	1278 <__alt_mem_onchip_memory+0xf7801278>
    15c8:	00c05504 	movi	r3,340
    15cc:	18800536 	bltu	r3,r2,15e4 <_malloc_r+0x7cc>
    15d0:	3804d3fa 	srli	r2,r7,15
    15d4:	11401e04 	addi	r5,r2,120
    15d8:	10c01dc4 	addi	r3,r2,119
    15dc:	294b883a 	add	r5,r5,r5
    15e0:	003f5606 	br	133c <__alt_mem_onchip_memory+0xf780133c>
    15e4:	00c15504 	movi	r3,1364
    15e8:	18800536 	bltu	r3,r2,1600 <_malloc_r+0x7e8>
    15ec:	3804d4ba 	srli	r2,r7,18
    15f0:	11401f44 	addi	r5,r2,125
    15f4:	10c01f04 	addi	r3,r2,124
    15f8:	294b883a 	add	r5,r5,r5
    15fc:	003f4f06 	br	133c <__alt_mem_onchip_memory+0xf780133c>
    1600:	01403f84 	movi	r5,254
    1604:	00c01f84 	movi	r3,126
    1608:	003f4c06 	br	133c <__alt_mem_onchip_memory+0xf780133c>
    160c:	98800117 	ldw	r2,4(r19)
    1610:	003fa006 	br	1494 <__alt_mem_onchip_memory+0xf7801494>
    1614:	8808d0fa 	srli	r4,r17,3
    1618:	20800044 	addi	r2,r4,1
    161c:	1085883a 	add	r2,r2,r2
    1620:	003e9006 	br	1064 <__alt_mem_onchip_memory+0xf7801064>

00001624 <memchr>:
    1624:	208000cc 	andi	r2,r4,3
    1628:	280f883a 	mov	r7,r5
    162c:	10003426 	beq	r2,zero,1700 <memchr+0xdc>
    1630:	30bfffc4 	addi	r2,r6,-1
    1634:	30001a26 	beq	r6,zero,16a0 <memchr+0x7c>
    1638:	20c00003 	ldbu	r3,0(r4)
    163c:	29803fcc 	andi	r6,r5,255
    1640:	30c0051e 	bne	r6,r3,1658 <memchr+0x34>
    1644:	00001806 	br	16a8 <memchr+0x84>
    1648:	10001526 	beq	r2,zero,16a0 <memchr+0x7c>
    164c:	20c00003 	ldbu	r3,0(r4)
    1650:	10bfffc4 	addi	r2,r2,-1
    1654:	30c01426 	beq	r6,r3,16a8 <memchr+0x84>
    1658:	21000044 	addi	r4,r4,1
    165c:	20c000cc 	andi	r3,r4,3
    1660:	183ff91e 	bne	r3,zero,1648 <__alt_mem_onchip_memory+0xf7801648>
    1664:	020000c4 	movi	r8,3
    1668:	40801136 	bltu	r8,r2,16b0 <memchr+0x8c>
    166c:	10000c26 	beq	r2,zero,16a0 <memchr+0x7c>
    1670:	20c00003 	ldbu	r3,0(r4)
    1674:	29403fcc 	andi	r5,r5,255
    1678:	28c00b26 	beq	r5,r3,16a8 <memchr+0x84>
    167c:	20c00044 	addi	r3,r4,1
    1680:	39803fcc 	andi	r6,r7,255
    1684:	2089883a 	add	r4,r4,r2
    1688:	00000306 	br	1698 <memchr+0x74>
    168c:	18c00044 	addi	r3,r3,1
    1690:	197fffc3 	ldbu	r5,-1(r3)
    1694:	31400526 	beq	r6,r5,16ac <memchr+0x88>
    1698:	1805883a 	mov	r2,r3
    169c:	20fffb1e 	bne	r4,r3,168c <__alt_mem_onchip_memory+0xf780168c>
    16a0:	0005883a 	mov	r2,zero
    16a4:	f800283a 	ret
    16a8:	2005883a 	mov	r2,r4
    16ac:	f800283a 	ret
    16b0:	28c03fcc 	andi	r3,r5,255
    16b4:	1812923a 	slli	r9,r3,8
    16b8:	02ffbff4 	movhi	r11,65279
    16bc:	02a02074 	movhi	r10,32897
    16c0:	48d2b03a 	or	r9,r9,r3
    16c4:	4806943a 	slli	r3,r9,16
    16c8:	5affbfc4 	addi	r11,r11,-257
    16cc:	52a02004 	addi	r10,r10,-32640
    16d0:	48d2b03a 	or	r9,r9,r3
    16d4:	20c00017 	ldw	r3,0(r4)
    16d8:	48c6f03a 	xor	r3,r9,r3
    16dc:	1acd883a 	add	r6,r3,r11
    16e0:	00c6303a 	nor	r3,zero,r3
    16e4:	30c6703a 	and	r3,r6,r3
    16e8:	1a86703a 	and	r3,r3,r10
    16ec:	183fe01e 	bne	r3,zero,1670 <__alt_mem_onchip_memory+0xf7801670>
    16f0:	10bfff04 	addi	r2,r2,-4
    16f4:	21000104 	addi	r4,r4,4
    16f8:	40bff636 	bltu	r8,r2,16d4 <__alt_mem_onchip_memory+0xf78016d4>
    16fc:	003fdb06 	br	166c <__alt_mem_onchip_memory+0xf780166c>
    1700:	3005883a 	mov	r2,r6
    1704:	003fd706 	br	1664 <__alt_mem_onchip_memory+0xf7801664>

00001708 <memcpy>:
    1708:	defffd04 	addi	sp,sp,-12
    170c:	dfc00215 	stw	ra,8(sp)
    1710:	dc400115 	stw	r17,4(sp)
    1714:	dc000015 	stw	r16,0(sp)
    1718:	00c003c4 	movi	r3,15
    171c:	2005883a 	mov	r2,r4
    1720:	1980452e 	bgeu	r3,r6,1838 <memcpy+0x130>
    1724:	2906b03a 	or	r3,r5,r4
    1728:	18c000cc 	andi	r3,r3,3
    172c:	1800441e 	bne	r3,zero,1840 <memcpy+0x138>
    1730:	347ffc04 	addi	r17,r6,-16
    1734:	8822d13a 	srli	r17,r17,4
    1738:	28c00104 	addi	r3,r5,4
    173c:	23400104 	addi	r13,r4,4
    1740:	8820913a 	slli	r16,r17,4
    1744:	2b000204 	addi	r12,r5,8
    1748:	22c00204 	addi	r11,r4,8
    174c:	84000504 	addi	r16,r16,20
    1750:	2a800304 	addi	r10,r5,12
    1754:	22400304 	addi	r9,r4,12
    1758:	2c21883a 	add	r16,r5,r16
    175c:	2811883a 	mov	r8,r5
    1760:	200f883a 	mov	r7,r4
    1764:	41000017 	ldw	r4,0(r8)
    1768:	1fc00017 	ldw	ra,0(r3)
    176c:	63c00017 	ldw	r15,0(r12)
    1770:	39000015 	stw	r4,0(r7)
    1774:	53800017 	ldw	r14,0(r10)
    1778:	6fc00015 	stw	ra,0(r13)
    177c:	5bc00015 	stw	r15,0(r11)
    1780:	4b800015 	stw	r14,0(r9)
    1784:	18c00404 	addi	r3,r3,16
    1788:	39c00404 	addi	r7,r7,16
    178c:	42000404 	addi	r8,r8,16
    1790:	6b400404 	addi	r13,r13,16
    1794:	63000404 	addi	r12,r12,16
    1798:	5ac00404 	addi	r11,r11,16
    179c:	52800404 	addi	r10,r10,16
    17a0:	4a400404 	addi	r9,r9,16
    17a4:	1c3fef1e 	bne	r3,r16,1764 <__alt_mem_onchip_memory+0xf7801764>
    17a8:	89c00044 	addi	r7,r17,1
    17ac:	380e913a 	slli	r7,r7,4
    17b0:	310003cc 	andi	r4,r6,15
    17b4:	02c000c4 	movi	r11,3
    17b8:	11c7883a 	add	r3,r2,r7
    17bc:	29cb883a 	add	r5,r5,r7
    17c0:	5900212e 	bgeu	r11,r4,1848 <memcpy+0x140>
    17c4:	1813883a 	mov	r9,r3
    17c8:	2811883a 	mov	r8,r5
    17cc:	200f883a 	mov	r7,r4
    17d0:	42800017 	ldw	r10,0(r8)
    17d4:	4a400104 	addi	r9,r9,4
    17d8:	39ffff04 	addi	r7,r7,-4
    17dc:	4abfff15 	stw	r10,-4(r9)
    17e0:	42000104 	addi	r8,r8,4
    17e4:	59fffa36 	bltu	r11,r7,17d0 <__alt_mem_onchip_memory+0xf78017d0>
    17e8:	213fff04 	addi	r4,r4,-4
    17ec:	2008d0ba 	srli	r4,r4,2
    17f0:	318000cc 	andi	r6,r6,3
    17f4:	21000044 	addi	r4,r4,1
    17f8:	2109883a 	add	r4,r4,r4
    17fc:	2109883a 	add	r4,r4,r4
    1800:	1907883a 	add	r3,r3,r4
    1804:	290b883a 	add	r5,r5,r4
    1808:	30000626 	beq	r6,zero,1824 <memcpy+0x11c>
    180c:	198d883a 	add	r6,r3,r6
    1810:	29c00003 	ldbu	r7,0(r5)
    1814:	18c00044 	addi	r3,r3,1
    1818:	29400044 	addi	r5,r5,1
    181c:	19ffffc5 	stb	r7,-1(r3)
    1820:	19bffb1e 	bne	r3,r6,1810 <__alt_mem_onchip_memory+0xf7801810>
    1824:	dfc00217 	ldw	ra,8(sp)
    1828:	dc400117 	ldw	r17,4(sp)
    182c:	dc000017 	ldw	r16,0(sp)
    1830:	dec00304 	addi	sp,sp,12
    1834:	f800283a 	ret
    1838:	2007883a 	mov	r3,r4
    183c:	003ff206 	br	1808 <__alt_mem_onchip_memory+0xf7801808>
    1840:	2007883a 	mov	r3,r4
    1844:	003ff106 	br	180c <__alt_mem_onchip_memory+0xf780180c>
    1848:	200d883a 	mov	r6,r4
    184c:	003fee06 	br	1808 <__alt_mem_onchip_memory+0xf7801808>

00001850 <memmove>:
    1850:	2005883a 	mov	r2,r4
    1854:	29000b2e 	bgeu	r5,r4,1884 <memmove+0x34>
    1858:	298f883a 	add	r7,r5,r6
    185c:	21c0092e 	bgeu	r4,r7,1884 <memmove+0x34>
    1860:	2187883a 	add	r3,r4,r6
    1864:	198bc83a 	sub	r5,r3,r6
    1868:	30004826 	beq	r6,zero,198c <memmove+0x13c>
    186c:	39ffffc4 	addi	r7,r7,-1
    1870:	39000003 	ldbu	r4,0(r7)
    1874:	18ffffc4 	addi	r3,r3,-1
    1878:	19000005 	stb	r4,0(r3)
    187c:	28fffb1e 	bne	r5,r3,186c <__alt_mem_onchip_memory+0xf780186c>
    1880:	f800283a 	ret
    1884:	00c003c4 	movi	r3,15
    1888:	1980412e 	bgeu	r3,r6,1990 <memmove+0x140>
    188c:	2886b03a 	or	r3,r5,r2
    1890:	18c000cc 	andi	r3,r3,3
    1894:	1800401e 	bne	r3,zero,1998 <memmove+0x148>
    1898:	33fffc04 	addi	r15,r6,-16
    189c:	781ed13a 	srli	r15,r15,4
    18a0:	28c00104 	addi	r3,r5,4
    18a4:	13400104 	addi	r13,r2,4
    18a8:	781c913a 	slli	r14,r15,4
    18ac:	2b000204 	addi	r12,r5,8
    18b0:	12c00204 	addi	r11,r2,8
    18b4:	73800504 	addi	r14,r14,20
    18b8:	2a800304 	addi	r10,r5,12
    18bc:	12400304 	addi	r9,r2,12
    18c0:	2b9d883a 	add	r14,r5,r14
    18c4:	2811883a 	mov	r8,r5
    18c8:	100f883a 	mov	r7,r2
    18cc:	41000017 	ldw	r4,0(r8)
    18d0:	39c00404 	addi	r7,r7,16
    18d4:	18c00404 	addi	r3,r3,16
    18d8:	393ffc15 	stw	r4,-16(r7)
    18dc:	193ffc17 	ldw	r4,-16(r3)
    18e0:	6b400404 	addi	r13,r13,16
    18e4:	5ac00404 	addi	r11,r11,16
    18e8:	693ffc15 	stw	r4,-16(r13)
    18ec:	61000017 	ldw	r4,0(r12)
    18f0:	4a400404 	addi	r9,r9,16
    18f4:	42000404 	addi	r8,r8,16
    18f8:	593ffc15 	stw	r4,-16(r11)
    18fc:	51000017 	ldw	r4,0(r10)
    1900:	63000404 	addi	r12,r12,16
    1904:	52800404 	addi	r10,r10,16
    1908:	493ffc15 	stw	r4,-16(r9)
    190c:	1bbfef1e 	bne	r3,r14,18cc <__alt_mem_onchip_memory+0xf78018cc>
    1910:	79000044 	addi	r4,r15,1
    1914:	2008913a 	slli	r4,r4,4
    1918:	328003cc 	andi	r10,r6,15
    191c:	02c000c4 	movi	r11,3
    1920:	1107883a 	add	r3,r2,r4
    1924:	290b883a 	add	r5,r5,r4
    1928:	5a801e2e 	bgeu	r11,r10,19a4 <memmove+0x154>
    192c:	1813883a 	mov	r9,r3
    1930:	2811883a 	mov	r8,r5
    1934:	500f883a 	mov	r7,r10
    1938:	41000017 	ldw	r4,0(r8)
    193c:	4a400104 	addi	r9,r9,4
    1940:	39ffff04 	addi	r7,r7,-4
    1944:	493fff15 	stw	r4,-4(r9)
    1948:	42000104 	addi	r8,r8,4
    194c:	59fffa36 	bltu	r11,r7,1938 <__alt_mem_onchip_memory+0xf7801938>
    1950:	513fff04 	addi	r4,r10,-4
    1954:	2008d0ba 	srli	r4,r4,2
    1958:	318000cc 	andi	r6,r6,3
    195c:	21000044 	addi	r4,r4,1
    1960:	2109883a 	add	r4,r4,r4
    1964:	2109883a 	add	r4,r4,r4
    1968:	1907883a 	add	r3,r3,r4
    196c:	290b883a 	add	r5,r5,r4
    1970:	30000b26 	beq	r6,zero,19a0 <memmove+0x150>
    1974:	198d883a 	add	r6,r3,r6
    1978:	29c00003 	ldbu	r7,0(r5)
    197c:	18c00044 	addi	r3,r3,1
    1980:	29400044 	addi	r5,r5,1
    1984:	19ffffc5 	stb	r7,-1(r3)
    1988:	19bffb1e 	bne	r3,r6,1978 <__alt_mem_onchip_memory+0xf7801978>
    198c:	f800283a 	ret
    1990:	1007883a 	mov	r3,r2
    1994:	003ff606 	br	1970 <__alt_mem_onchip_memory+0xf7801970>
    1998:	1007883a 	mov	r3,r2
    199c:	003ff506 	br	1974 <__alt_mem_onchip_memory+0xf7801974>
    19a0:	f800283a 	ret
    19a4:	500d883a 	mov	r6,r10
    19a8:	003ff106 	br	1970 <__alt_mem_onchip_memory+0xf7801970>

000019ac <memset>:
    19ac:	20c000cc 	andi	r3,r4,3
    19b0:	2005883a 	mov	r2,r4
    19b4:	18004426 	beq	r3,zero,1ac8 <memset+0x11c>
    19b8:	31ffffc4 	addi	r7,r6,-1
    19bc:	30004026 	beq	r6,zero,1ac0 <memset+0x114>
    19c0:	2813883a 	mov	r9,r5
    19c4:	200d883a 	mov	r6,r4
    19c8:	2007883a 	mov	r3,r4
    19cc:	00000406 	br	19e0 <memset+0x34>
    19d0:	3a3fffc4 	addi	r8,r7,-1
    19d4:	31800044 	addi	r6,r6,1
    19d8:	38003926 	beq	r7,zero,1ac0 <memset+0x114>
    19dc:	400f883a 	mov	r7,r8
    19e0:	18c00044 	addi	r3,r3,1
    19e4:	32400005 	stb	r9,0(r6)
    19e8:	1a0000cc 	andi	r8,r3,3
    19ec:	403ff81e 	bne	r8,zero,19d0 <__alt_mem_onchip_memory+0xf78019d0>
    19f0:	010000c4 	movi	r4,3
    19f4:	21c02d2e 	bgeu	r4,r7,1aac <memset+0x100>
    19f8:	29003fcc 	andi	r4,r5,255
    19fc:	200c923a 	slli	r6,r4,8
    1a00:	3108b03a 	or	r4,r6,r4
    1a04:	200c943a 	slli	r6,r4,16
    1a08:	218cb03a 	or	r6,r4,r6
    1a0c:	010003c4 	movi	r4,15
    1a10:	21c0182e 	bgeu	r4,r7,1a74 <memset+0xc8>
    1a14:	3b3ffc04 	addi	r12,r7,-16
    1a18:	6018d13a 	srli	r12,r12,4
    1a1c:	1a000104 	addi	r8,r3,4
    1a20:	1ac00204 	addi	r11,r3,8
    1a24:	6008913a 	slli	r4,r12,4
    1a28:	1a800304 	addi	r10,r3,12
    1a2c:	1813883a 	mov	r9,r3
    1a30:	21000504 	addi	r4,r4,20
    1a34:	1909883a 	add	r4,r3,r4
    1a38:	49800015 	stw	r6,0(r9)
    1a3c:	41800015 	stw	r6,0(r8)
    1a40:	59800015 	stw	r6,0(r11)
    1a44:	51800015 	stw	r6,0(r10)
    1a48:	42000404 	addi	r8,r8,16
    1a4c:	4a400404 	addi	r9,r9,16
    1a50:	5ac00404 	addi	r11,r11,16
    1a54:	52800404 	addi	r10,r10,16
    1a58:	413ff71e 	bne	r8,r4,1a38 <__alt_mem_onchip_memory+0xf7801a38>
    1a5c:	63000044 	addi	r12,r12,1
    1a60:	6018913a 	slli	r12,r12,4
    1a64:	39c003cc 	andi	r7,r7,15
    1a68:	010000c4 	movi	r4,3
    1a6c:	1b07883a 	add	r3,r3,r12
    1a70:	21c00e2e 	bgeu	r4,r7,1aac <memset+0x100>
    1a74:	1813883a 	mov	r9,r3
    1a78:	3811883a 	mov	r8,r7
    1a7c:	010000c4 	movi	r4,3
    1a80:	49800015 	stw	r6,0(r9)
    1a84:	423fff04 	addi	r8,r8,-4
    1a88:	4a400104 	addi	r9,r9,4
    1a8c:	223ffc36 	bltu	r4,r8,1a80 <__alt_mem_onchip_memory+0xf7801a80>
    1a90:	393fff04 	addi	r4,r7,-4
    1a94:	2008d0ba 	srli	r4,r4,2
    1a98:	39c000cc 	andi	r7,r7,3
    1a9c:	21000044 	addi	r4,r4,1
    1aa0:	2109883a 	add	r4,r4,r4
    1aa4:	2109883a 	add	r4,r4,r4
    1aa8:	1907883a 	add	r3,r3,r4
    1aac:	38000526 	beq	r7,zero,1ac4 <memset+0x118>
    1ab0:	19cf883a 	add	r7,r3,r7
    1ab4:	19400005 	stb	r5,0(r3)
    1ab8:	18c00044 	addi	r3,r3,1
    1abc:	38fffd1e 	bne	r7,r3,1ab4 <__alt_mem_onchip_memory+0xf7801ab4>
    1ac0:	f800283a 	ret
    1ac4:	f800283a 	ret
    1ac8:	2007883a 	mov	r3,r4
    1acc:	300f883a 	mov	r7,r6
    1ad0:	003fc706 	br	19f0 <__alt_mem_onchip_memory+0xf78019f0>

00001ad4 <_realloc_r>:
    1ad4:	defff604 	addi	sp,sp,-40
    1ad8:	dc800215 	stw	r18,8(sp)
    1adc:	dfc00915 	stw	ra,36(sp)
    1ae0:	df000815 	stw	fp,32(sp)
    1ae4:	ddc00715 	stw	r23,28(sp)
    1ae8:	dd800615 	stw	r22,24(sp)
    1aec:	dd400515 	stw	r21,20(sp)
    1af0:	dd000415 	stw	r20,16(sp)
    1af4:	dcc00315 	stw	r19,12(sp)
    1af8:	dc400115 	stw	r17,4(sp)
    1afc:	dc000015 	stw	r16,0(sp)
    1b00:	3025883a 	mov	r18,r6
    1b04:	2800b726 	beq	r5,zero,1de4 <_realloc_r+0x310>
    1b08:	282b883a 	mov	r21,r5
    1b0c:	2029883a 	mov	r20,r4
    1b10:	000360c0 	call	360c <__malloc_lock>
    1b14:	a8bfff17 	ldw	r2,-4(r21)
    1b18:	043fff04 	movi	r16,-4
    1b1c:	90c002c4 	addi	r3,r18,11
    1b20:	01000584 	movi	r4,22
    1b24:	acfffe04 	addi	r19,r21,-8
    1b28:	1420703a 	and	r16,r2,r16
    1b2c:	20c0332e 	bgeu	r4,r3,1bfc <_realloc_r+0x128>
    1b30:	047ffe04 	movi	r17,-8
    1b34:	1c62703a 	and	r17,r3,r17
    1b38:	8807883a 	mov	r3,r17
    1b3c:	88005816 	blt	r17,zero,1ca0 <_realloc_r+0x1cc>
    1b40:	8c805736 	bltu	r17,r18,1ca0 <_realloc_r+0x1cc>
    1b44:	80c0300e 	bge	r16,r3,1c08 <_realloc_r+0x134>
    1b48:	07000074 	movhi	fp,1
    1b4c:	e726e604 	addi	fp,fp,-25704
    1b50:	e1c00217 	ldw	r7,8(fp)
    1b54:	9c09883a 	add	r4,r19,r16
    1b58:	22000117 	ldw	r8,4(r4)
    1b5c:	21c06326 	beq	r4,r7,1cec <_realloc_r+0x218>
    1b60:	017fff84 	movi	r5,-2
    1b64:	414a703a 	and	r5,r8,r5
    1b68:	214b883a 	add	r5,r4,r5
    1b6c:	29800117 	ldw	r6,4(r5)
    1b70:	3180004c 	andi	r6,r6,1
    1b74:	30003f26 	beq	r6,zero,1c74 <_realloc_r+0x1a0>
    1b78:	1080004c 	andi	r2,r2,1
    1b7c:	10008326 	beq	r2,zero,1d8c <_realloc_r+0x2b8>
    1b80:	900b883a 	mov	r5,r18
    1b84:	a009883a 	mov	r4,r20
    1b88:	0000e180 	call	e18 <_malloc_r>
    1b8c:	1025883a 	mov	r18,r2
    1b90:	10011e26 	beq	r2,zero,200c <_realloc_r+0x538>
    1b94:	a93fff17 	ldw	r4,-4(r21)
    1b98:	10fffe04 	addi	r3,r2,-8
    1b9c:	00bfff84 	movi	r2,-2
    1ba0:	2084703a 	and	r2,r4,r2
    1ba4:	9885883a 	add	r2,r19,r2
    1ba8:	1880ee26 	beq	r3,r2,1f64 <_realloc_r+0x490>
    1bac:	81bfff04 	addi	r6,r16,-4
    1bb0:	00800904 	movi	r2,36
    1bb4:	1180b836 	bltu	r2,r6,1e98 <_realloc_r+0x3c4>
    1bb8:	00c004c4 	movi	r3,19
    1bbc:	19809636 	bltu	r3,r6,1e18 <_realloc_r+0x344>
    1bc0:	9005883a 	mov	r2,r18
    1bc4:	a807883a 	mov	r3,r21
    1bc8:	19000017 	ldw	r4,0(r3)
    1bcc:	11000015 	stw	r4,0(r2)
    1bd0:	19000117 	ldw	r4,4(r3)
    1bd4:	11000115 	stw	r4,4(r2)
    1bd8:	18c00217 	ldw	r3,8(r3)
    1bdc:	10c00215 	stw	r3,8(r2)
    1be0:	a80b883a 	mov	r5,r21
    1be4:	a009883a 	mov	r4,r20
    1be8:	00028a00 	call	28a0 <_free_r>
    1bec:	a009883a 	mov	r4,r20
    1bf0:	00036300 	call	3630 <__malloc_unlock>
    1bf4:	9005883a 	mov	r2,r18
    1bf8:	00001206 	br	1c44 <_realloc_r+0x170>
    1bfc:	00c00404 	movi	r3,16
    1c00:	1823883a 	mov	r17,r3
    1c04:	003fce06 	br	1b40 <__alt_mem_onchip_memory+0xf7801b40>
    1c08:	a825883a 	mov	r18,r21
    1c0c:	8445c83a 	sub	r2,r16,r17
    1c10:	00c003c4 	movi	r3,15
    1c14:	18802636 	bltu	r3,r2,1cb0 <_realloc_r+0x1dc>
    1c18:	99800117 	ldw	r6,4(r19)
    1c1c:	9c07883a 	add	r3,r19,r16
    1c20:	3180004c 	andi	r6,r6,1
    1c24:	3420b03a 	or	r16,r6,r16
    1c28:	9c000115 	stw	r16,4(r19)
    1c2c:	18800117 	ldw	r2,4(r3)
    1c30:	10800054 	ori	r2,r2,1
    1c34:	18800115 	stw	r2,4(r3)
    1c38:	a009883a 	mov	r4,r20
    1c3c:	00036300 	call	3630 <__malloc_unlock>
    1c40:	9005883a 	mov	r2,r18
    1c44:	dfc00917 	ldw	ra,36(sp)
    1c48:	df000817 	ldw	fp,32(sp)
    1c4c:	ddc00717 	ldw	r23,28(sp)
    1c50:	dd800617 	ldw	r22,24(sp)
    1c54:	dd400517 	ldw	r21,20(sp)
    1c58:	dd000417 	ldw	r20,16(sp)
    1c5c:	dcc00317 	ldw	r19,12(sp)
    1c60:	dc800217 	ldw	r18,8(sp)
    1c64:	dc400117 	ldw	r17,4(sp)
    1c68:	dc000017 	ldw	r16,0(sp)
    1c6c:	dec00a04 	addi	sp,sp,40
    1c70:	f800283a 	ret
    1c74:	017fff04 	movi	r5,-4
    1c78:	414a703a 	and	r5,r8,r5
    1c7c:	814d883a 	add	r6,r16,r5
    1c80:	30c01f16 	blt	r6,r3,1d00 <_realloc_r+0x22c>
    1c84:	20800317 	ldw	r2,12(r4)
    1c88:	20c00217 	ldw	r3,8(r4)
    1c8c:	a825883a 	mov	r18,r21
    1c90:	3021883a 	mov	r16,r6
    1c94:	18800315 	stw	r2,12(r3)
    1c98:	10c00215 	stw	r3,8(r2)
    1c9c:	003fdb06 	br	1c0c <__alt_mem_onchip_memory+0xf7801c0c>
    1ca0:	00800304 	movi	r2,12
    1ca4:	a0800015 	stw	r2,0(r20)
    1ca8:	0005883a 	mov	r2,zero
    1cac:	003fe506 	br	1c44 <__alt_mem_onchip_memory+0xf7801c44>
    1cb0:	98c00117 	ldw	r3,4(r19)
    1cb4:	9c4b883a 	add	r5,r19,r17
    1cb8:	11000054 	ori	r4,r2,1
    1cbc:	18c0004c 	andi	r3,r3,1
    1cc0:	1c62b03a 	or	r17,r3,r17
    1cc4:	9c400115 	stw	r17,4(r19)
    1cc8:	29000115 	stw	r4,4(r5)
    1ccc:	2885883a 	add	r2,r5,r2
    1cd0:	10c00117 	ldw	r3,4(r2)
    1cd4:	29400204 	addi	r5,r5,8
    1cd8:	a009883a 	mov	r4,r20
    1cdc:	18c00054 	ori	r3,r3,1
    1ce0:	10c00115 	stw	r3,4(r2)
    1ce4:	00028a00 	call	28a0 <_free_r>
    1ce8:	003fd306 	br	1c38 <__alt_mem_onchip_memory+0xf7801c38>
    1cec:	017fff04 	movi	r5,-4
    1cf0:	414a703a 	and	r5,r8,r5
    1cf4:	89800404 	addi	r6,r17,16
    1cf8:	8151883a 	add	r8,r16,r5
    1cfc:	4180590e 	bge	r8,r6,1e64 <_realloc_r+0x390>
    1d00:	1080004c 	andi	r2,r2,1
    1d04:	103f9e1e 	bne	r2,zero,1b80 <__alt_mem_onchip_memory+0xf7801b80>
    1d08:	adbffe17 	ldw	r22,-8(r21)
    1d0c:	00bfff04 	movi	r2,-4
    1d10:	9dadc83a 	sub	r22,r19,r22
    1d14:	b1800117 	ldw	r6,4(r22)
    1d18:	3084703a 	and	r2,r6,r2
    1d1c:	20002026 	beq	r4,zero,1da0 <_realloc_r+0x2cc>
    1d20:	80af883a 	add	r23,r16,r2
    1d24:	b96f883a 	add	r23,r23,r5
    1d28:	21c05f26 	beq	r4,r7,1ea8 <_realloc_r+0x3d4>
    1d2c:	b8c01c16 	blt	r23,r3,1da0 <_realloc_r+0x2cc>
    1d30:	20800317 	ldw	r2,12(r4)
    1d34:	20c00217 	ldw	r3,8(r4)
    1d38:	81bfff04 	addi	r6,r16,-4
    1d3c:	01000904 	movi	r4,36
    1d40:	18800315 	stw	r2,12(r3)
    1d44:	10c00215 	stw	r3,8(r2)
    1d48:	b0c00217 	ldw	r3,8(r22)
    1d4c:	b0800317 	ldw	r2,12(r22)
    1d50:	b4800204 	addi	r18,r22,8
    1d54:	18800315 	stw	r2,12(r3)
    1d58:	10c00215 	stw	r3,8(r2)
    1d5c:	21801b36 	bltu	r4,r6,1dcc <_realloc_r+0x2f8>
    1d60:	008004c4 	movi	r2,19
    1d64:	1180352e 	bgeu	r2,r6,1e3c <_realloc_r+0x368>
    1d68:	a8800017 	ldw	r2,0(r21)
    1d6c:	b0800215 	stw	r2,8(r22)
    1d70:	a8800117 	ldw	r2,4(r21)
    1d74:	b0800315 	stw	r2,12(r22)
    1d78:	008006c4 	movi	r2,27
    1d7c:	11807f36 	bltu	r2,r6,1f7c <_realloc_r+0x4a8>
    1d80:	b0800404 	addi	r2,r22,16
    1d84:	ad400204 	addi	r21,r21,8
    1d88:	00002d06 	br	1e40 <_realloc_r+0x36c>
    1d8c:	adbffe17 	ldw	r22,-8(r21)
    1d90:	00bfff04 	movi	r2,-4
    1d94:	9dadc83a 	sub	r22,r19,r22
    1d98:	b1000117 	ldw	r4,4(r22)
    1d9c:	2084703a 	and	r2,r4,r2
    1da0:	b03f7726 	beq	r22,zero,1b80 <__alt_mem_onchip_memory+0xf7801b80>
    1da4:	80af883a 	add	r23,r16,r2
    1da8:	b8ff7516 	blt	r23,r3,1b80 <__alt_mem_onchip_memory+0xf7801b80>
    1dac:	b0800317 	ldw	r2,12(r22)
    1db0:	b0c00217 	ldw	r3,8(r22)
    1db4:	81bfff04 	addi	r6,r16,-4
    1db8:	01000904 	movi	r4,36
    1dbc:	18800315 	stw	r2,12(r3)
    1dc0:	10c00215 	stw	r3,8(r2)
    1dc4:	b4800204 	addi	r18,r22,8
    1dc8:	21bfe52e 	bgeu	r4,r6,1d60 <__alt_mem_onchip_memory+0xf7801d60>
    1dcc:	a80b883a 	mov	r5,r21
    1dd0:	9009883a 	mov	r4,r18
    1dd4:	00018500 	call	1850 <memmove>
    1dd8:	b821883a 	mov	r16,r23
    1ddc:	b027883a 	mov	r19,r22
    1de0:	003f8a06 	br	1c0c <__alt_mem_onchip_memory+0xf7801c0c>
    1de4:	300b883a 	mov	r5,r6
    1de8:	dfc00917 	ldw	ra,36(sp)
    1dec:	df000817 	ldw	fp,32(sp)
    1df0:	ddc00717 	ldw	r23,28(sp)
    1df4:	dd800617 	ldw	r22,24(sp)
    1df8:	dd400517 	ldw	r21,20(sp)
    1dfc:	dd000417 	ldw	r20,16(sp)
    1e00:	dcc00317 	ldw	r19,12(sp)
    1e04:	dc800217 	ldw	r18,8(sp)
    1e08:	dc400117 	ldw	r17,4(sp)
    1e0c:	dc000017 	ldw	r16,0(sp)
    1e10:	dec00a04 	addi	sp,sp,40
    1e14:	0000e181 	jmpi	e18 <_malloc_r>
    1e18:	a8c00017 	ldw	r3,0(r21)
    1e1c:	90c00015 	stw	r3,0(r18)
    1e20:	a8c00117 	ldw	r3,4(r21)
    1e24:	90c00115 	stw	r3,4(r18)
    1e28:	00c006c4 	movi	r3,27
    1e2c:	19804536 	bltu	r3,r6,1f44 <_realloc_r+0x470>
    1e30:	90800204 	addi	r2,r18,8
    1e34:	a8c00204 	addi	r3,r21,8
    1e38:	003f6306 	br	1bc8 <__alt_mem_onchip_memory+0xf7801bc8>
    1e3c:	9005883a 	mov	r2,r18
    1e40:	a8c00017 	ldw	r3,0(r21)
    1e44:	b821883a 	mov	r16,r23
    1e48:	b027883a 	mov	r19,r22
    1e4c:	10c00015 	stw	r3,0(r2)
    1e50:	a8c00117 	ldw	r3,4(r21)
    1e54:	10c00115 	stw	r3,4(r2)
    1e58:	a8c00217 	ldw	r3,8(r21)
    1e5c:	10c00215 	stw	r3,8(r2)
    1e60:	003f6a06 	br	1c0c <__alt_mem_onchip_memory+0xf7801c0c>
    1e64:	9c67883a 	add	r19,r19,r17
    1e68:	4445c83a 	sub	r2,r8,r17
    1e6c:	e4c00215 	stw	r19,8(fp)
    1e70:	10800054 	ori	r2,r2,1
    1e74:	98800115 	stw	r2,4(r19)
    1e78:	a8bfff17 	ldw	r2,-4(r21)
    1e7c:	a009883a 	mov	r4,r20
    1e80:	1080004c 	andi	r2,r2,1
    1e84:	1462b03a 	or	r17,r2,r17
    1e88:	ac7fff15 	stw	r17,-4(r21)
    1e8c:	00036300 	call	3630 <__malloc_unlock>
    1e90:	a805883a 	mov	r2,r21
    1e94:	003f6b06 	br	1c44 <__alt_mem_onchip_memory+0xf7801c44>
    1e98:	a80b883a 	mov	r5,r21
    1e9c:	9009883a 	mov	r4,r18
    1ea0:	00018500 	call	1850 <memmove>
    1ea4:	003f4e06 	br	1be0 <__alt_mem_onchip_memory+0xf7801be0>
    1ea8:	89000404 	addi	r4,r17,16
    1eac:	b93fbc16 	blt	r23,r4,1da0 <__alt_mem_onchip_memory+0xf7801da0>
    1eb0:	b0800317 	ldw	r2,12(r22)
    1eb4:	b0c00217 	ldw	r3,8(r22)
    1eb8:	81bfff04 	addi	r6,r16,-4
    1ebc:	01000904 	movi	r4,36
    1ec0:	18800315 	stw	r2,12(r3)
    1ec4:	10c00215 	stw	r3,8(r2)
    1ec8:	b4800204 	addi	r18,r22,8
    1ecc:	21804336 	bltu	r4,r6,1fdc <_realloc_r+0x508>
    1ed0:	008004c4 	movi	r2,19
    1ed4:	11803f2e 	bgeu	r2,r6,1fd4 <_realloc_r+0x500>
    1ed8:	a8800017 	ldw	r2,0(r21)
    1edc:	b0800215 	stw	r2,8(r22)
    1ee0:	a8800117 	ldw	r2,4(r21)
    1ee4:	b0800315 	stw	r2,12(r22)
    1ee8:	008006c4 	movi	r2,27
    1eec:	11803f36 	bltu	r2,r6,1fec <_realloc_r+0x518>
    1ef0:	b0800404 	addi	r2,r22,16
    1ef4:	ad400204 	addi	r21,r21,8
    1ef8:	a8c00017 	ldw	r3,0(r21)
    1efc:	10c00015 	stw	r3,0(r2)
    1f00:	a8c00117 	ldw	r3,4(r21)
    1f04:	10c00115 	stw	r3,4(r2)
    1f08:	a8c00217 	ldw	r3,8(r21)
    1f0c:	10c00215 	stw	r3,8(r2)
    1f10:	b447883a 	add	r3,r22,r17
    1f14:	bc45c83a 	sub	r2,r23,r17
    1f18:	e0c00215 	stw	r3,8(fp)
    1f1c:	10800054 	ori	r2,r2,1
    1f20:	18800115 	stw	r2,4(r3)
    1f24:	b0800117 	ldw	r2,4(r22)
    1f28:	a009883a 	mov	r4,r20
    1f2c:	1080004c 	andi	r2,r2,1
    1f30:	1462b03a 	or	r17,r2,r17
    1f34:	b4400115 	stw	r17,4(r22)
    1f38:	00036300 	call	3630 <__malloc_unlock>
    1f3c:	9005883a 	mov	r2,r18
    1f40:	003f4006 	br	1c44 <__alt_mem_onchip_memory+0xf7801c44>
    1f44:	a8c00217 	ldw	r3,8(r21)
    1f48:	90c00215 	stw	r3,8(r18)
    1f4c:	a8c00317 	ldw	r3,12(r21)
    1f50:	90c00315 	stw	r3,12(r18)
    1f54:	30801126 	beq	r6,r2,1f9c <_realloc_r+0x4c8>
    1f58:	90800404 	addi	r2,r18,16
    1f5c:	a8c00404 	addi	r3,r21,16
    1f60:	003f1906 	br	1bc8 <__alt_mem_onchip_memory+0xf7801bc8>
    1f64:	90ffff17 	ldw	r3,-4(r18)
    1f68:	00bfff04 	movi	r2,-4
    1f6c:	a825883a 	mov	r18,r21
    1f70:	1884703a 	and	r2,r3,r2
    1f74:	80a1883a 	add	r16,r16,r2
    1f78:	003f2406 	br	1c0c <__alt_mem_onchip_memory+0xf7801c0c>
    1f7c:	a8800217 	ldw	r2,8(r21)
    1f80:	b0800415 	stw	r2,16(r22)
    1f84:	a8800317 	ldw	r2,12(r21)
    1f88:	b0800515 	stw	r2,20(r22)
    1f8c:	31000a26 	beq	r6,r4,1fb8 <_realloc_r+0x4e4>
    1f90:	b0800604 	addi	r2,r22,24
    1f94:	ad400404 	addi	r21,r21,16
    1f98:	003fa906 	br	1e40 <__alt_mem_onchip_memory+0xf7801e40>
    1f9c:	a9000417 	ldw	r4,16(r21)
    1fa0:	90800604 	addi	r2,r18,24
    1fa4:	a8c00604 	addi	r3,r21,24
    1fa8:	91000415 	stw	r4,16(r18)
    1fac:	a9000517 	ldw	r4,20(r21)
    1fb0:	91000515 	stw	r4,20(r18)
    1fb4:	003f0406 	br	1bc8 <__alt_mem_onchip_memory+0xf7801bc8>
    1fb8:	a8c00417 	ldw	r3,16(r21)
    1fbc:	ad400604 	addi	r21,r21,24
    1fc0:	b0800804 	addi	r2,r22,32
    1fc4:	b0c00615 	stw	r3,24(r22)
    1fc8:	a8ffff17 	ldw	r3,-4(r21)
    1fcc:	b0c00715 	stw	r3,28(r22)
    1fd0:	003f9b06 	br	1e40 <__alt_mem_onchip_memory+0xf7801e40>
    1fd4:	9005883a 	mov	r2,r18
    1fd8:	003fc706 	br	1ef8 <__alt_mem_onchip_memory+0xf7801ef8>
    1fdc:	a80b883a 	mov	r5,r21
    1fe0:	9009883a 	mov	r4,r18
    1fe4:	00018500 	call	1850 <memmove>
    1fe8:	003fc906 	br	1f10 <__alt_mem_onchip_memory+0xf7801f10>
    1fec:	a8800217 	ldw	r2,8(r21)
    1ff0:	b0800415 	stw	r2,16(r22)
    1ff4:	a8800317 	ldw	r2,12(r21)
    1ff8:	b0800515 	stw	r2,20(r22)
    1ffc:	31000726 	beq	r6,r4,201c <_realloc_r+0x548>
    2000:	b0800604 	addi	r2,r22,24
    2004:	ad400404 	addi	r21,r21,16
    2008:	003fbb06 	br	1ef8 <__alt_mem_onchip_memory+0xf7801ef8>
    200c:	a009883a 	mov	r4,r20
    2010:	00036300 	call	3630 <__malloc_unlock>
    2014:	0005883a 	mov	r2,zero
    2018:	003f0a06 	br	1c44 <__alt_mem_onchip_memory+0xf7801c44>
    201c:	a8c00417 	ldw	r3,16(r21)
    2020:	ad400604 	addi	r21,r21,24
    2024:	b0800804 	addi	r2,r22,32
    2028:	b0c00615 	stw	r3,24(r22)
    202c:	a8ffff17 	ldw	r3,-4(r21)
    2030:	b0c00715 	stw	r3,28(r22)
    2034:	003fb006 	br	1ef8 <__alt_mem_onchip_memory+0xf7801ef8>

00002038 <_sbrk_r>:
    2038:	defffd04 	addi	sp,sp,-12
    203c:	dc000015 	stw	r16,0(sp)
    2040:	04000074 	movhi	r16,1
    2044:	dc400115 	stw	r17,4(sp)
    2048:	84350404 	addi	r16,r16,-11248
    204c:	2023883a 	mov	r17,r4
    2050:	2809883a 	mov	r4,r5
    2054:	dfc00215 	stw	ra,8(sp)
    2058:	80000015 	stw	zero,0(r16)
    205c:	00037f00 	call	37f0 <sbrk>
    2060:	00ffffc4 	movi	r3,-1
    2064:	10c00526 	beq	r2,r3,207c <_sbrk_r+0x44>
    2068:	dfc00217 	ldw	ra,8(sp)
    206c:	dc400117 	ldw	r17,4(sp)
    2070:	dc000017 	ldw	r16,0(sp)
    2074:	dec00304 	addi	sp,sp,12
    2078:	f800283a 	ret
    207c:	80c00017 	ldw	r3,0(r16)
    2080:	183ff926 	beq	r3,zero,2068 <__alt_mem_onchip_memory+0xf7802068>
    2084:	88c00015 	stw	r3,0(r17)
    2088:	003ff706 	br	2068 <__alt_mem_onchip_memory+0xf7802068>

0000208c <__sread>:
    208c:	defffe04 	addi	sp,sp,-8
    2090:	dc000015 	stw	r16,0(sp)
    2094:	2821883a 	mov	r16,r5
    2098:	2940038f 	ldh	r5,14(r5)
    209c:	dfc00115 	stw	ra,4(sp)
    20a0:	0002dcc0 	call	2dcc <_read_r>
    20a4:	10000716 	blt	r2,zero,20c4 <__sread+0x38>
    20a8:	80c01417 	ldw	r3,80(r16)
    20ac:	1887883a 	add	r3,r3,r2
    20b0:	80c01415 	stw	r3,80(r16)
    20b4:	dfc00117 	ldw	ra,4(sp)
    20b8:	dc000017 	ldw	r16,0(sp)
    20bc:	dec00204 	addi	sp,sp,8
    20c0:	f800283a 	ret
    20c4:	80c0030b 	ldhu	r3,12(r16)
    20c8:	18fbffcc 	andi	r3,r3,61439
    20cc:	80c0030d 	sth	r3,12(r16)
    20d0:	dfc00117 	ldw	ra,4(sp)
    20d4:	dc000017 	ldw	r16,0(sp)
    20d8:	dec00204 	addi	sp,sp,8
    20dc:	f800283a 	ret

000020e0 <__seofread>:
    20e0:	0005883a 	mov	r2,zero
    20e4:	f800283a 	ret

000020e8 <__swrite>:
    20e8:	2880030b 	ldhu	r2,12(r5)
    20ec:	defffb04 	addi	sp,sp,-20
    20f0:	dcc00315 	stw	r19,12(sp)
    20f4:	dc800215 	stw	r18,8(sp)
    20f8:	dc400115 	stw	r17,4(sp)
    20fc:	dc000015 	stw	r16,0(sp)
    2100:	dfc00415 	stw	ra,16(sp)
    2104:	10c0400c 	andi	r3,r2,256
    2108:	2821883a 	mov	r16,r5
    210c:	2023883a 	mov	r17,r4
    2110:	3025883a 	mov	r18,r6
    2114:	3827883a 	mov	r19,r7
    2118:	18000526 	beq	r3,zero,2130 <__swrite+0x48>
    211c:	2940038f 	ldh	r5,14(r5)
    2120:	01c00084 	movi	r7,2
    2124:	000d883a 	mov	r6,zero
    2128:	0002bb00 	call	2bb0 <_lseek_r>
    212c:	8080030b 	ldhu	r2,12(r16)
    2130:	8140038f 	ldh	r5,14(r16)
    2134:	10bbffcc 	andi	r2,r2,61439
    2138:	980f883a 	mov	r7,r19
    213c:	900d883a 	mov	r6,r18
    2140:	8809883a 	mov	r4,r17
    2144:	8080030d 	sth	r2,12(r16)
    2148:	dfc00417 	ldw	ra,16(sp)
    214c:	dcc00317 	ldw	r19,12(sp)
    2150:	dc800217 	ldw	r18,8(sp)
    2154:	dc400117 	ldw	r17,4(sp)
    2158:	dc000017 	ldw	r16,0(sp)
    215c:	dec00504 	addi	sp,sp,20
    2160:	00021c81 	jmpi	21c8 <_write_r>

00002164 <__sseek>:
    2164:	defffe04 	addi	sp,sp,-8
    2168:	dc000015 	stw	r16,0(sp)
    216c:	2821883a 	mov	r16,r5
    2170:	2940038f 	ldh	r5,14(r5)
    2174:	dfc00115 	stw	ra,4(sp)
    2178:	0002bb00 	call	2bb0 <_lseek_r>
    217c:	00ffffc4 	movi	r3,-1
    2180:	10c00826 	beq	r2,r3,21a4 <__sseek+0x40>
    2184:	80c0030b 	ldhu	r3,12(r16)
    2188:	80801415 	stw	r2,80(r16)
    218c:	18c40014 	ori	r3,r3,4096
    2190:	80c0030d 	sth	r3,12(r16)
    2194:	dfc00117 	ldw	ra,4(sp)
    2198:	dc000017 	ldw	r16,0(sp)
    219c:	dec00204 	addi	sp,sp,8
    21a0:	f800283a 	ret
    21a4:	80c0030b 	ldhu	r3,12(r16)
    21a8:	18fbffcc 	andi	r3,r3,61439
    21ac:	80c0030d 	sth	r3,12(r16)
    21b0:	dfc00117 	ldw	ra,4(sp)
    21b4:	dc000017 	ldw	r16,0(sp)
    21b8:	dec00204 	addi	sp,sp,8
    21bc:	f800283a 	ret

000021c0 <__sclose>:
    21c0:	2940038f 	ldh	r5,14(r5)
    21c4:	000237c1 	jmpi	237c <_close_r>

000021c8 <_write_r>:
    21c8:	defffd04 	addi	sp,sp,-12
    21cc:	2805883a 	mov	r2,r5
    21d0:	dc000015 	stw	r16,0(sp)
    21d4:	04000074 	movhi	r16,1
    21d8:	dc400115 	stw	r17,4(sp)
    21dc:	300b883a 	mov	r5,r6
    21e0:	84350404 	addi	r16,r16,-11248
    21e4:	2023883a 	mov	r17,r4
    21e8:	380d883a 	mov	r6,r7
    21ec:	1009883a 	mov	r4,r2
    21f0:	dfc00215 	stw	ra,8(sp)
    21f4:	80000015 	stw	zero,0(r16)
    21f8:	00038dc0 	call	38dc <write>
    21fc:	00ffffc4 	movi	r3,-1
    2200:	10c00526 	beq	r2,r3,2218 <_write_r+0x50>
    2204:	dfc00217 	ldw	ra,8(sp)
    2208:	dc400117 	ldw	r17,4(sp)
    220c:	dc000017 	ldw	r16,0(sp)
    2210:	dec00304 	addi	sp,sp,12
    2214:	f800283a 	ret
    2218:	80c00017 	ldw	r3,0(r16)
    221c:	183ff926 	beq	r3,zero,2204 <__alt_mem_onchip_memory+0xf7802204>
    2220:	88c00015 	stw	r3,0(r17)
    2224:	003ff706 	br	2204 <__alt_mem_onchip_memory+0xf7802204>

00002228 <__swsetup_r>:
    2228:	00800074 	movhi	r2,1
    222c:	defffd04 	addi	sp,sp,-12
    2230:	10ad6004 	addi	r2,r2,-19072
    2234:	dc400115 	stw	r17,4(sp)
    2238:	2023883a 	mov	r17,r4
    223c:	11000017 	ldw	r4,0(r2)
    2240:	dc000015 	stw	r16,0(sp)
    2244:	dfc00215 	stw	ra,8(sp)
    2248:	2821883a 	mov	r16,r5
    224c:	20000226 	beq	r4,zero,2258 <__swsetup_r+0x30>
    2250:	20800e17 	ldw	r2,56(r4)
    2254:	10003126 	beq	r2,zero,231c <__swsetup_r+0xf4>
    2258:	8080030b 	ldhu	r2,12(r16)
    225c:	10c0020c 	andi	r3,r2,8
    2260:	1009883a 	mov	r4,r2
    2264:	18000f26 	beq	r3,zero,22a4 <__swsetup_r+0x7c>
    2268:	80c00417 	ldw	r3,16(r16)
    226c:	18001526 	beq	r3,zero,22c4 <__swsetup_r+0x9c>
    2270:	1100004c 	andi	r4,r2,1
    2274:	20001c1e 	bne	r4,zero,22e8 <__swsetup_r+0xc0>
    2278:	1080008c 	andi	r2,r2,2
    227c:	1000291e 	bne	r2,zero,2324 <__swsetup_r+0xfc>
    2280:	80800517 	ldw	r2,20(r16)
    2284:	80800215 	stw	r2,8(r16)
    2288:	18001c26 	beq	r3,zero,22fc <__swsetup_r+0xd4>
    228c:	0005883a 	mov	r2,zero
    2290:	dfc00217 	ldw	ra,8(sp)
    2294:	dc400117 	ldw	r17,4(sp)
    2298:	dc000017 	ldw	r16,0(sp)
    229c:	dec00304 	addi	sp,sp,12
    22a0:	f800283a 	ret
    22a4:	2080040c 	andi	r2,r4,16
    22a8:	10002e26 	beq	r2,zero,2364 <__swsetup_r+0x13c>
    22ac:	2080010c 	andi	r2,r4,4
    22b0:	10001e1e 	bne	r2,zero,232c <__swsetup_r+0x104>
    22b4:	80c00417 	ldw	r3,16(r16)
    22b8:	20800214 	ori	r2,r4,8
    22bc:	8080030d 	sth	r2,12(r16)
    22c0:	183feb1e 	bne	r3,zero,2270 <__alt_mem_onchip_memory+0xf7802270>
    22c4:	1100a00c 	andi	r4,r2,640
    22c8:	01408004 	movi	r5,512
    22cc:	217fe826 	beq	r4,r5,2270 <__alt_mem_onchip_memory+0xf7802270>
    22d0:	800b883a 	mov	r5,r16
    22d4:	8809883a 	mov	r4,r17
    22d8:	0002c100 	call	2c10 <__smakebuf_r>
    22dc:	8080030b 	ldhu	r2,12(r16)
    22e0:	80c00417 	ldw	r3,16(r16)
    22e4:	003fe206 	br	2270 <__alt_mem_onchip_memory+0xf7802270>
    22e8:	80800517 	ldw	r2,20(r16)
    22ec:	80000215 	stw	zero,8(r16)
    22f0:	0085c83a 	sub	r2,zero,r2
    22f4:	80800615 	stw	r2,24(r16)
    22f8:	183fe41e 	bne	r3,zero,228c <__alt_mem_onchip_memory+0xf780228c>
    22fc:	80c0030b 	ldhu	r3,12(r16)
    2300:	0005883a 	mov	r2,zero
    2304:	1900200c 	andi	r4,r3,128
    2308:	203fe126 	beq	r4,zero,2290 <__alt_mem_onchip_memory+0xf7802290>
    230c:	18c01014 	ori	r3,r3,64
    2310:	80c0030d 	sth	r3,12(r16)
    2314:	00bfffc4 	movi	r2,-1
    2318:	003fdd06 	br	2290 <__alt_mem_onchip_memory+0xf7802290>
    231c:	00007840 	call	784 <__sinit>
    2320:	003fcd06 	br	2258 <__alt_mem_onchip_memory+0xf7802258>
    2324:	0005883a 	mov	r2,zero
    2328:	003fd606 	br	2284 <__alt_mem_onchip_memory+0xf7802284>
    232c:	81400c17 	ldw	r5,48(r16)
    2330:	28000626 	beq	r5,zero,234c <__swsetup_r+0x124>
    2334:	80801004 	addi	r2,r16,64
    2338:	28800326 	beq	r5,r2,2348 <__swsetup_r+0x120>
    233c:	8809883a 	mov	r4,r17
    2340:	00028a00 	call	28a0 <_free_r>
    2344:	8100030b 	ldhu	r4,12(r16)
    2348:	80000c15 	stw	zero,48(r16)
    234c:	80c00417 	ldw	r3,16(r16)
    2350:	00bff6c4 	movi	r2,-37
    2354:	1108703a 	and	r4,r2,r4
    2358:	80000115 	stw	zero,4(r16)
    235c:	80c00015 	stw	r3,0(r16)
    2360:	003fd506 	br	22b8 <__alt_mem_onchip_memory+0xf78022b8>
    2364:	00800244 	movi	r2,9
    2368:	88800015 	stw	r2,0(r17)
    236c:	20801014 	ori	r2,r4,64
    2370:	8080030d 	sth	r2,12(r16)
    2374:	00bfffc4 	movi	r2,-1
    2378:	003fc506 	br	2290 <__alt_mem_onchip_memory+0xf7802290>

0000237c <_close_r>:
    237c:	defffd04 	addi	sp,sp,-12
    2380:	dc000015 	stw	r16,0(sp)
    2384:	04000074 	movhi	r16,1
    2388:	dc400115 	stw	r17,4(sp)
    238c:	84350404 	addi	r16,r16,-11248
    2390:	2023883a 	mov	r17,r4
    2394:	2809883a 	mov	r4,r5
    2398:	dfc00215 	stw	ra,8(sp)
    239c:	80000015 	stw	zero,0(r16)
    23a0:	00030cc0 	call	30cc <close>
    23a4:	00ffffc4 	movi	r3,-1
    23a8:	10c00526 	beq	r2,r3,23c0 <_close_r+0x44>
    23ac:	dfc00217 	ldw	ra,8(sp)
    23b0:	dc400117 	ldw	r17,4(sp)
    23b4:	dc000017 	ldw	r16,0(sp)
    23b8:	dec00304 	addi	sp,sp,12
    23bc:	f800283a 	ret
    23c0:	80c00017 	ldw	r3,0(r16)
    23c4:	183ff926 	beq	r3,zero,23ac <__alt_mem_onchip_memory+0xf78023ac>
    23c8:	88c00015 	stw	r3,0(r17)
    23cc:	003ff706 	br	23ac <__alt_mem_onchip_memory+0xf78023ac>

000023d0 <_fclose_r>:
    23d0:	28003926 	beq	r5,zero,24b8 <_fclose_r+0xe8>
    23d4:	defffc04 	addi	sp,sp,-16
    23d8:	dc400115 	stw	r17,4(sp)
    23dc:	dc000015 	stw	r16,0(sp)
    23e0:	dfc00315 	stw	ra,12(sp)
    23e4:	dc800215 	stw	r18,8(sp)
    23e8:	2023883a 	mov	r17,r4
    23ec:	2821883a 	mov	r16,r5
    23f0:	20000226 	beq	r4,zero,23fc <_fclose_r+0x2c>
    23f4:	20800e17 	ldw	r2,56(r4)
    23f8:	10002726 	beq	r2,zero,2498 <_fclose_r+0xc8>
    23fc:	8080030f 	ldh	r2,12(r16)
    2400:	1000071e 	bne	r2,zero,2420 <_fclose_r+0x50>
    2404:	0005883a 	mov	r2,zero
    2408:	dfc00317 	ldw	ra,12(sp)
    240c:	dc800217 	ldw	r18,8(sp)
    2410:	dc400117 	ldw	r17,4(sp)
    2414:	dc000017 	ldw	r16,0(sp)
    2418:	dec00404 	addi	sp,sp,16
    241c:	f800283a 	ret
    2420:	800b883a 	mov	r5,r16
    2424:	8809883a 	mov	r4,r17
    2428:	00024d40 	call	24d4 <__sflush_r>
    242c:	1025883a 	mov	r18,r2
    2430:	80800b17 	ldw	r2,44(r16)
    2434:	10000426 	beq	r2,zero,2448 <_fclose_r+0x78>
    2438:	81400717 	ldw	r5,28(r16)
    243c:	8809883a 	mov	r4,r17
    2440:	103ee83a 	callr	r2
    2444:	10001616 	blt	r2,zero,24a0 <_fclose_r+0xd0>
    2448:	8080030b 	ldhu	r2,12(r16)
    244c:	1080200c 	andi	r2,r2,128
    2450:	1000151e 	bne	r2,zero,24a8 <_fclose_r+0xd8>
    2454:	81400c17 	ldw	r5,48(r16)
    2458:	28000526 	beq	r5,zero,2470 <_fclose_r+0xa0>
    245c:	80801004 	addi	r2,r16,64
    2460:	28800226 	beq	r5,r2,246c <_fclose_r+0x9c>
    2464:	8809883a 	mov	r4,r17
    2468:	00028a00 	call	28a0 <_free_r>
    246c:	80000c15 	stw	zero,48(r16)
    2470:	81401117 	ldw	r5,68(r16)
    2474:	28000326 	beq	r5,zero,2484 <_fclose_r+0xb4>
    2478:	8809883a 	mov	r4,r17
    247c:	00028a00 	call	28a0 <_free_r>
    2480:	80001115 	stw	zero,68(r16)
    2484:	00007940 	call	794 <__sfp_lock_acquire>
    2488:	8000030d 	sth	zero,12(r16)
    248c:	00007980 	call	798 <__sfp_lock_release>
    2490:	9005883a 	mov	r2,r18
    2494:	003fdc06 	br	2408 <__alt_mem_onchip_memory+0xf7802408>
    2498:	00007840 	call	784 <__sinit>
    249c:	003fd706 	br	23fc <__alt_mem_onchip_memory+0xf78023fc>
    24a0:	04bfffc4 	movi	r18,-1
    24a4:	003fe806 	br	2448 <__alt_mem_onchip_memory+0xf7802448>
    24a8:	81400417 	ldw	r5,16(r16)
    24ac:	8809883a 	mov	r4,r17
    24b0:	00028a00 	call	28a0 <_free_r>
    24b4:	003fe706 	br	2454 <__alt_mem_onchip_memory+0xf7802454>
    24b8:	0005883a 	mov	r2,zero
    24bc:	f800283a 	ret

000024c0 <fclose>:
    24c0:	00800074 	movhi	r2,1
    24c4:	10ad6004 	addi	r2,r2,-19072
    24c8:	200b883a 	mov	r5,r4
    24cc:	11000017 	ldw	r4,0(r2)
    24d0:	00023d01 	jmpi	23d0 <_fclose_r>

000024d4 <__sflush_r>:
    24d4:	2880030b 	ldhu	r2,12(r5)
    24d8:	defffb04 	addi	sp,sp,-20
    24dc:	dcc00315 	stw	r19,12(sp)
    24e0:	dc400115 	stw	r17,4(sp)
    24e4:	dfc00415 	stw	ra,16(sp)
    24e8:	dc800215 	stw	r18,8(sp)
    24ec:	dc000015 	stw	r16,0(sp)
    24f0:	10c0020c 	andi	r3,r2,8
    24f4:	2823883a 	mov	r17,r5
    24f8:	2027883a 	mov	r19,r4
    24fc:	1800311e 	bne	r3,zero,25c4 <__sflush_r+0xf0>
    2500:	28c00117 	ldw	r3,4(r5)
    2504:	10820014 	ori	r2,r2,2048
    2508:	2880030d 	sth	r2,12(r5)
    250c:	00c04b0e 	bge	zero,r3,263c <__sflush_r+0x168>
    2510:	8a000a17 	ldw	r8,40(r17)
    2514:	40002326 	beq	r8,zero,25a4 <__sflush_r+0xd0>
    2518:	9c000017 	ldw	r16,0(r19)
    251c:	10c4000c 	andi	r3,r2,4096
    2520:	98000015 	stw	zero,0(r19)
    2524:	18004826 	beq	r3,zero,2648 <__sflush_r+0x174>
    2528:	89801417 	ldw	r6,80(r17)
    252c:	10c0010c 	andi	r3,r2,4
    2530:	18000626 	beq	r3,zero,254c <__sflush_r+0x78>
    2534:	88c00117 	ldw	r3,4(r17)
    2538:	88800c17 	ldw	r2,48(r17)
    253c:	30cdc83a 	sub	r6,r6,r3
    2540:	10000226 	beq	r2,zero,254c <__sflush_r+0x78>
    2544:	88800f17 	ldw	r2,60(r17)
    2548:	308dc83a 	sub	r6,r6,r2
    254c:	89400717 	ldw	r5,28(r17)
    2550:	000f883a 	mov	r7,zero
    2554:	9809883a 	mov	r4,r19
    2558:	403ee83a 	callr	r8
    255c:	00ffffc4 	movi	r3,-1
    2560:	10c04426 	beq	r2,r3,2674 <__sflush_r+0x1a0>
    2564:	88c0030b 	ldhu	r3,12(r17)
    2568:	89000417 	ldw	r4,16(r17)
    256c:	88000115 	stw	zero,4(r17)
    2570:	197dffcc 	andi	r5,r3,63487
    2574:	8940030d 	sth	r5,12(r17)
    2578:	89000015 	stw	r4,0(r17)
    257c:	18c4000c 	andi	r3,r3,4096
    2580:	18002c1e 	bne	r3,zero,2634 <__sflush_r+0x160>
    2584:	89400c17 	ldw	r5,48(r17)
    2588:	9c000015 	stw	r16,0(r19)
    258c:	28000526 	beq	r5,zero,25a4 <__sflush_r+0xd0>
    2590:	88801004 	addi	r2,r17,64
    2594:	28800226 	beq	r5,r2,25a0 <__sflush_r+0xcc>
    2598:	9809883a 	mov	r4,r19
    259c:	00028a00 	call	28a0 <_free_r>
    25a0:	88000c15 	stw	zero,48(r17)
    25a4:	0005883a 	mov	r2,zero
    25a8:	dfc00417 	ldw	ra,16(sp)
    25ac:	dcc00317 	ldw	r19,12(sp)
    25b0:	dc800217 	ldw	r18,8(sp)
    25b4:	dc400117 	ldw	r17,4(sp)
    25b8:	dc000017 	ldw	r16,0(sp)
    25bc:	dec00504 	addi	sp,sp,20
    25c0:	f800283a 	ret
    25c4:	2c800417 	ldw	r18,16(r5)
    25c8:	903ff626 	beq	r18,zero,25a4 <__alt_mem_onchip_memory+0xf78025a4>
    25cc:	2c000017 	ldw	r16,0(r5)
    25d0:	108000cc 	andi	r2,r2,3
    25d4:	2c800015 	stw	r18,0(r5)
    25d8:	84a1c83a 	sub	r16,r16,r18
    25dc:	1000131e 	bne	r2,zero,262c <__sflush_r+0x158>
    25e0:	28800517 	ldw	r2,20(r5)
    25e4:	88800215 	stw	r2,8(r17)
    25e8:	04000316 	blt	zero,r16,25f8 <__sflush_r+0x124>
    25ec:	003fed06 	br	25a4 <__alt_mem_onchip_memory+0xf78025a4>
    25f0:	90a5883a 	add	r18,r18,r2
    25f4:	043feb0e 	bge	zero,r16,25a4 <__alt_mem_onchip_memory+0xf78025a4>
    25f8:	88800917 	ldw	r2,36(r17)
    25fc:	89400717 	ldw	r5,28(r17)
    2600:	800f883a 	mov	r7,r16
    2604:	900d883a 	mov	r6,r18
    2608:	9809883a 	mov	r4,r19
    260c:	103ee83a 	callr	r2
    2610:	80a1c83a 	sub	r16,r16,r2
    2614:	00bff616 	blt	zero,r2,25f0 <__alt_mem_onchip_memory+0xf78025f0>
    2618:	88c0030b 	ldhu	r3,12(r17)
    261c:	00bfffc4 	movi	r2,-1
    2620:	18c01014 	ori	r3,r3,64
    2624:	88c0030d 	sth	r3,12(r17)
    2628:	003fdf06 	br	25a8 <__alt_mem_onchip_memory+0xf78025a8>
    262c:	0005883a 	mov	r2,zero
    2630:	003fec06 	br	25e4 <__alt_mem_onchip_memory+0xf78025e4>
    2634:	88801415 	stw	r2,80(r17)
    2638:	003fd206 	br	2584 <__alt_mem_onchip_memory+0xf7802584>
    263c:	28c00f17 	ldw	r3,60(r5)
    2640:	00ffb316 	blt	zero,r3,2510 <__alt_mem_onchip_memory+0xf7802510>
    2644:	003fd706 	br	25a4 <__alt_mem_onchip_memory+0xf78025a4>
    2648:	89400717 	ldw	r5,28(r17)
    264c:	000d883a 	mov	r6,zero
    2650:	01c00044 	movi	r7,1
    2654:	9809883a 	mov	r4,r19
    2658:	403ee83a 	callr	r8
    265c:	100d883a 	mov	r6,r2
    2660:	00bfffc4 	movi	r2,-1
    2664:	30801426 	beq	r6,r2,26b8 <__sflush_r+0x1e4>
    2668:	8880030b 	ldhu	r2,12(r17)
    266c:	8a000a17 	ldw	r8,40(r17)
    2670:	003fae06 	br	252c <__alt_mem_onchip_memory+0xf780252c>
    2674:	98c00017 	ldw	r3,0(r19)
    2678:	183fba26 	beq	r3,zero,2564 <__alt_mem_onchip_memory+0xf7802564>
    267c:	01000744 	movi	r4,29
    2680:	19000626 	beq	r3,r4,269c <__sflush_r+0x1c8>
    2684:	01000584 	movi	r4,22
    2688:	19000426 	beq	r3,r4,269c <__sflush_r+0x1c8>
    268c:	88c0030b 	ldhu	r3,12(r17)
    2690:	18c01014 	ori	r3,r3,64
    2694:	88c0030d 	sth	r3,12(r17)
    2698:	003fc306 	br	25a8 <__alt_mem_onchip_memory+0xf78025a8>
    269c:	8880030b 	ldhu	r2,12(r17)
    26a0:	88c00417 	ldw	r3,16(r17)
    26a4:	88000115 	stw	zero,4(r17)
    26a8:	10bdffcc 	andi	r2,r2,63487
    26ac:	8880030d 	sth	r2,12(r17)
    26b0:	88c00015 	stw	r3,0(r17)
    26b4:	003fb306 	br	2584 <__alt_mem_onchip_memory+0xf7802584>
    26b8:	98800017 	ldw	r2,0(r19)
    26bc:	103fea26 	beq	r2,zero,2668 <__alt_mem_onchip_memory+0xf7802668>
    26c0:	00c00744 	movi	r3,29
    26c4:	10c00226 	beq	r2,r3,26d0 <__sflush_r+0x1fc>
    26c8:	00c00584 	movi	r3,22
    26cc:	10c0031e 	bne	r2,r3,26dc <__sflush_r+0x208>
    26d0:	9c000015 	stw	r16,0(r19)
    26d4:	0005883a 	mov	r2,zero
    26d8:	003fb306 	br	25a8 <__alt_mem_onchip_memory+0xf78025a8>
    26dc:	88c0030b 	ldhu	r3,12(r17)
    26e0:	3005883a 	mov	r2,r6
    26e4:	18c01014 	ori	r3,r3,64
    26e8:	88c0030d 	sth	r3,12(r17)
    26ec:	003fae06 	br	25a8 <__alt_mem_onchip_memory+0xf78025a8>

000026f0 <_fflush_r>:
    26f0:	defffd04 	addi	sp,sp,-12
    26f4:	dc000115 	stw	r16,4(sp)
    26f8:	dfc00215 	stw	ra,8(sp)
    26fc:	2021883a 	mov	r16,r4
    2700:	20000226 	beq	r4,zero,270c <_fflush_r+0x1c>
    2704:	20800e17 	ldw	r2,56(r4)
    2708:	10000c26 	beq	r2,zero,273c <_fflush_r+0x4c>
    270c:	2880030f 	ldh	r2,12(r5)
    2710:	1000051e 	bne	r2,zero,2728 <_fflush_r+0x38>
    2714:	0005883a 	mov	r2,zero
    2718:	dfc00217 	ldw	ra,8(sp)
    271c:	dc000117 	ldw	r16,4(sp)
    2720:	dec00304 	addi	sp,sp,12
    2724:	f800283a 	ret
    2728:	8009883a 	mov	r4,r16
    272c:	dfc00217 	ldw	ra,8(sp)
    2730:	dc000117 	ldw	r16,4(sp)
    2734:	dec00304 	addi	sp,sp,12
    2738:	00024d41 	jmpi	24d4 <__sflush_r>
    273c:	d9400015 	stw	r5,0(sp)
    2740:	00007840 	call	784 <__sinit>
    2744:	d9400017 	ldw	r5,0(sp)
    2748:	003ff006 	br	270c <__alt_mem_onchip_memory+0xf780270c>

0000274c <fflush>:
    274c:	20000526 	beq	r4,zero,2764 <fflush+0x18>
    2750:	00800074 	movhi	r2,1
    2754:	10ad6004 	addi	r2,r2,-19072
    2758:	200b883a 	mov	r5,r4
    275c:	11000017 	ldw	r4,0(r2)
    2760:	00026f01 	jmpi	26f0 <_fflush_r>
    2764:	00800074 	movhi	r2,1
    2768:	10ad5f04 	addi	r2,r2,-19076
    276c:	11000017 	ldw	r4,0(r2)
    2770:	01400034 	movhi	r5,0
    2774:	2949bc04 	addi	r5,r5,9968
    2778:	0000d541 	jmpi	d54 <_fwalk_reent>

0000277c <_malloc_trim_r>:
    277c:	defffb04 	addi	sp,sp,-20
    2780:	dcc00315 	stw	r19,12(sp)
    2784:	04c00074 	movhi	r19,1
    2788:	dc800215 	stw	r18,8(sp)
    278c:	dc400115 	stw	r17,4(sp)
    2790:	dc000015 	stw	r16,0(sp)
    2794:	dfc00415 	stw	ra,16(sp)
    2798:	2821883a 	mov	r16,r5
    279c:	9ce6e604 	addi	r19,r19,-25704
    27a0:	2025883a 	mov	r18,r4
    27a4:	000360c0 	call	360c <__malloc_lock>
    27a8:	98800217 	ldw	r2,8(r19)
    27ac:	14400117 	ldw	r17,4(r2)
    27b0:	00bfff04 	movi	r2,-4
    27b4:	88a2703a 	and	r17,r17,r2
    27b8:	8c21c83a 	sub	r16,r17,r16
    27bc:	8403fbc4 	addi	r16,r16,4079
    27c0:	8020d33a 	srli	r16,r16,12
    27c4:	0083ffc4 	movi	r2,4095
    27c8:	843fffc4 	addi	r16,r16,-1
    27cc:	8020933a 	slli	r16,r16,12
    27d0:	1400060e 	bge	r2,r16,27ec <_malloc_trim_r+0x70>
    27d4:	000b883a 	mov	r5,zero
    27d8:	9009883a 	mov	r4,r18
    27dc:	00020380 	call	2038 <_sbrk_r>
    27e0:	98c00217 	ldw	r3,8(r19)
    27e4:	1c47883a 	add	r3,r3,r17
    27e8:	10c00a26 	beq	r2,r3,2814 <_malloc_trim_r+0x98>
    27ec:	9009883a 	mov	r4,r18
    27f0:	00036300 	call	3630 <__malloc_unlock>
    27f4:	0005883a 	mov	r2,zero
    27f8:	dfc00417 	ldw	ra,16(sp)
    27fc:	dcc00317 	ldw	r19,12(sp)
    2800:	dc800217 	ldw	r18,8(sp)
    2804:	dc400117 	ldw	r17,4(sp)
    2808:	dc000017 	ldw	r16,0(sp)
    280c:	dec00504 	addi	sp,sp,20
    2810:	f800283a 	ret
    2814:	040bc83a 	sub	r5,zero,r16
    2818:	9009883a 	mov	r4,r18
    281c:	00020380 	call	2038 <_sbrk_r>
    2820:	00ffffc4 	movi	r3,-1
    2824:	10c00d26 	beq	r2,r3,285c <_malloc_trim_r+0xe0>
    2828:	00c00074 	movhi	r3,1
    282c:	18f50c04 	addi	r3,r3,-11216
    2830:	18800017 	ldw	r2,0(r3)
    2834:	99000217 	ldw	r4,8(r19)
    2838:	8c23c83a 	sub	r17,r17,r16
    283c:	8c400054 	ori	r17,r17,1
    2840:	1421c83a 	sub	r16,r2,r16
    2844:	24400115 	stw	r17,4(r4)
    2848:	9009883a 	mov	r4,r18
    284c:	1c000015 	stw	r16,0(r3)
    2850:	00036300 	call	3630 <__malloc_unlock>
    2854:	00800044 	movi	r2,1
    2858:	003fe706 	br	27f8 <__alt_mem_onchip_memory+0xf78027f8>
    285c:	000b883a 	mov	r5,zero
    2860:	9009883a 	mov	r4,r18
    2864:	00020380 	call	2038 <_sbrk_r>
    2868:	99000217 	ldw	r4,8(r19)
    286c:	014003c4 	movi	r5,15
    2870:	1107c83a 	sub	r3,r2,r4
    2874:	28ffdd0e 	bge	r5,r3,27ec <__alt_mem_onchip_memory+0xf78027ec>
    2878:	01400074 	movhi	r5,1
    287c:	296d6104 	addi	r5,r5,-19068
    2880:	29400017 	ldw	r5,0(r5)
    2884:	18c00054 	ori	r3,r3,1
    2888:	20c00115 	stw	r3,4(r4)
    288c:	00c00074 	movhi	r3,1
    2890:	1145c83a 	sub	r2,r2,r5
    2894:	18f50c04 	addi	r3,r3,-11216
    2898:	18800015 	stw	r2,0(r3)
    289c:	003fd306 	br	27ec <__alt_mem_onchip_memory+0xf78027ec>

000028a0 <_free_r>:
    28a0:	28004126 	beq	r5,zero,29a8 <_free_r+0x108>
    28a4:	defffd04 	addi	sp,sp,-12
    28a8:	dc400115 	stw	r17,4(sp)
    28ac:	dc000015 	stw	r16,0(sp)
    28b0:	2023883a 	mov	r17,r4
    28b4:	2821883a 	mov	r16,r5
    28b8:	dfc00215 	stw	ra,8(sp)
    28bc:	000360c0 	call	360c <__malloc_lock>
    28c0:	81ffff17 	ldw	r7,-4(r16)
    28c4:	00bfff84 	movi	r2,-2
    28c8:	01000074 	movhi	r4,1
    28cc:	81bffe04 	addi	r6,r16,-8
    28d0:	3884703a 	and	r2,r7,r2
    28d4:	2126e604 	addi	r4,r4,-25704
    28d8:	308b883a 	add	r5,r6,r2
    28dc:	2a400117 	ldw	r9,4(r5)
    28e0:	22000217 	ldw	r8,8(r4)
    28e4:	00ffff04 	movi	r3,-4
    28e8:	48c6703a 	and	r3,r9,r3
    28ec:	2a005726 	beq	r5,r8,2a4c <_free_r+0x1ac>
    28f0:	28c00115 	stw	r3,4(r5)
    28f4:	39c0004c 	andi	r7,r7,1
    28f8:	3800091e 	bne	r7,zero,2920 <_free_r+0x80>
    28fc:	823ffe17 	ldw	r8,-8(r16)
    2900:	22400204 	addi	r9,r4,8
    2904:	320dc83a 	sub	r6,r6,r8
    2908:	31c00217 	ldw	r7,8(r6)
    290c:	1205883a 	add	r2,r2,r8
    2910:	3a406526 	beq	r7,r9,2aa8 <_free_r+0x208>
    2914:	32000317 	ldw	r8,12(r6)
    2918:	3a000315 	stw	r8,12(r7)
    291c:	41c00215 	stw	r7,8(r8)
    2920:	28cf883a 	add	r7,r5,r3
    2924:	39c00117 	ldw	r7,4(r7)
    2928:	39c0004c 	andi	r7,r7,1
    292c:	38003a26 	beq	r7,zero,2a18 <_free_r+0x178>
    2930:	10c00054 	ori	r3,r2,1
    2934:	30c00115 	stw	r3,4(r6)
    2938:	3087883a 	add	r3,r6,r2
    293c:	18800015 	stw	r2,0(r3)
    2940:	00c07fc4 	movi	r3,511
    2944:	18801936 	bltu	r3,r2,29ac <_free_r+0x10c>
    2948:	1004d0fa 	srli	r2,r2,3
    294c:	01c00044 	movi	r7,1
    2950:	21400117 	ldw	r5,4(r4)
    2954:	10c00044 	addi	r3,r2,1
    2958:	18c7883a 	add	r3,r3,r3
    295c:	1005d0ba 	srai	r2,r2,2
    2960:	18c7883a 	add	r3,r3,r3
    2964:	18c7883a 	add	r3,r3,r3
    2968:	1907883a 	add	r3,r3,r4
    296c:	3884983a 	sll	r2,r7,r2
    2970:	19c00017 	ldw	r7,0(r3)
    2974:	1a3ffe04 	addi	r8,r3,-8
    2978:	1144b03a 	or	r2,r2,r5
    297c:	32000315 	stw	r8,12(r6)
    2980:	31c00215 	stw	r7,8(r6)
    2984:	20800115 	stw	r2,4(r4)
    2988:	19800015 	stw	r6,0(r3)
    298c:	39800315 	stw	r6,12(r7)
    2990:	8809883a 	mov	r4,r17
    2994:	dfc00217 	ldw	ra,8(sp)
    2998:	dc400117 	ldw	r17,4(sp)
    299c:	dc000017 	ldw	r16,0(sp)
    29a0:	dec00304 	addi	sp,sp,12
    29a4:	00036301 	jmpi	3630 <__malloc_unlock>
    29a8:	f800283a 	ret
    29ac:	100ad27a 	srli	r5,r2,9
    29b0:	00c00104 	movi	r3,4
    29b4:	19404a36 	bltu	r3,r5,2ae0 <_free_r+0x240>
    29b8:	100ad1ba 	srli	r5,r2,6
    29bc:	28c00e44 	addi	r3,r5,57
    29c0:	18c7883a 	add	r3,r3,r3
    29c4:	29400e04 	addi	r5,r5,56
    29c8:	18c7883a 	add	r3,r3,r3
    29cc:	18c7883a 	add	r3,r3,r3
    29d0:	1909883a 	add	r4,r3,r4
    29d4:	20c00017 	ldw	r3,0(r4)
    29d8:	01c00074 	movhi	r7,1
    29dc:	213ffe04 	addi	r4,r4,-8
    29e0:	39e6e604 	addi	r7,r7,-25704
    29e4:	20c04426 	beq	r4,r3,2af8 <_free_r+0x258>
    29e8:	01ffff04 	movi	r7,-4
    29ec:	19400117 	ldw	r5,4(r3)
    29f0:	29ca703a 	and	r5,r5,r7
    29f4:	1140022e 	bgeu	r2,r5,2a00 <_free_r+0x160>
    29f8:	18c00217 	ldw	r3,8(r3)
    29fc:	20fffb1e 	bne	r4,r3,29ec <__alt_mem_onchip_memory+0xf78029ec>
    2a00:	19000317 	ldw	r4,12(r3)
    2a04:	31000315 	stw	r4,12(r6)
    2a08:	30c00215 	stw	r3,8(r6)
    2a0c:	21800215 	stw	r6,8(r4)
    2a10:	19800315 	stw	r6,12(r3)
    2a14:	003fde06 	br	2990 <__alt_mem_onchip_memory+0xf7802990>
    2a18:	29c00217 	ldw	r7,8(r5)
    2a1c:	10c5883a 	add	r2,r2,r3
    2a20:	00c00074 	movhi	r3,1
    2a24:	18e6e804 	addi	r3,r3,-25696
    2a28:	38c03b26 	beq	r7,r3,2b18 <_free_r+0x278>
    2a2c:	2a000317 	ldw	r8,12(r5)
    2a30:	11400054 	ori	r5,r2,1
    2a34:	3087883a 	add	r3,r6,r2
    2a38:	3a000315 	stw	r8,12(r7)
    2a3c:	41c00215 	stw	r7,8(r8)
    2a40:	31400115 	stw	r5,4(r6)
    2a44:	18800015 	stw	r2,0(r3)
    2a48:	003fbd06 	br	2940 <__alt_mem_onchip_memory+0xf7802940>
    2a4c:	39c0004c 	andi	r7,r7,1
    2a50:	10c5883a 	add	r2,r2,r3
    2a54:	3800071e 	bne	r7,zero,2a74 <_free_r+0x1d4>
    2a58:	81fffe17 	ldw	r7,-8(r16)
    2a5c:	31cdc83a 	sub	r6,r6,r7
    2a60:	30c00317 	ldw	r3,12(r6)
    2a64:	31400217 	ldw	r5,8(r6)
    2a68:	11c5883a 	add	r2,r2,r7
    2a6c:	28c00315 	stw	r3,12(r5)
    2a70:	19400215 	stw	r5,8(r3)
    2a74:	10c00054 	ori	r3,r2,1
    2a78:	30c00115 	stw	r3,4(r6)
    2a7c:	00c00074 	movhi	r3,1
    2a80:	18ed6204 	addi	r3,r3,-19064
    2a84:	18c00017 	ldw	r3,0(r3)
    2a88:	21800215 	stw	r6,8(r4)
    2a8c:	10ffc036 	bltu	r2,r3,2990 <__alt_mem_onchip_memory+0xf7802990>
    2a90:	00800074 	movhi	r2,1
    2a94:	10b50304 	addi	r2,r2,-11252
    2a98:	11400017 	ldw	r5,0(r2)
    2a9c:	8809883a 	mov	r4,r17
    2aa0:	000277c0 	call	277c <_malloc_trim_r>
    2aa4:	003fba06 	br	2990 <__alt_mem_onchip_memory+0xf7802990>
    2aa8:	28c9883a 	add	r4,r5,r3
    2aac:	21000117 	ldw	r4,4(r4)
    2ab0:	2100004c 	andi	r4,r4,1
    2ab4:	2000391e 	bne	r4,zero,2b9c <_free_r+0x2fc>
    2ab8:	29c00217 	ldw	r7,8(r5)
    2abc:	29000317 	ldw	r4,12(r5)
    2ac0:	1885883a 	add	r2,r3,r2
    2ac4:	10c00054 	ori	r3,r2,1
    2ac8:	39000315 	stw	r4,12(r7)
    2acc:	21c00215 	stw	r7,8(r4)
    2ad0:	30c00115 	stw	r3,4(r6)
    2ad4:	308d883a 	add	r6,r6,r2
    2ad8:	30800015 	stw	r2,0(r6)
    2adc:	003fac06 	br	2990 <__alt_mem_onchip_memory+0xf7802990>
    2ae0:	00c00504 	movi	r3,20
    2ae4:	19401536 	bltu	r3,r5,2b3c <_free_r+0x29c>
    2ae8:	28c01704 	addi	r3,r5,92
    2aec:	18c7883a 	add	r3,r3,r3
    2af0:	294016c4 	addi	r5,r5,91
    2af4:	003fb406 	br	29c8 <__alt_mem_onchip_memory+0xf78029c8>
    2af8:	280bd0ba 	srai	r5,r5,2
    2afc:	00c00044 	movi	r3,1
    2b00:	38800117 	ldw	r2,4(r7)
    2b04:	194a983a 	sll	r5,r3,r5
    2b08:	2007883a 	mov	r3,r4
    2b0c:	2884b03a 	or	r2,r5,r2
    2b10:	38800115 	stw	r2,4(r7)
    2b14:	003fbb06 	br	2a04 <__alt_mem_onchip_memory+0xf7802a04>
    2b18:	21800515 	stw	r6,20(r4)
    2b1c:	21800415 	stw	r6,16(r4)
    2b20:	10c00054 	ori	r3,r2,1
    2b24:	31c00315 	stw	r7,12(r6)
    2b28:	31c00215 	stw	r7,8(r6)
    2b2c:	30c00115 	stw	r3,4(r6)
    2b30:	308d883a 	add	r6,r6,r2
    2b34:	30800015 	stw	r2,0(r6)
    2b38:	003f9506 	br	2990 <__alt_mem_onchip_memory+0xf7802990>
    2b3c:	00c01504 	movi	r3,84
    2b40:	19400536 	bltu	r3,r5,2b58 <_free_r+0x2b8>
    2b44:	100ad33a 	srli	r5,r2,12
    2b48:	28c01bc4 	addi	r3,r5,111
    2b4c:	18c7883a 	add	r3,r3,r3
    2b50:	29401b84 	addi	r5,r5,110
    2b54:	003f9c06 	br	29c8 <__alt_mem_onchip_memory+0xf78029c8>
    2b58:	00c05504 	movi	r3,340
    2b5c:	19400536 	bltu	r3,r5,2b74 <_free_r+0x2d4>
    2b60:	100ad3fa 	srli	r5,r2,15
    2b64:	28c01e04 	addi	r3,r5,120
    2b68:	18c7883a 	add	r3,r3,r3
    2b6c:	29401dc4 	addi	r5,r5,119
    2b70:	003f9506 	br	29c8 <__alt_mem_onchip_memory+0xf78029c8>
    2b74:	00c15504 	movi	r3,1364
    2b78:	19400536 	bltu	r3,r5,2b90 <_free_r+0x2f0>
    2b7c:	100ad4ba 	srli	r5,r2,18
    2b80:	28c01f44 	addi	r3,r5,125
    2b84:	18c7883a 	add	r3,r3,r3
    2b88:	29401f04 	addi	r5,r5,124
    2b8c:	003f8e06 	br	29c8 <__alt_mem_onchip_memory+0xf78029c8>
    2b90:	00c03f84 	movi	r3,254
    2b94:	01401f84 	movi	r5,126
    2b98:	003f8b06 	br	29c8 <__alt_mem_onchip_memory+0xf78029c8>
    2b9c:	10c00054 	ori	r3,r2,1
    2ba0:	30c00115 	stw	r3,4(r6)
    2ba4:	308d883a 	add	r6,r6,r2
    2ba8:	30800015 	stw	r2,0(r6)
    2bac:	003f7806 	br	2990 <__alt_mem_onchip_memory+0xf7802990>

00002bb0 <_lseek_r>:
    2bb0:	defffd04 	addi	sp,sp,-12
    2bb4:	2805883a 	mov	r2,r5
    2bb8:	dc000015 	stw	r16,0(sp)
    2bbc:	04000074 	movhi	r16,1
    2bc0:	dc400115 	stw	r17,4(sp)
    2bc4:	300b883a 	mov	r5,r6
    2bc8:	84350404 	addi	r16,r16,-11248
    2bcc:	2023883a 	mov	r17,r4
    2bd0:	380d883a 	mov	r6,r7
    2bd4:	1009883a 	mov	r4,r2
    2bd8:	dfc00215 	stw	ra,8(sp)
    2bdc:	80000015 	stw	zero,0(r16)
    2be0:	00034bc0 	call	34bc <lseek>
    2be4:	00ffffc4 	movi	r3,-1
    2be8:	10c00526 	beq	r2,r3,2c00 <_lseek_r+0x50>
    2bec:	dfc00217 	ldw	ra,8(sp)
    2bf0:	dc400117 	ldw	r17,4(sp)
    2bf4:	dc000017 	ldw	r16,0(sp)
    2bf8:	dec00304 	addi	sp,sp,12
    2bfc:	f800283a 	ret
    2c00:	80c00017 	ldw	r3,0(r16)
    2c04:	183ff926 	beq	r3,zero,2bec <__alt_mem_onchip_memory+0xf7802bec>
    2c08:	88c00015 	stw	r3,0(r17)
    2c0c:	003ff706 	br	2bec <__alt_mem_onchip_memory+0xf7802bec>

00002c10 <__smakebuf_r>:
    2c10:	2880030b 	ldhu	r2,12(r5)
    2c14:	10c0008c 	andi	r3,r2,2
    2c18:	1800411e 	bne	r3,zero,2d20 <__smakebuf_r+0x110>
    2c1c:	deffec04 	addi	sp,sp,-80
    2c20:	dc000f15 	stw	r16,60(sp)
    2c24:	2821883a 	mov	r16,r5
    2c28:	2940038f 	ldh	r5,14(r5)
    2c2c:	dc401015 	stw	r17,64(sp)
    2c30:	dfc01315 	stw	ra,76(sp)
    2c34:	dcc01215 	stw	r19,72(sp)
    2c38:	dc801115 	stw	r18,68(sp)
    2c3c:	2023883a 	mov	r17,r4
    2c40:	28001c16 	blt	r5,zero,2cb4 <__smakebuf_r+0xa4>
    2c44:	d80d883a 	mov	r6,sp
    2c48:	0002e2c0 	call	2e2c <_fstat_r>
    2c4c:	10001816 	blt	r2,zero,2cb0 <__smakebuf_r+0xa0>
    2c50:	d8800117 	ldw	r2,4(sp)
    2c54:	00e00014 	movui	r3,32768
    2c58:	10bc000c 	andi	r2,r2,61440
    2c5c:	14c80020 	cmpeqi	r19,r2,8192
    2c60:	10c03726 	beq	r2,r3,2d40 <__smakebuf_r+0x130>
    2c64:	80c0030b 	ldhu	r3,12(r16)
    2c68:	18c20014 	ori	r3,r3,2048
    2c6c:	80c0030d 	sth	r3,12(r16)
    2c70:	00c80004 	movi	r3,8192
    2c74:	10c0521e 	bne	r2,r3,2dc0 <__smakebuf_r+0x1b0>
    2c78:	8140038f 	ldh	r5,14(r16)
    2c7c:	8809883a 	mov	r4,r17
    2c80:	0002e880 	call	2e88 <_isatty_r>
    2c84:	10004c26 	beq	r2,zero,2db8 <__smakebuf_r+0x1a8>
    2c88:	8080030b 	ldhu	r2,12(r16)
    2c8c:	80c010c4 	addi	r3,r16,67
    2c90:	80c00015 	stw	r3,0(r16)
    2c94:	10800054 	ori	r2,r2,1
    2c98:	8080030d 	sth	r2,12(r16)
    2c9c:	00800044 	movi	r2,1
    2ca0:	80c00415 	stw	r3,16(r16)
    2ca4:	80800515 	stw	r2,20(r16)
    2ca8:	04810004 	movi	r18,1024
    2cac:	00000706 	br	2ccc <__smakebuf_r+0xbc>
    2cb0:	8080030b 	ldhu	r2,12(r16)
    2cb4:	10c0200c 	andi	r3,r2,128
    2cb8:	18001f1e 	bne	r3,zero,2d38 <__smakebuf_r+0x128>
    2cbc:	04810004 	movi	r18,1024
    2cc0:	10820014 	ori	r2,r2,2048
    2cc4:	8080030d 	sth	r2,12(r16)
    2cc8:	0027883a 	mov	r19,zero
    2ccc:	900b883a 	mov	r5,r18
    2cd0:	8809883a 	mov	r4,r17
    2cd4:	0000e180 	call	e18 <_malloc_r>
    2cd8:	10002c26 	beq	r2,zero,2d8c <__smakebuf_r+0x17c>
    2cdc:	80c0030b 	ldhu	r3,12(r16)
    2ce0:	01000034 	movhi	r4,0
    2ce4:	21010f04 	addi	r4,r4,1084
    2ce8:	89000f15 	stw	r4,60(r17)
    2cec:	18c02014 	ori	r3,r3,128
    2cf0:	80c0030d 	sth	r3,12(r16)
    2cf4:	80800015 	stw	r2,0(r16)
    2cf8:	80800415 	stw	r2,16(r16)
    2cfc:	84800515 	stw	r18,20(r16)
    2d00:	98001a1e 	bne	r19,zero,2d6c <__smakebuf_r+0x15c>
    2d04:	dfc01317 	ldw	ra,76(sp)
    2d08:	dcc01217 	ldw	r19,72(sp)
    2d0c:	dc801117 	ldw	r18,68(sp)
    2d10:	dc401017 	ldw	r17,64(sp)
    2d14:	dc000f17 	ldw	r16,60(sp)
    2d18:	dec01404 	addi	sp,sp,80
    2d1c:	f800283a 	ret
    2d20:	288010c4 	addi	r2,r5,67
    2d24:	28800015 	stw	r2,0(r5)
    2d28:	28800415 	stw	r2,16(r5)
    2d2c:	00800044 	movi	r2,1
    2d30:	28800515 	stw	r2,20(r5)
    2d34:	f800283a 	ret
    2d38:	04801004 	movi	r18,64
    2d3c:	003fe006 	br	2cc0 <__alt_mem_onchip_memory+0xf7802cc0>
    2d40:	81000a17 	ldw	r4,40(r16)
    2d44:	00c00034 	movhi	r3,0
    2d48:	18c85904 	addi	r3,r3,8548
    2d4c:	20ffc51e 	bne	r4,r3,2c64 <__alt_mem_onchip_memory+0xf7802c64>
    2d50:	8080030b 	ldhu	r2,12(r16)
    2d54:	04810004 	movi	r18,1024
    2d58:	84801315 	stw	r18,76(r16)
    2d5c:	1484b03a 	or	r2,r2,r18
    2d60:	8080030d 	sth	r2,12(r16)
    2d64:	0027883a 	mov	r19,zero
    2d68:	003fd806 	br	2ccc <__alt_mem_onchip_memory+0xf7802ccc>
    2d6c:	8140038f 	ldh	r5,14(r16)
    2d70:	8809883a 	mov	r4,r17
    2d74:	0002e880 	call	2e88 <_isatty_r>
    2d78:	103fe226 	beq	r2,zero,2d04 <__alt_mem_onchip_memory+0xf7802d04>
    2d7c:	8080030b 	ldhu	r2,12(r16)
    2d80:	10800054 	ori	r2,r2,1
    2d84:	8080030d 	sth	r2,12(r16)
    2d88:	003fde06 	br	2d04 <__alt_mem_onchip_memory+0xf7802d04>
    2d8c:	8080030b 	ldhu	r2,12(r16)
    2d90:	10c0800c 	andi	r3,r2,512
    2d94:	183fdb1e 	bne	r3,zero,2d04 <__alt_mem_onchip_memory+0xf7802d04>
    2d98:	10800094 	ori	r2,r2,2
    2d9c:	80c010c4 	addi	r3,r16,67
    2da0:	8080030d 	sth	r2,12(r16)
    2da4:	00800044 	movi	r2,1
    2da8:	80c00015 	stw	r3,0(r16)
    2dac:	80c00415 	stw	r3,16(r16)
    2db0:	80800515 	stw	r2,20(r16)
    2db4:	003fd306 	br	2d04 <__alt_mem_onchip_memory+0xf7802d04>
    2db8:	04810004 	movi	r18,1024
    2dbc:	003fc306 	br	2ccc <__alt_mem_onchip_memory+0xf7802ccc>
    2dc0:	0027883a 	mov	r19,zero
    2dc4:	04810004 	movi	r18,1024
    2dc8:	003fc006 	br	2ccc <__alt_mem_onchip_memory+0xf7802ccc>

00002dcc <_read_r>:
    2dcc:	defffd04 	addi	sp,sp,-12
    2dd0:	2805883a 	mov	r2,r5
    2dd4:	dc000015 	stw	r16,0(sp)
    2dd8:	04000074 	movhi	r16,1
    2ddc:	dc400115 	stw	r17,4(sp)
    2de0:	300b883a 	mov	r5,r6
    2de4:	84350404 	addi	r16,r16,-11248
    2de8:	2023883a 	mov	r17,r4
    2dec:	380d883a 	mov	r6,r7
    2df0:	1009883a 	mov	r4,r2
    2df4:	dfc00215 	stw	ra,8(sp)
    2df8:	80000015 	stw	zero,0(r16)
    2dfc:	00036900 	call	3690 <read>
    2e00:	00ffffc4 	movi	r3,-1
    2e04:	10c00526 	beq	r2,r3,2e1c <_read_r+0x50>
    2e08:	dfc00217 	ldw	ra,8(sp)
    2e0c:	dc400117 	ldw	r17,4(sp)
    2e10:	dc000017 	ldw	r16,0(sp)
    2e14:	dec00304 	addi	sp,sp,12
    2e18:	f800283a 	ret
    2e1c:	80c00017 	ldw	r3,0(r16)
    2e20:	183ff926 	beq	r3,zero,2e08 <__alt_mem_onchip_memory+0xf7802e08>
    2e24:	88c00015 	stw	r3,0(r17)
    2e28:	003ff706 	br	2e08 <__alt_mem_onchip_memory+0xf7802e08>

00002e2c <_fstat_r>:
    2e2c:	defffd04 	addi	sp,sp,-12
    2e30:	2805883a 	mov	r2,r5
    2e34:	dc000015 	stw	r16,0(sp)
    2e38:	04000074 	movhi	r16,1
    2e3c:	dc400115 	stw	r17,4(sp)
    2e40:	84350404 	addi	r16,r16,-11248
    2e44:	2023883a 	mov	r17,r4
    2e48:	300b883a 	mov	r5,r6
    2e4c:	1009883a 	mov	r4,r2
    2e50:	dfc00215 	stw	ra,8(sp)
    2e54:	80000015 	stw	zero,0(r16)
    2e58:	00032040 	call	3204 <fstat>
    2e5c:	00ffffc4 	movi	r3,-1
    2e60:	10c00526 	beq	r2,r3,2e78 <_fstat_r+0x4c>
    2e64:	dfc00217 	ldw	ra,8(sp)
    2e68:	dc400117 	ldw	r17,4(sp)
    2e6c:	dc000017 	ldw	r16,0(sp)
    2e70:	dec00304 	addi	sp,sp,12
    2e74:	f800283a 	ret
    2e78:	80c00017 	ldw	r3,0(r16)
    2e7c:	183ff926 	beq	r3,zero,2e64 <__alt_mem_onchip_memory+0xf7802e64>
    2e80:	88c00015 	stw	r3,0(r17)
    2e84:	003ff706 	br	2e64 <__alt_mem_onchip_memory+0xf7802e64>

00002e88 <_isatty_r>:
    2e88:	defffd04 	addi	sp,sp,-12
    2e8c:	dc000015 	stw	r16,0(sp)
    2e90:	04000074 	movhi	r16,1
    2e94:	dc400115 	stw	r17,4(sp)
    2e98:	84350404 	addi	r16,r16,-11248
    2e9c:	2023883a 	mov	r17,r4
    2ea0:	2809883a 	mov	r4,r5
    2ea4:	dfc00215 	stw	ra,8(sp)
    2ea8:	80000015 	stw	zero,0(r16)
    2eac:	00032f00 	call	32f0 <isatty>
    2eb0:	00ffffc4 	movi	r3,-1
    2eb4:	10c00526 	beq	r2,r3,2ecc <_isatty_r+0x44>
    2eb8:	dfc00217 	ldw	ra,8(sp)
    2ebc:	dc400117 	ldw	r17,4(sp)
    2ec0:	dc000017 	ldw	r16,0(sp)
    2ec4:	dec00304 	addi	sp,sp,12
    2ec8:	f800283a 	ret
    2ecc:	80c00017 	ldw	r3,0(r16)
    2ed0:	183ff926 	beq	r3,zero,2eb8 <__alt_mem_onchip_memory+0xf7802eb8>
    2ed4:	88c00015 	stw	r3,0(r17)
    2ed8:	003ff706 	br	2eb8 <__alt_mem_onchip_memory+0xf7802eb8>

00002edc <__divsi3>:
    2edc:	20001b16 	blt	r4,zero,2f4c <__divsi3+0x70>
    2ee0:	000f883a 	mov	r7,zero
    2ee4:	28001616 	blt	r5,zero,2f40 <__divsi3+0x64>
    2ee8:	200d883a 	mov	r6,r4
    2eec:	29001a2e 	bgeu	r5,r4,2f58 <__divsi3+0x7c>
    2ef0:	00800804 	movi	r2,32
    2ef4:	00c00044 	movi	r3,1
    2ef8:	00000106 	br	2f00 <__divsi3+0x24>
    2efc:	10000d26 	beq	r2,zero,2f34 <__divsi3+0x58>
    2f00:	294b883a 	add	r5,r5,r5
    2f04:	10bfffc4 	addi	r2,r2,-1
    2f08:	18c7883a 	add	r3,r3,r3
    2f0c:	293ffb36 	bltu	r5,r4,2efc <__alt_mem_onchip_memory+0xf7802efc>
    2f10:	0005883a 	mov	r2,zero
    2f14:	18000726 	beq	r3,zero,2f34 <__divsi3+0x58>
    2f18:	0005883a 	mov	r2,zero
    2f1c:	31400236 	bltu	r6,r5,2f28 <__divsi3+0x4c>
    2f20:	314dc83a 	sub	r6,r6,r5
    2f24:	10c4b03a 	or	r2,r2,r3
    2f28:	1806d07a 	srli	r3,r3,1
    2f2c:	280ad07a 	srli	r5,r5,1
    2f30:	183ffa1e 	bne	r3,zero,2f1c <__alt_mem_onchip_memory+0xf7802f1c>
    2f34:	38000126 	beq	r7,zero,2f3c <__divsi3+0x60>
    2f38:	0085c83a 	sub	r2,zero,r2
    2f3c:	f800283a 	ret
    2f40:	014bc83a 	sub	r5,zero,r5
    2f44:	39c0005c 	xori	r7,r7,1
    2f48:	003fe706 	br	2ee8 <__alt_mem_onchip_memory+0xf7802ee8>
    2f4c:	0109c83a 	sub	r4,zero,r4
    2f50:	01c00044 	movi	r7,1
    2f54:	003fe306 	br	2ee4 <__alt_mem_onchip_memory+0xf7802ee4>
    2f58:	00c00044 	movi	r3,1
    2f5c:	003fee06 	br	2f18 <__alt_mem_onchip_memory+0xf7802f18>

00002f60 <__modsi3>:
    2f60:	20001716 	blt	r4,zero,2fc0 <__modsi3+0x60>
    2f64:	000f883a 	mov	r7,zero
    2f68:	2005883a 	mov	r2,r4
    2f6c:	28001216 	blt	r5,zero,2fb8 <__modsi3+0x58>
    2f70:	2900162e 	bgeu	r5,r4,2fcc <__modsi3+0x6c>
    2f74:	01800804 	movi	r6,32
    2f78:	00c00044 	movi	r3,1
    2f7c:	00000106 	br	2f84 <__modsi3+0x24>
    2f80:	30000a26 	beq	r6,zero,2fac <__modsi3+0x4c>
    2f84:	294b883a 	add	r5,r5,r5
    2f88:	31bfffc4 	addi	r6,r6,-1
    2f8c:	18c7883a 	add	r3,r3,r3
    2f90:	293ffb36 	bltu	r5,r4,2f80 <__alt_mem_onchip_memory+0xf7802f80>
    2f94:	18000526 	beq	r3,zero,2fac <__modsi3+0x4c>
    2f98:	1806d07a 	srli	r3,r3,1
    2f9c:	11400136 	bltu	r2,r5,2fa4 <__modsi3+0x44>
    2fa0:	1145c83a 	sub	r2,r2,r5
    2fa4:	280ad07a 	srli	r5,r5,1
    2fa8:	183ffb1e 	bne	r3,zero,2f98 <__alt_mem_onchip_memory+0xf7802f98>
    2fac:	38000126 	beq	r7,zero,2fb4 <__modsi3+0x54>
    2fb0:	0085c83a 	sub	r2,zero,r2
    2fb4:	f800283a 	ret
    2fb8:	014bc83a 	sub	r5,zero,r5
    2fbc:	003fec06 	br	2f70 <__alt_mem_onchip_memory+0xf7802f70>
    2fc0:	0109c83a 	sub	r4,zero,r4
    2fc4:	01c00044 	movi	r7,1
    2fc8:	003fe706 	br	2f68 <__alt_mem_onchip_memory+0xf7802f68>
    2fcc:	00c00044 	movi	r3,1
    2fd0:	003ff106 	br	2f98 <__alt_mem_onchip_memory+0xf7802f98>

00002fd4 <__udivsi3>:
    2fd4:	200d883a 	mov	r6,r4
    2fd8:	2900152e 	bgeu	r5,r4,3030 <__udivsi3+0x5c>
    2fdc:	28001416 	blt	r5,zero,3030 <__udivsi3+0x5c>
    2fe0:	00800804 	movi	r2,32
    2fe4:	00c00044 	movi	r3,1
    2fe8:	00000206 	br	2ff4 <__udivsi3+0x20>
    2fec:	10000e26 	beq	r2,zero,3028 <__udivsi3+0x54>
    2ff0:	28000516 	blt	r5,zero,3008 <__udivsi3+0x34>
    2ff4:	294b883a 	add	r5,r5,r5
    2ff8:	10bfffc4 	addi	r2,r2,-1
    2ffc:	18c7883a 	add	r3,r3,r3
    3000:	293ffa36 	bltu	r5,r4,2fec <__alt_mem_onchip_memory+0xf7802fec>
    3004:	18000826 	beq	r3,zero,3028 <__udivsi3+0x54>
    3008:	0005883a 	mov	r2,zero
    300c:	31400236 	bltu	r6,r5,3018 <__udivsi3+0x44>
    3010:	314dc83a 	sub	r6,r6,r5
    3014:	10c4b03a 	or	r2,r2,r3
    3018:	1806d07a 	srli	r3,r3,1
    301c:	280ad07a 	srli	r5,r5,1
    3020:	183ffa1e 	bne	r3,zero,300c <__alt_mem_onchip_memory+0xf780300c>
    3024:	f800283a 	ret
    3028:	0005883a 	mov	r2,zero
    302c:	f800283a 	ret
    3030:	00c00044 	movi	r3,1
    3034:	003ff406 	br	3008 <__alt_mem_onchip_memory+0xf7803008>

00003038 <__umodsi3>:
    3038:	2005883a 	mov	r2,r4
    303c:	2900122e 	bgeu	r5,r4,3088 <__umodsi3+0x50>
    3040:	28001116 	blt	r5,zero,3088 <__umodsi3+0x50>
    3044:	01800804 	movi	r6,32
    3048:	00c00044 	movi	r3,1
    304c:	00000206 	br	3058 <__umodsi3+0x20>
    3050:	30000c26 	beq	r6,zero,3084 <__umodsi3+0x4c>
    3054:	28000516 	blt	r5,zero,306c <__umodsi3+0x34>
    3058:	294b883a 	add	r5,r5,r5
    305c:	31bfffc4 	addi	r6,r6,-1
    3060:	18c7883a 	add	r3,r3,r3
    3064:	293ffa36 	bltu	r5,r4,3050 <__alt_mem_onchip_memory+0xf7803050>
    3068:	18000626 	beq	r3,zero,3084 <__umodsi3+0x4c>
    306c:	1806d07a 	srli	r3,r3,1
    3070:	11400136 	bltu	r2,r5,3078 <__umodsi3+0x40>
    3074:	1145c83a 	sub	r2,r2,r5
    3078:	280ad07a 	srli	r5,r5,1
    307c:	183ffb1e 	bne	r3,zero,306c <__alt_mem_onchip_memory+0xf780306c>
    3080:	f800283a 	ret
    3084:	f800283a 	ret
    3088:	00c00044 	movi	r3,1
    308c:	003ff706 	br	306c <__alt_mem_onchip_memory+0xf780306c>

00003090 <alt_get_errno>:
#undef errno

extern int errno;

static ALT_INLINE int* alt_get_errno(void)
{
    3090:	defffe04 	addi	sp,sp,-8
    3094:	dfc00115 	stw	ra,4(sp)
    3098:	df000015 	stw	fp,0(sp)
    309c:	d839883a 	mov	fp,sp
  return ((alt_errno) ? alt_errno() : &errno);
    30a0:	d0a00917 	ldw	r2,-32732(gp)
    30a4:	10000326 	beq	r2,zero,30b4 <alt_get_errno+0x24>
    30a8:	d0a00917 	ldw	r2,-32732(gp)
    30ac:	103ee83a 	callr	r2
    30b0:	00000106 	br	30b8 <alt_get_errno+0x28>
    30b4:	d0a7a504 	addi	r2,gp,-24940
}
    30b8:	e037883a 	mov	sp,fp
    30bc:	dfc00117 	ldw	ra,4(sp)
    30c0:	df000017 	ldw	fp,0(sp)
    30c4:	dec00204 	addi	sp,sp,8
    30c8:	f800283a 	ret

000030cc <close>:
 *
 * ALT_CLOSE is mapped onto the close() system call in alt_syscall.h
 */
 
int ALT_CLOSE (int fildes)
{
    30cc:	defffb04 	addi	sp,sp,-20
    30d0:	dfc00415 	stw	ra,16(sp)
    30d4:	df000315 	stw	fp,12(sp)
    30d8:	df000304 	addi	fp,sp,12
    30dc:	e13fff15 	stw	r4,-4(fp)
   * A common error case is that when the file descriptor was created, the call
   * to open() failed resulting in a negative file descriptor. This is trapped
   * below so that we don't try and process an invalid file descriptor.
   */

  fd = (fildes < 0) ? NULL : &alt_fd_list[fildes];
    30e0:	e0bfff17 	ldw	r2,-4(fp)
    30e4:	10000616 	blt	r2,zero,3100 <close+0x34>
    30e8:	e0bfff17 	ldw	r2,-4(fp)
    30ec:	10c00324 	muli	r3,r2,12
    30f0:	00800074 	movhi	r2,1
    30f4:	10a7f204 	addi	r2,r2,-24632
    30f8:	1885883a 	add	r2,r3,r2
    30fc:	00000106 	br	3104 <close+0x38>
    3100:	0005883a 	mov	r2,zero
    3104:	e0bffd15 	stw	r2,-12(fp)

  if (fd)
    3108:	e0bffd17 	ldw	r2,-12(fp)
    310c:	10001926 	beq	r2,zero,3174 <close+0xa8>
    /*
     * If the associated file system/device has a close function, call it so 
     * that any necessary cleanup code can run.
     */

    rval = (fd->dev->close) ? fd->dev->close(fd) : 0;
    3110:	e0bffd17 	ldw	r2,-12(fp)
    3114:	10800017 	ldw	r2,0(r2)
    3118:	10800417 	ldw	r2,16(r2)
    311c:	10000626 	beq	r2,zero,3138 <close+0x6c>
    3120:	e0bffd17 	ldw	r2,-12(fp)
    3124:	10800017 	ldw	r2,0(r2)
    3128:	10800417 	ldw	r2,16(r2)
    312c:	e13ffd17 	ldw	r4,-12(fp)
    3130:	103ee83a 	callr	r2
    3134:	00000106 	br	313c <close+0x70>
    3138:	0005883a 	mov	r2,zero
    313c:	e0bffe15 	stw	r2,-8(fp)

    /* Free the file descriptor structure and return. */

    alt_release_fd (fildes);
    3140:	e13fff17 	ldw	r4,-4(fp)
    3144:	000378c0 	call	378c <alt_release_fd>
    if (rval < 0)
    3148:	e0bffe17 	ldw	r2,-8(fp)
    314c:	1000070e 	bge	r2,zero,316c <close+0xa0>
    {
      ALT_ERRNO = -rval;
    3150:	00030900 	call	3090 <alt_get_errno>
    3154:	1007883a 	mov	r3,r2
    3158:	e0bffe17 	ldw	r2,-8(fp)
    315c:	0085c83a 	sub	r2,zero,r2
    3160:	18800015 	stw	r2,0(r3)
      return -1;
    3164:	00bfffc4 	movi	r2,-1
    3168:	00000706 	br	3188 <close+0xbc>
    }
    return 0;
    316c:	0005883a 	mov	r2,zero
    3170:	00000506 	br	3188 <close+0xbc>
  }
  else
  {
    ALT_ERRNO = EBADFD;
    3174:	00030900 	call	3090 <alt_get_errno>
    3178:	1007883a 	mov	r3,r2
    317c:	00801444 	movi	r2,81
    3180:	18800015 	stw	r2,0(r3)
    return -1;
    3184:	00bfffc4 	movi	r2,-1
  }
}
    3188:	e037883a 	mov	sp,fp
    318c:	dfc00117 	ldw	ra,4(sp)
    3190:	df000017 	ldw	fp,0(sp)
    3194:	dec00204 	addi	sp,sp,8
    3198:	f800283a 	ret

0000319c <alt_dev_null_write>:
 * by the alt_dev_null device. It simple discards all data passed to it, and
 * indicates that the data has been successfully transmitted.
 */

static int alt_dev_null_write (alt_fd* fd, const char* ptr, int len)
{
    319c:	defffc04 	addi	sp,sp,-16
    31a0:	df000315 	stw	fp,12(sp)
    31a4:	df000304 	addi	fp,sp,12
    31a8:	e13ffd15 	stw	r4,-12(fp)
    31ac:	e17ffe15 	stw	r5,-8(fp)
    31b0:	e1bfff15 	stw	r6,-4(fp)
  return len;
    31b4:	e0bfff17 	ldw	r2,-4(fp)
}
    31b8:	e037883a 	mov	sp,fp
    31bc:	df000017 	ldw	fp,0(sp)
    31c0:	dec00104 	addi	sp,sp,4
    31c4:	f800283a 	ret

000031c8 <alt_get_errno>:
#undef errno

extern int errno;

static ALT_INLINE int* alt_get_errno(void)
{
    31c8:	defffe04 	addi	sp,sp,-8
    31cc:	dfc00115 	stw	ra,4(sp)
    31d0:	df000015 	stw	fp,0(sp)
    31d4:	d839883a 	mov	fp,sp
  return ((alt_errno) ? alt_errno() : &errno);
    31d8:	d0a00917 	ldw	r2,-32732(gp)
    31dc:	10000326 	beq	r2,zero,31ec <alt_get_errno+0x24>
    31e0:	d0a00917 	ldw	r2,-32732(gp)
    31e4:	103ee83a 	callr	r2
    31e8:	00000106 	br	31f0 <alt_get_errno+0x28>
    31ec:	d0a7a504 	addi	r2,gp,-24940
}
    31f0:	e037883a 	mov	sp,fp
    31f4:	dfc00117 	ldw	ra,4(sp)
    31f8:	df000017 	ldw	fp,0(sp)
    31fc:	dec00204 	addi	sp,sp,8
    3200:	f800283a 	ret

00003204 <fstat>:
}

#else /* !ALT_USE_DIRECT_DRIVERS */

int ALT_FSTAT (int file, struct stat *st)
{
    3204:	defffb04 	addi	sp,sp,-20
    3208:	dfc00415 	stw	ra,16(sp)
    320c:	df000315 	stw	fp,12(sp)
    3210:	df000304 	addi	fp,sp,12
    3214:	e13ffe15 	stw	r4,-8(fp)
    3218:	e17fff15 	stw	r5,-4(fp)
   * A common error case is that when the file descriptor was created, the call
   * to open() failed resulting in a negative file descriptor. This is trapped
   * below so that we don't try and process an invalid file descriptor.
   */

  fd = (file < 0) ? NULL : &alt_fd_list[file];
    321c:	e0bffe17 	ldw	r2,-8(fp)
    3220:	10000616 	blt	r2,zero,323c <fstat+0x38>
    3224:	e0bffe17 	ldw	r2,-8(fp)
    3228:	10c00324 	muli	r3,r2,12
    322c:	00800074 	movhi	r2,1
    3230:	10a7f204 	addi	r2,r2,-24632
    3234:	1885883a 	add	r2,r3,r2
    3238:	00000106 	br	3240 <fstat+0x3c>
    323c:	0005883a 	mov	r2,zero
    3240:	e0bffd15 	stw	r2,-12(fp)
  
  if (fd)
    3244:	e0bffd17 	ldw	r2,-12(fp)
    3248:	10001026 	beq	r2,zero,328c <fstat+0x88>
  {
    /* Call the drivers fstat() function to fill out the "st" structure. */

    if (fd->dev->fstat)
    324c:	e0bffd17 	ldw	r2,-12(fp)
    3250:	10800017 	ldw	r2,0(r2)
    3254:	10800817 	ldw	r2,32(r2)
    3258:	10000726 	beq	r2,zero,3278 <fstat+0x74>
    {
      return fd->dev->fstat(fd, st);
    325c:	e0bffd17 	ldw	r2,-12(fp)
    3260:	10800017 	ldw	r2,0(r2)
    3264:	10800817 	ldw	r2,32(r2)
    3268:	e17fff17 	ldw	r5,-4(fp)
    326c:	e13ffd17 	ldw	r4,-12(fp)
    3270:	103ee83a 	callr	r2
    3274:	00000a06 	br	32a0 <fstat+0x9c>
     * device.
     */
 
    else
    {
      st->st_mode = _IFCHR;
    3278:	e0bfff17 	ldw	r2,-4(fp)
    327c:	00c80004 	movi	r3,8192
    3280:	10c00115 	stw	r3,4(r2)
      return 0;
    3284:	0005883a 	mov	r2,zero
    3288:	00000506 	br	32a0 <fstat+0x9c>
    }
  }
  else
  {
    ALT_ERRNO = EBADFD;
    328c:	00031c80 	call	31c8 <alt_get_errno>
    3290:	1007883a 	mov	r3,r2
    3294:	00801444 	movi	r2,81
    3298:	18800015 	stw	r2,0(r3)
    return -1;
    329c:	00bfffc4 	movi	r2,-1
  }
}
    32a0:	e037883a 	mov	sp,fp
    32a4:	dfc00117 	ldw	ra,4(sp)
    32a8:	df000017 	ldw	fp,0(sp)
    32ac:	dec00204 	addi	sp,sp,8
    32b0:	f800283a 	ret

000032b4 <alt_get_errno>:
#undef errno

extern int errno;

static ALT_INLINE int* alt_get_errno(void)
{
    32b4:	defffe04 	addi	sp,sp,-8
    32b8:	dfc00115 	stw	ra,4(sp)
    32bc:	df000015 	stw	fp,0(sp)
    32c0:	d839883a 	mov	fp,sp
  return ((alt_errno) ? alt_errno() : &errno);
    32c4:	d0a00917 	ldw	r2,-32732(gp)
    32c8:	10000326 	beq	r2,zero,32d8 <alt_get_errno+0x24>
    32cc:	d0a00917 	ldw	r2,-32732(gp)
    32d0:	103ee83a 	callr	r2
    32d4:	00000106 	br	32dc <alt_get_errno+0x28>
    32d8:	d0a7a504 	addi	r2,gp,-24940
}
    32dc:	e037883a 	mov	sp,fp
    32e0:	dfc00117 	ldw	ra,4(sp)
    32e4:	df000017 	ldw	fp,0(sp)
    32e8:	dec00204 	addi	sp,sp,8
    32ec:	f800283a 	ret

000032f0 <isatty>:
 *
 * ALT_ISATTY is mapped onto the isatty() system call in alt_syscall.h
 */
 
int ALT_ISATTY (int file)
{
    32f0:	deffed04 	addi	sp,sp,-76
    32f4:	dfc01215 	stw	ra,72(sp)
    32f8:	df001115 	stw	fp,68(sp)
    32fc:	df001104 	addi	fp,sp,68
    3300:	e13fff15 	stw	r4,-4(fp)
   * A common error case is that when the file descriptor was created, the call
   * to open() failed resulting in a negative file descriptor. This is trapped
   * below so that we don't try and process an invalid file descriptor.
   */

  fd = (file < 0) ? NULL : &alt_fd_list[file];
    3304:	e0bfff17 	ldw	r2,-4(fp)
    3308:	10000616 	blt	r2,zero,3324 <isatty+0x34>
    330c:	e0bfff17 	ldw	r2,-4(fp)
    3310:	10c00324 	muli	r3,r2,12
    3314:	00800074 	movhi	r2,1
    3318:	10a7f204 	addi	r2,r2,-24632
    331c:	1885883a 	add	r2,r3,r2
    3320:	00000106 	br	3328 <isatty+0x38>
    3324:	0005883a 	mov	r2,zero
    3328:	e0bfef15 	stw	r2,-68(fp)
  
  if (fd)
    332c:	e0bfef17 	ldw	r2,-68(fp)
    3330:	10000e26 	beq	r2,zero,336c <isatty+0x7c>
    /*
     * If a device driver does not provide an fstat() function, then it is 
     * treated as a terminal device by default.
     */

    if (!fd->dev->fstat)
    3334:	e0bfef17 	ldw	r2,-68(fp)
    3338:	10800017 	ldw	r2,0(r2)
    333c:	10800817 	ldw	r2,32(r2)
    3340:	1000021e 	bne	r2,zero,334c <isatty+0x5c>
    {
      return 1;
    3344:	00800044 	movi	r2,1
    3348:	00000d06 	br	3380 <isatty+0x90>
     * this is called so that the device can identify itself.
     */ 

    else
    {
      fstat (file, &stat);
    334c:	e0bff004 	addi	r2,fp,-64
    3350:	100b883a 	mov	r5,r2
    3354:	e13fff17 	ldw	r4,-4(fp)
    3358:	00032040 	call	3204 <fstat>
      return (stat.st_mode == _IFCHR) ? 1 : 0;
    335c:	e0bff117 	ldw	r2,-60(fp)
    3360:	10880020 	cmpeqi	r2,r2,8192
    3364:	10803fcc 	andi	r2,r2,255
    3368:	00000506 	br	3380 <isatty+0x90>
    }
  }
  else
  {
    ALT_ERRNO = EBADFD;
    336c:	00032b40 	call	32b4 <alt_get_errno>
    3370:	1007883a 	mov	r3,r2
    3374:	00801444 	movi	r2,81
    3378:	18800015 	stw	r2,0(r3)
    return 0;
    337c:	0005883a 	mov	r2,zero
  }
}
    3380:	e037883a 	mov	sp,fp
    3384:	dfc00117 	ldw	ra,4(sp)
    3388:	df000017 	ldw	fp,0(sp)
    338c:	dec00204 	addi	sp,sp,8
    3390:	f800283a 	ret

00003394 <alt_load_section>:
 */

static void ALT_INLINE alt_load_section (alt_u32* from, 
                                         alt_u32* to, 
                                         alt_u32* end)
{
    3394:	defffc04 	addi	sp,sp,-16
    3398:	df000315 	stw	fp,12(sp)
    339c:	df000304 	addi	fp,sp,12
    33a0:	e13ffd15 	stw	r4,-12(fp)
    33a4:	e17ffe15 	stw	r5,-8(fp)
    33a8:	e1bfff15 	stw	r6,-4(fp)
  if (to != from)
    33ac:	e0fffe17 	ldw	r3,-8(fp)
    33b0:	e0bffd17 	ldw	r2,-12(fp)
    33b4:	18800c26 	beq	r3,r2,33e8 <alt_load_section+0x54>
  {
    while( to != end )
    33b8:	00000806 	br	33dc <alt_load_section+0x48>
    {
      *to++ = *from++;
    33bc:	e0bffe17 	ldw	r2,-8(fp)
    33c0:	10c00104 	addi	r3,r2,4
    33c4:	e0fffe15 	stw	r3,-8(fp)
    33c8:	e0fffd17 	ldw	r3,-12(fp)
    33cc:	19000104 	addi	r4,r3,4
    33d0:	e13ffd15 	stw	r4,-12(fp)
    33d4:	18c00017 	ldw	r3,0(r3)
    33d8:	10c00015 	stw	r3,0(r2)
                                         alt_u32* to, 
                                         alt_u32* end)
{
  if (to != from)
  {
    while( to != end )
    33dc:	e0fffe17 	ldw	r3,-8(fp)
    33e0:	e0bfff17 	ldw	r2,-4(fp)
    33e4:	18bff51e 	bne	r3,r2,33bc <__alt_mem_onchip_memory+0xf78033bc>
    {
      *to++ = *from++;
    }
  }
}
    33e8:	0001883a 	nop
    33ec:	e037883a 	mov	sp,fp
    33f0:	df000017 	ldw	fp,0(sp)
    33f4:	dec00104 	addi	sp,sp,4
    33f8:	f800283a 	ret

000033fc <alt_load>:
 * there is no bootloader, so this application is responsible for loading to
 * RAM any sections that are required.
 */  

void alt_load (void)
{
    33fc:	defffe04 	addi	sp,sp,-8
    3400:	dfc00115 	stw	ra,4(sp)
    3404:	df000015 	stw	fp,0(sp)
    3408:	d839883a 	mov	fp,sp
  /* 
   * Copy the .rwdata section. 
   */

  alt_load_section (&__flash_rwdata_start, 
    340c:	01800074 	movhi	r6,1
    3410:	31ad6f04 	addi	r6,r6,-19012
    3414:	01400074 	movhi	r5,1
    3418:	2965dd04 	addi	r5,r5,-26764
    341c:	01000074 	movhi	r4,1
    3420:	212d6f04 	addi	r4,r4,-19012
    3424:	00033940 	call	3394 <alt_load_section>

  /*
   * Copy the exception handler.
   */

  alt_load_section (&__flash_exceptions_start, 
    3428:	01800034 	movhi	r6,0
    342c:	31809204 	addi	r6,r6,584
    3430:	01400034 	movhi	r5,0
    3434:	29400804 	addi	r5,r5,32
    3438:	01000034 	movhi	r4,0
    343c:	21000804 	addi	r4,r4,32
    3440:	00033940 	call	3394 <alt_load_section>

  /*
   * Copy the .rodata section.
   */

  alt_load_section (&__flash_rodata_start, 
    3444:	01800074 	movhi	r6,1
    3448:	31a5dd04 	addi	r6,r6,-26764
    344c:	01400074 	movhi	r5,1
    3450:	29657304 	addi	r5,r5,-27188
    3454:	01000074 	movhi	r4,1
    3458:	21257304 	addi	r4,r4,-27188
    345c:	00033940 	call	3394 <alt_load_section>
  
  /*
   * Now ensure that the caches are in synch.
   */
  
  alt_dcache_flush_all();
    3460:	00079fc0 	call	79fc <alt_dcache_flush_all>
  alt_icache_flush_all();
    3464:	0007d300 	call	7d30 <alt_icache_flush_all>
}
    3468:	0001883a 	nop
    346c:	e037883a 	mov	sp,fp
    3470:	dfc00117 	ldw	ra,4(sp)
    3474:	df000017 	ldw	fp,0(sp)
    3478:	dec00204 	addi	sp,sp,8
    347c:	f800283a 	ret

00003480 <alt_get_errno>:
#undef errno

extern int errno;

static ALT_INLINE int* alt_get_errno(void)
{
    3480:	defffe04 	addi	sp,sp,-8
    3484:	dfc00115 	stw	ra,4(sp)
    3488:	df000015 	stw	fp,0(sp)
    348c:	d839883a 	mov	fp,sp
  return ((alt_errno) ? alt_errno() : &errno);
    3490:	d0a00917 	ldw	r2,-32732(gp)
    3494:	10000326 	beq	r2,zero,34a4 <alt_get_errno+0x24>
    3498:	d0a00917 	ldw	r2,-32732(gp)
    349c:	103ee83a 	callr	r2
    34a0:	00000106 	br	34a8 <alt_get_errno+0x28>
    34a4:	d0a7a504 	addi	r2,gp,-24940
}
    34a8:	e037883a 	mov	sp,fp
    34ac:	dfc00117 	ldw	ra,4(sp)
    34b0:	df000017 	ldw	fp,0(sp)
    34b4:	dec00204 	addi	sp,sp,8
    34b8:	f800283a 	ret

000034bc <lseek>:
 * ALT_LSEEK is mapped onto the lseek() system call in alt_syscall.h
 *
 */

off_t ALT_LSEEK (int file, off_t ptr, int dir)
{
    34bc:	defff904 	addi	sp,sp,-28
    34c0:	dfc00615 	stw	ra,24(sp)
    34c4:	df000515 	stw	fp,20(sp)
    34c8:	df000504 	addi	fp,sp,20
    34cc:	e13ffd15 	stw	r4,-12(fp)
    34d0:	e17ffe15 	stw	r5,-8(fp)
    34d4:	e1bfff15 	stw	r6,-4(fp)
  alt_fd* fd;
  off_t   rc = 0; 
    34d8:	e03ffb15 	stw	zero,-20(fp)
   * A common error case is that when the file descriptor was created, the call
   * to open() failed resulting in a negative file descriptor. This is trapped
   * below so that we don't try and process an invalid file descriptor.
   */

  fd = (file < 0) ? NULL : &alt_fd_list[file];
    34dc:	e0bffd17 	ldw	r2,-12(fp)
    34e0:	10000616 	blt	r2,zero,34fc <lseek+0x40>
    34e4:	e0bffd17 	ldw	r2,-12(fp)
    34e8:	10c00324 	muli	r3,r2,12
    34ec:	00800074 	movhi	r2,1
    34f0:	10a7f204 	addi	r2,r2,-24632
    34f4:	1885883a 	add	r2,r3,r2
    34f8:	00000106 	br	3500 <lseek+0x44>
    34fc:	0005883a 	mov	r2,zero
    3500:	e0bffc15 	stw	r2,-16(fp)
  
  if (fd) 
    3504:	e0bffc17 	ldw	r2,-16(fp)
    3508:	10001026 	beq	r2,zero,354c <lseek+0x90>
    /*
     * If the device driver provides an implementation of the lseek() function,
     * then call that to process the request.
     */
 
    if (fd->dev->lseek)
    350c:	e0bffc17 	ldw	r2,-16(fp)
    3510:	10800017 	ldw	r2,0(r2)
    3514:	10800717 	ldw	r2,28(r2)
    3518:	10000926 	beq	r2,zero,3540 <lseek+0x84>
    {
      rc = fd->dev->lseek(fd, ptr, dir);
    351c:	e0bffc17 	ldw	r2,-16(fp)
    3520:	10800017 	ldw	r2,0(r2)
    3524:	10800717 	ldw	r2,28(r2)
    3528:	e1bfff17 	ldw	r6,-4(fp)
    352c:	e17ffe17 	ldw	r5,-8(fp)
    3530:	e13ffc17 	ldw	r4,-16(fp)
    3534:	103ee83a 	callr	r2
    3538:	e0bffb15 	stw	r2,-20(fp)
    353c:	00000506 	br	3554 <lseek+0x98>
     * Otherwise return an error.
     */

    else
    {
      rc = -ENOTSUP;
    3540:	00bfde84 	movi	r2,-134
    3544:	e0bffb15 	stw	r2,-20(fp)
    3548:	00000206 	br	3554 <lseek+0x98>
    }
  }
  else  
  {
    rc = -EBADFD;
    354c:	00bfebc4 	movi	r2,-81
    3550:	e0bffb15 	stw	r2,-20(fp)
  }

  if (rc < 0)
    3554:	e0bffb17 	ldw	r2,-20(fp)
    3558:	1000070e 	bge	r2,zero,3578 <lseek+0xbc>
  {
    ALT_ERRNO = -rc;
    355c:	00034800 	call	3480 <alt_get_errno>
    3560:	1007883a 	mov	r3,r2
    3564:	e0bffb17 	ldw	r2,-20(fp)
    3568:	0085c83a 	sub	r2,zero,r2
    356c:	18800015 	stw	r2,0(r3)
    rc = -1;
    3570:	00bfffc4 	movi	r2,-1
    3574:	e0bffb15 	stw	r2,-20(fp)
  }

  return rc;
    3578:	e0bffb17 	ldw	r2,-20(fp)
}
    357c:	e037883a 	mov	sp,fp
    3580:	dfc00117 	ldw	ra,4(sp)
    3584:	df000017 	ldw	fp,0(sp)
    3588:	dec00204 	addi	sp,sp,8
    358c:	f800283a 	ret

00003590 <alt_main>:
 * devices/filesystems/components in the system; and call the entry point for
 * the users application, i.e. main().
 */

void alt_main (void)
{
    3590:	defffd04 	addi	sp,sp,-12
    3594:	dfc00215 	stw	ra,8(sp)
    3598:	df000115 	stw	fp,4(sp)
    359c:	df000104 	addi	fp,sp,4
#endif

  /* ALT LOG - please see HAL/sys/alt_log_printf.h for details */
  ALT_LOG_PRINT_BOOT("[alt_main.c] Entering alt_main, calling alt_irq_init.\r\n");
  /* Initialize the interrupt controller. */
  alt_irq_init (NULL);
    35a0:	0009883a 	mov	r4,zero
    35a4:	0003a080 	call	3a08 <alt_irq_init>

  /* Initialize the operating system */
  ALT_LOG_PRINT_BOOT("[alt_main.c] Done alt_irq_init, calling alt_os_init.\r\n");
  ALT_OS_INIT();
    35a8:	0001883a 	nop
  ALT_LOG_PRINT_BOOT("[alt_main.c] Done OS Init, calling alt_sem_create.\r\n");
  ALT_SEM_CREATE (&alt_fd_list_lock, 1);

  /* Initialize the device drivers/software components. */
  ALT_LOG_PRINT_BOOT("[alt_main.c] Calling alt_sys_init.\r\n");
  alt_sys_init();
    35ac:	0003a400 	call	3a40 <alt_sys_init>
   * devices be present (not equal to /dev/null) and if direct drivers
   * aren't being used.
   */

    ALT_LOG_PRINT_BOOT("[alt_main.c] Redirecting IO.\r\n");
    alt_io_redirect(ALT_STDOUT, ALT_STDIN, ALT_STDERR);
    35b0:	01800074 	movhi	r6,1
    35b4:	31a57d04 	addi	r6,r6,-27148
    35b8:	01400074 	movhi	r5,1
    35bc:	29657d04 	addi	r5,r5,-27148
    35c0:	01000074 	movhi	r4,1
    35c4:	21257d04 	addi	r4,r4,-27148
    35c8:	0007e280 	call	7e28 <alt_io_redirect>
  /* 
   * Call the C++ constructors 
   */

  ALT_LOG_PRINT_BOOT("[alt_main.c] Calling C++ constructors.\r\n");
  _do_ctors ();
    35cc:	0007b240 	call	7b24 <_do_ctors>
   * redefined as _exit()). This is in the interest of reducing code footprint,
   * in that the atexit() overhead is removed when it's not needed.
   */

  ALT_LOG_PRINT_BOOT("[alt_main.c] Calling atexit.\r\n");
  atexit (_do_dtors);
    35d0:	01000034 	movhi	r4,0
    35d4:	211ee104 	addi	r4,r4,31620
    35d8:	000915c0 	call	915c <atexit>
  ALT_LOG_PRINT_BOOT("[alt_main.c] Calling main.\r\n");

#ifdef ALT_NO_EXIT
  main (alt_argc, alt_argv, alt_envp);
#else
  result = main (alt_argc, alt_argv, alt_envp);
    35dc:	d0a7a617 	ldw	r2,-24936(gp)
    35e0:	d0e7a717 	ldw	r3,-24932(gp)
    35e4:	d127a817 	ldw	r4,-24928(gp)
    35e8:	200d883a 	mov	r6,r4
    35ec:	180b883a 	mov	r5,r3
    35f0:	1009883a 	mov	r4,r2
    35f4:	00002940 	call	294 <main>
    35f8:	e0bfff15 	stw	r2,-4(fp)
  close(STDOUT_FILENO);
    35fc:	01000044 	movi	r4,1
    3600:	00030cc0 	call	30cc <close>
  exit (result);
    3604:	e13fff17 	ldw	r4,-4(fp)
    3608:	00091700 	call	9170 <exit>

0000360c <__malloc_lock>:
 * configuration is single threaded, so there is nothing to do here. Note that 
 * this requires that malloc is never called by an interrupt service routine.
 */

void __malloc_lock ( struct _reent *_r )
{
    360c:	defffe04 	addi	sp,sp,-8
    3610:	df000115 	stw	fp,4(sp)
    3614:	df000104 	addi	fp,sp,4
    3618:	e13fff15 	stw	r4,-4(fp)
}
    361c:	0001883a 	nop
    3620:	e037883a 	mov	sp,fp
    3624:	df000017 	ldw	fp,0(sp)
    3628:	dec00104 	addi	sp,sp,4
    362c:	f800283a 	ret

00003630 <__malloc_unlock>:
/*
 *
 */

void __malloc_unlock ( struct _reent *_r )
{
    3630:	defffe04 	addi	sp,sp,-8
    3634:	df000115 	stw	fp,4(sp)
    3638:	df000104 	addi	fp,sp,4
    363c:	e13fff15 	stw	r4,-4(fp)
}
    3640:	0001883a 	nop
    3644:	e037883a 	mov	sp,fp
    3648:	df000017 	ldw	fp,0(sp)
    364c:	dec00104 	addi	sp,sp,4
    3650:	f800283a 	ret

00003654 <alt_get_errno>:
#undef errno

extern int errno;

static ALT_INLINE int* alt_get_errno(void)
{
    3654:	defffe04 	addi	sp,sp,-8
    3658:	dfc00115 	stw	ra,4(sp)
    365c:	df000015 	stw	fp,0(sp)
    3660:	d839883a 	mov	fp,sp
  return ((alt_errno) ? alt_errno() : &errno);
    3664:	d0a00917 	ldw	r2,-32732(gp)
    3668:	10000326 	beq	r2,zero,3678 <alt_get_errno+0x24>
    366c:	d0a00917 	ldw	r2,-32732(gp)
    3670:	103ee83a 	callr	r2
    3674:	00000106 	br	367c <alt_get_errno+0x28>
    3678:	d0a7a504 	addi	r2,gp,-24940
}
    367c:	e037883a 	mov	sp,fp
    3680:	dfc00117 	ldw	ra,4(sp)
    3684:	df000017 	ldw	fp,0(sp)
    3688:	dec00204 	addi	sp,sp,8
    368c:	f800283a 	ret

00003690 <read>:
}

#else /* !ALT_USE_DIRECT_DRIVERS */

int ALT_READ (int file, void *ptr, size_t len)
{
    3690:	defff904 	addi	sp,sp,-28
    3694:	dfc00615 	stw	ra,24(sp)
    3698:	df000515 	stw	fp,20(sp)
    369c:	df000504 	addi	fp,sp,20
    36a0:	e13ffd15 	stw	r4,-12(fp)
    36a4:	e17ffe15 	stw	r5,-8(fp)
    36a8:	e1bfff15 	stw	r6,-4(fp)
   * A common error case is that when the file descriptor was created, the call
   * to open() failed resulting in a negative file descriptor. This is trapped
   * below so that we don't try and process an invalid file descriptor.
   */

  fd = (file < 0) ? NULL : &alt_fd_list[file];
    36ac:	e0bffd17 	ldw	r2,-12(fp)
    36b0:	10000616 	blt	r2,zero,36cc <read+0x3c>
    36b4:	e0bffd17 	ldw	r2,-12(fp)
    36b8:	10c00324 	muli	r3,r2,12
    36bc:	00800074 	movhi	r2,1
    36c0:	10a7f204 	addi	r2,r2,-24632
    36c4:	1885883a 	add	r2,r3,r2
    36c8:	00000106 	br	36d0 <read+0x40>
    36cc:	0005883a 	mov	r2,zero
    36d0:	e0bffb15 	stw	r2,-20(fp)
  
  if (fd)
    36d4:	e0bffb17 	ldw	r2,-20(fp)
    36d8:	10002226 	beq	r2,zero,3764 <read+0xd4>
     * If the file has not been opened with read access, or if the driver does
     * not provide an implementation of read(), generate an error. Otherwise
     * call the drivers read() function to process the request.
     */

    if (((fd->fd_flags & O_ACCMODE) != O_WRONLY) && 
    36dc:	e0bffb17 	ldw	r2,-20(fp)
    36e0:	10800217 	ldw	r2,8(r2)
    36e4:	108000cc 	andi	r2,r2,3
    36e8:	10800060 	cmpeqi	r2,r2,1
    36ec:	1000181e 	bne	r2,zero,3750 <read+0xc0>
        (fd->dev->read))
    36f0:	e0bffb17 	ldw	r2,-20(fp)
    36f4:	10800017 	ldw	r2,0(r2)
    36f8:	10800517 	ldw	r2,20(r2)
     * If the file has not been opened with read access, or if the driver does
     * not provide an implementation of read(), generate an error. Otherwise
     * call the drivers read() function to process the request.
     */

    if (((fd->fd_flags & O_ACCMODE) != O_WRONLY) && 
    36fc:	10001426 	beq	r2,zero,3750 <read+0xc0>
        (fd->dev->read))
      {
        if ((rval = fd->dev->read(fd, ptr, len)) < 0)
    3700:	e0bffb17 	ldw	r2,-20(fp)
    3704:	10800017 	ldw	r2,0(r2)
    3708:	10800517 	ldw	r2,20(r2)
    370c:	e0ffff17 	ldw	r3,-4(fp)
    3710:	180d883a 	mov	r6,r3
    3714:	e17ffe17 	ldw	r5,-8(fp)
    3718:	e13ffb17 	ldw	r4,-20(fp)
    371c:	103ee83a 	callr	r2
    3720:	e0bffc15 	stw	r2,-16(fp)
    3724:	e0bffc17 	ldw	r2,-16(fp)
    3728:	1000070e 	bge	r2,zero,3748 <read+0xb8>
        {
          ALT_ERRNO = -rval;
    372c:	00036540 	call	3654 <alt_get_errno>
    3730:	1007883a 	mov	r3,r2
    3734:	e0bffc17 	ldw	r2,-16(fp)
    3738:	0085c83a 	sub	r2,zero,r2
    373c:	18800015 	stw	r2,0(r3)
          return -1;
    3740:	00bfffc4 	movi	r2,-1
    3744:	00000c06 	br	3778 <read+0xe8>
        }
        return rval;
    3748:	e0bffc17 	ldw	r2,-16(fp)
    374c:	00000a06 	br	3778 <read+0xe8>
      }
      else
      {
        ALT_ERRNO = EACCES;
    3750:	00036540 	call	3654 <alt_get_errno>
    3754:	1007883a 	mov	r3,r2
    3758:	00800344 	movi	r2,13
    375c:	18800015 	stw	r2,0(r3)
    3760:	00000406 	br	3774 <read+0xe4>
      }
    }
  else
  {
    ALT_ERRNO = EBADFD;
    3764:	00036540 	call	3654 <alt_get_errno>
    3768:	1007883a 	mov	r3,r2
    376c:	00801444 	movi	r2,81
    3770:	18800015 	stw	r2,0(r3)
  }
  return -1;
    3774:	00bfffc4 	movi	r2,-1
}
    3778:	e037883a 	mov	sp,fp
    377c:	dfc00117 	ldw	ra,4(sp)
    3780:	df000017 	ldw	fp,0(sp)
    3784:	dec00204 	addi	sp,sp,8
    3788:	f800283a 	ret

0000378c <alt_release_fd>:
 * File descriptors correcponding to standard in, standard out and standard 
 * error cannont be released backed to the pool. They are always reserved.
 */

void alt_release_fd (int fd)
{
    378c:	defffe04 	addi	sp,sp,-8
    3790:	df000115 	stw	fp,4(sp)
    3794:	df000104 	addi	fp,sp,4
    3798:	e13fff15 	stw	r4,-4(fp)
  if (fd > 2)
    379c:	e0bfff17 	ldw	r2,-4(fp)
    37a0:	108000d0 	cmplti	r2,r2,3
    37a4:	10000d1e 	bne	r2,zero,37dc <alt_release_fd+0x50>
  {
    alt_fd_list[fd].fd_flags = 0;
    37a8:	00800074 	movhi	r2,1
    37ac:	10a7f204 	addi	r2,r2,-24632
    37b0:	e0ffff17 	ldw	r3,-4(fp)
    37b4:	18c00324 	muli	r3,r3,12
    37b8:	10c5883a 	add	r2,r2,r3
    37bc:	10800204 	addi	r2,r2,8
    37c0:	10000015 	stw	zero,0(r2)
    alt_fd_list[fd].dev      = 0;
    37c4:	00800074 	movhi	r2,1
    37c8:	10a7f204 	addi	r2,r2,-24632
    37cc:	e0ffff17 	ldw	r3,-4(fp)
    37d0:	18c00324 	muli	r3,r3,12
    37d4:	10c5883a 	add	r2,r2,r3
    37d8:	10000015 	stw	zero,0(r2)
  }
}
    37dc:	0001883a 	nop
    37e0:	e037883a 	mov	sp,fp
    37e4:	df000017 	ldw	fp,0(sp)
    37e8:	dec00104 	addi	sp,sp,4
    37ec:	f800283a 	ret

000037f0 <sbrk>:
#endif
 
caddr_t ALT_SBRK (int incr) __attribute__ ((no_instrument_function ));

caddr_t ALT_SBRK (int incr)
{ 
    37f0:	defff904 	addi	sp,sp,-28
    37f4:	df000615 	stw	fp,24(sp)
    37f8:	df000604 	addi	fp,sp,24
    37fc:	e13fff15 	stw	r4,-4(fp)
static ALT_INLINE alt_irq_context ALT_ALWAYS_INLINE 
       alt_irq_disable_all (void)
{
  alt_irq_context context;

  NIOS2_READ_STATUS (context);
    3800:	0005303a 	rdctl	r2,status
    3804:	e0bffe15 	stw	r2,-8(fp)

  NIOS2_WRITE_STATUS (context & ~NIOS2_STATUS_PIE_MSK);
    3808:	e0fffe17 	ldw	r3,-8(fp)
    380c:	00bfff84 	movi	r2,-2
    3810:	1884703a 	and	r2,r3,r2
    3814:	1001703a 	wrctl	status,r2
  
  return context;
    3818:	e0bffe17 	ldw	r2,-8(fp)
  alt_irq_context context;
  char *prev_heap_end; 

  context = alt_irq_disable_all();
    381c:	e0bffb15 	stw	r2,-20(fp)

  /* Always return data aligned on a word boundary */
  heap_end = (char *)(((unsigned int)heap_end + 3) & ~3);
    3820:	d0a00a17 	ldw	r2,-32728(gp)
    3824:	10c000c4 	addi	r3,r2,3
    3828:	00bfff04 	movi	r2,-4
    382c:	1884703a 	and	r2,r3,r2
    3830:	d0a00a15 	stw	r2,-32728(gp)
  if (((heap_end + incr) - __alt_heap_start) > ALT_MAX_HEAP_BYTES) {
    alt_irq_enable_all(context);
    return (caddr_t)-1;
  }
#else
  if ((heap_end + incr) > __alt_heap_limit) {
    3834:	d0e00a17 	ldw	r3,-32728(gp)
    3838:	e0bfff17 	ldw	r2,-4(fp)
    383c:	1887883a 	add	r3,r3,r2
    3840:	00820034 	movhi	r2,2048
    3844:	10800004 	addi	r2,r2,0
    3848:	10c0062e 	bgeu	r2,r3,3864 <sbrk+0x74>
    384c:	e0bffb17 	ldw	r2,-20(fp)
    3850:	e0bffa15 	stw	r2,-24(fp)
  status &= ~NIOS2_STATUS_PIE_MSK;
  status |= (context & NIOS2_STATUS_PIE_MSK);
  
  NIOS2_WRITE_STATUS (status);
#else
  NIOS2_WRITE_STATUS (context);
    3854:	e0bffa17 	ldw	r2,-24(fp)
    3858:	1001703a 	wrctl	status,r2
    alt_irq_enable_all(context);
    return (caddr_t)-1;
    385c:	00bfffc4 	movi	r2,-1
    3860:	00000b06 	br	3890 <sbrk+0xa0>
  }
#endif

  prev_heap_end = heap_end; 
    3864:	d0a00a17 	ldw	r2,-32728(gp)
    3868:	e0bffd15 	stw	r2,-12(fp)
  heap_end += incr; 
    386c:	d0e00a17 	ldw	r3,-32728(gp)
    3870:	e0bfff17 	ldw	r2,-4(fp)
    3874:	1885883a 	add	r2,r3,r2
    3878:	d0a00a15 	stw	r2,-32728(gp)
    387c:	e0bffb17 	ldw	r2,-20(fp)
    3880:	e0bffc15 	stw	r2,-16(fp)
    3884:	e0bffc17 	ldw	r2,-16(fp)
    3888:	1001703a 	wrctl	status,r2

#endif

  alt_irq_enable_all(context);

  return (caddr_t) prev_heap_end; 
    388c:	e0bffd17 	ldw	r2,-12(fp)
} 
    3890:	e037883a 	mov	sp,fp
    3894:	df000017 	ldw	fp,0(sp)
    3898:	dec00104 	addi	sp,sp,4
    389c:	f800283a 	ret

000038a0 <alt_get_errno>:
#undef errno

extern int errno;

static ALT_INLINE int* alt_get_errno(void)
{
    38a0:	defffe04 	addi	sp,sp,-8
    38a4:	dfc00115 	stw	ra,4(sp)
    38a8:	df000015 	stw	fp,0(sp)
    38ac:	d839883a 	mov	fp,sp
  return ((alt_errno) ? alt_errno() : &errno);
    38b0:	d0a00917 	ldw	r2,-32732(gp)
    38b4:	10000326 	beq	r2,zero,38c4 <alt_get_errno+0x24>
    38b8:	d0a00917 	ldw	r2,-32732(gp)
    38bc:	103ee83a 	callr	r2
    38c0:	00000106 	br	38c8 <alt_get_errno+0x28>
    38c4:	d0a7a504 	addi	r2,gp,-24940
}
    38c8:	e037883a 	mov	sp,fp
    38cc:	dfc00117 	ldw	ra,4(sp)
    38d0:	df000017 	ldw	fp,0(sp)
    38d4:	dec00204 	addi	sp,sp,8
    38d8:	f800283a 	ret

000038dc <write>:
}

#else /* !ALT_USE_DIRECT_DRIVERS */

int ALT_WRITE (int file, const void *ptr, size_t len)
{
    38dc:	defff904 	addi	sp,sp,-28
    38e0:	dfc00615 	stw	ra,24(sp)
    38e4:	df000515 	stw	fp,20(sp)
    38e8:	df000504 	addi	fp,sp,20
    38ec:	e13ffd15 	stw	r4,-12(fp)
    38f0:	e17ffe15 	stw	r5,-8(fp)
    38f4:	e1bfff15 	stw	r6,-4(fp)
   * A common error case is that when the file descriptor was created, the call
   * to open() failed resulting in a negative file descriptor. This is trapped
   * below so that we don't try and process an invalid file descriptor.
   */

  fd = (file < 0) ? NULL : &alt_fd_list[file];
    38f8:	e0bffd17 	ldw	r2,-12(fp)
    38fc:	10000616 	blt	r2,zero,3918 <write+0x3c>
    3900:	e0bffd17 	ldw	r2,-12(fp)
    3904:	10c00324 	muli	r3,r2,12
    3908:	00800074 	movhi	r2,1
    390c:	10a7f204 	addi	r2,r2,-24632
    3910:	1885883a 	add	r2,r3,r2
    3914:	00000106 	br	391c <write+0x40>
    3918:	0005883a 	mov	r2,zero
    391c:	e0bffb15 	stw	r2,-20(fp)
  
  if (fd)
    3920:	e0bffb17 	ldw	r2,-20(fp)
    3924:	10002126 	beq	r2,zero,39ac <write+0xd0>
     * If the file has not been opened with write access, or if the driver does
     * not provide an implementation of write(), generate an error. Otherwise
     * call the drivers write() function to process the request.
     */

    if (((fd->fd_flags & O_ACCMODE) != O_RDONLY) && fd->dev->write)
    3928:	e0bffb17 	ldw	r2,-20(fp)
    392c:	10800217 	ldw	r2,8(r2)
    3930:	108000cc 	andi	r2,r2,3
    3934:	10001826 	beq	r2,zero,3998 <write+0xbc>
    3938:	e0bffb17 	ldw	r2,-20(fp)
    393c:	10800017 	ldw	r2,0(r2)
    3940:	10800617 	ldw	r2,24(r2)
    3944:	10001426 	beq	r2,zero,3998 <write+0xbc>
    {
      
      /* ALT_LOG - see altera_hal/HAL/inc/sys/alt_log_printf.h */
      ALT_LOG_WRITE_FUNCTION(ptr,len);

      if ((rval = fd->dev->write(fd, ptr, len)) < 0)
    3948:	e0bffb17 	ldw	r2,-20(fp)
    394c:	10800017 	ldw	r2,0(r2)
    3950:	10800617 	ldw	r2,24(r2)
    3954:	e0ffff17 	ldw	r3,-4(fp)
    3958:	180d883a 	mov	r6,r3
    395c:	e17ffe17 	ldw	r5,-8(fp)
    3960:	e13ffb17 	ldw	r4,-20(fp)
    3964:	103ee83a 	callr	r2
    3968:	e0bffc15 	stw	r2,-16(fp)
    396c:	e0bffc17 	ldw	r2,-16(fp)
    3970:	1000070e 	bge	r2,zero,3990 <write+0xb4>
      {
        ALT_ERRNO = -rval;
    3974:	00038a00 	call	38a0 <alt_get_errno>
    3978:	1007883a 	mov	r3,r2
    397c:	e0bffc17 	ldw	r2,-16(fp)
    3980:	0085c83a 	sub	r2,zero,r2
    3984:	18800015 	stw	r2,0(r3)
        return -1;
    3988:	00bfffc4 	movi	r2,-1
    398c:	00000c06 	br	39c0 <write+0xe4>
      }
      return rval;
    3990:	e0bffc17 	ldw	r2,-16(fp)
    3994:	00000a06 	br	39c0 <write+0xe4>
    }
    else
    {
      ALT_ERRNO = EACCES;
    3998:	00038a00 	call	38a0 <alt_get_errno>
    399c:	1007883a 	mov	r3,r2
    39a0:	00800344 	movi	r2,13
    39a4:	18800015 	stw	r2,0(r3)
    39a8:	00000406 	br	39bc <write+0xe0>
    }
  }
  else  
  {
    ALT_ERRNO = EBADFD;
    39ac:	00038a00 	call	38a0 <alt_get_errno>
    39b0:	1007883a 	mov	r3,r2
    39b4:	00801444 	movi	r2,81
    39b8:	18800015 	stw	r2,0(r3)
  }
  return -1;
    39bc:	00bfffc4 	movi	r2,-1
}
    39c0:	e037883a 	mov	sp,fp
    39c4:	dfc00117 	ldw	ra,4(sp)
    39c8:	df000017 	ldw	fp,0(sp)
    39cc:	dec00204 	addi	sp,sp,8
    39d0:	f800283a 	ret

000039d4 <alt_dev_reg>:
 */

extern int alt_fs_reg  (alt_dev* dev); 

static ALT_INLINE int alt_dev_reg (alt_dev* dev)
{
    39d4:	defffd04 	addi	sp,sp,-12
    39d8:	dfc00215 	stw	ra,8(sp)
    39dc:	df000115 	stw	fp,4(sp)
    39e0:	df000104 	addi	fp,sp,4
    39e4:	e13fff15 	stw	r4,-4(fp)
  extern alt_llist alt_dev_list;

  return alt_dev_llist_insert ((alt_dev_llist*) dev, &alt_dev_list);
    39e8:	d1600604 	addi	r5,gp,-32744
    39ec:	e13fff17 	ldw	r4,-4(fp)
    39f0:	0007a800 	call	7a80 <alt_dev_llist_insert>
}
    39f4:	e037883a 	mov	sp,fp
    39f8:	dfc00117 	ldw	ra,4(sp)
    39fc:	df000017 	ldw	fp,0(sp)
    3a00:	dec00204 	addi	sp,sp,8
    3a04:	f800283a 	ret

00003a08 <alt_irq_init>:
 * The "base" parameter is ignored and only
 * present for backwards-compatibility.
 */

void alt_irq_init ( const void* base )
{
    3a08:	defffd04 	addi	sp,sp,-12
    3a0c:	dfc00215 	stw	ra,8(sp)
    3a10:	df000115 	stw	fp,4(sp)
    3a14:	df000104 	addi	fp,sp,4
    3a18:	e13fff15 	stw	r4,-4(fp)
    ALTERA_NIOS2_GEN2_IRQ_INIT ( CPU, cpu);
    3a1c:	000841c0 	call	841c <altera_nios2_gen2_irq_init>
 * alt_irq_cpu_enable_interrupts() enables the CPU to start taking interrupts.
 */
static ALT_INLINE void ALT_ALWAYS_INLINE 
       alt_irq_cpu_enable_interrupts (void)
{
    NIOS2_WRITE_STATUS(NIOS2_STATUS_PIE_MSK
    3a20:	00800044 	movi	r2,1
    3a24:	1001703a 	wrctl	status,r2
    alt_irq_cpu_enable_interrupts();
}
    3a28:	0001883a 	nop
    3a2c:	e037883a 	mov	sp,fp
    3a30:	dfc00117 	ldw	ra,4(sp)
    3a34:	df000017 	ldw	fp,0(sp)
    3a38:	dec00204 	addi	sp,sp,8
    3a3c:	f800283a 	ret

00003a40 <alt_sys_init>:
 * Initialize the non-interrupt controller devices.
 * Called after alt_irq_init().
 */

void alt_sys_init( void )
{
    3a40:	defffd04 	addi	sp,sp,-12
    3a44:	dfc00215 	stw	ra,8(sp)
    3a48:	df000115 	stw	fp,4(sp)
    3a4c:	df000104 	addi	fp,sp,4
    ALTERA_AVALON_TIMER_INIT ( TIMER, timer);
    3a50:	01c0fa04 	movi	r7,1000
    3a54:	000d883a 	mov	r6,zero
    3a58:	000b883a 	mov	r5,zero
    3a5c:	01040034 	movhi	r4,4096
    3a60:	21040804 	addi	r4,r4,4128
    3a64:	00065d00 	call	65d0 <alt_avalon_timer_sc_init>
    ALTERA_AVALON_CFI_FLASH_INIT ( FLASH_CONTROLLER, flash_controller);
    3a68:	01000074 	movhi	r4,1
    3a6c:	21285204 	addi	r4,r4,-24248
    3a70:	0003e480 	call	3e48 <alt_flash_cfi_init>
    ALTERA_AVALON_JTAG_UART_INIT ( JTAG_UART, jtag_uart);
    3a74:	01800204 	movi	r6,8
    3a78:	000b883a 	mov	r5,zero
    3a7c:	01000074 	movhi	r4,1
    3a80:	21289304 	addi	r4,r4,-23988
    3a84:	0005c580 	call	5c58 <altera_avalon_jtag_uart_init>
    3a88:	01000074 	movhi	r4,1
    3a8c:	21288904 	addi	r4,r4,-24028
    3a90:	00039d40 	call	39d4 <alt_dev_reg>
    ALTERA_AVALON_PERFORMANCE_COUNTER_INIT ( PERFORMANCE_COUNTER, performance_counter);
    3a94:	00c00044 	movi	r3,1
    3a98:	00840034 	movhi	r2,4096
    3a9c:	10842004 	addi	r2,r2,4224
    3aa0:	10c00035 	stwio	r3,0(r2)
    ALTERA_AVALON_SYSID_QSYS_INIT ( SYSID, sysid);
    3aa4:	0001883a 	nop
    ALTERA_UP_AVALON_AUDIO_AND_VIDEO_CONFIG_INIT ( AUDIO_AND_VIDEO_CONFIG, audio_and_video_config);
    3aa8:	01000074 	movhi	r4,1
    3aac:	212ca104 	addi	r4,r4,-19836
    3ab0:	00039d40 	call	39d4 <alt_dev_reg>
    ALTERA_UP_AVALON_AUDIO_INIT ( AUDIO, audio);
    3ab4:	01000074 	movhi	r4,1
    3ab8:	212cad04 	addi	r4,r4,-19788
    3abc:	00039d40 	call	39d4 <alt_dev_reg>
    ALTERA_UP_AVALON_CHARACTER_LCD_INIT ( CHAR_LCD, char_lcd);
    3ac0:	01000074 	movhi	r4,1
    3ac4:	212cb904 	addi	r4,r4,-19740
    3ac8:	00066f80 	call	66f8 <alt_up_character_lcd_init>
    3acc:	01000074 	movhi	r4,1
    3ad0:	212cb904 	addi	r4,r4,-19740
    3ad4:	00039d40 	call	39d4 <alt_dev_reg>
    ALTERA_UP_AVALON_PARALLEL_PORT_INIT ( GREEN_LED, Green_LED);
    3ad8:	01000074 	movhi	r4,1
    3adc:	212cc404 	addi	r4,r4,-19696
    3ae0:	00039d40 	call	39d4 <alt_dev_reg>
    ALTERA_UP_AVALON_PARALLEL_PORT_INIT ( HEX3_HEX0, HEX3_HEX0);
    3ae4:	01000074 	movhi	r4,1
    3ae8:	212ccf04 	addi	r4,r4,-19652
    3aec:	00039d40 	call	39d4 <alt_dev_reg>
    ALTERA_UP_AVALON_PARALLEL_PORT_INIT ( HEX7_HEX4, HEX7_HEX4);
    3af0:	01000074 	movhi	r4,1
    3af4:	212cda04 	addi	r4,r4,-19608
    3af8:	00039d40 	call	39d4 <alt_dev_reg>
    ALTERA_UP_AVALON_PARALLEL_PORT_INIT ( PUSHBUTTONS, pushbuttons);
    3afc:	01000074 	movhi	r4,1
    3b00:	212ce504 	addi	r4,r4,-19564
    3b04:	00039d40 	call	39d4 <alt_dev_reg>
    ALTERA_UP_AVALON_PARALLEL_PORT_INIT ( RED_LEDS, red_LEDs);
    3b08:	01000074 	movhi	r4,1
    3b0c:	212cf004 	addi	r4,r4,-19520
    3b10:	00039d40 	call	39d4 <alt_dev_reg>
    ALTERA_UP_AVALON_PARALLEL_PORT_INIT ( SWITCHES, switches);
    3b14:	01000074 	movhi	r4,1
    3b18:	212cfb04 	addi	r4,r4,-19476
    3b1c:	00039d40 	call	39d4 <alt_dev_reg>
    ALTERA_UP_AVALON_PS2_INIT ( PS2_KEY, ps2_key);
    3b20:	01000074 	movhi	r4,1
    3b24:	212d0604 	addi	r4,r4,-19432
    3b28:	0006c600 	call	6c60 <alt_up_ps2_init>
    3b2c:	01000074 	movhi	r4,1
    3b30:	212d0604 	addi	r4,r4,-19432
    3b34:	00039d40 	call	39d4 <alt_dev_reg>
    ALTERA_UP_AVALON_PS2_INIT ( PS2_MOUSE, ps2_mouse);
    3b38:	01000074 	movhi	r4,1
    3b3c:	212d1404 	addi	r4,r4,-19376
    3b40:	0006c600 	call	6c60 <alt_up_ps2_init>
    3b44:	01000074 	movhi	r4,1
    3b48:	212d1404 	addi	r4,r4,-19376
    3b4c:	00039d40 	call	39d4 <alt_dev_reg>
    ALTERA_UP_AVALON_RS232_INIT ( SERIAL_PORT, serial_port);
    3b50:	01000074 	movhi	r4,1
    3b54:	212d2204 	addi	r4,r4,-19320
    3b58:	00039d40 	call	39d4 <alt_dev_reg>
    ALTERA_UP_AVALON_VIDEO_CHARACTER_BUFFER_WITH_DMA_INIT ( MTL_CHAR_BUFFER, mtl_char_buffer);
    3b5c:	00800074 	movhi	r2,1
    3b60:	10ad2d04 	addi	r2,r2,-19276
    3b64:	10800a17 	ldw	r2,40(r2)
    3b68:	10800104 	addi	r2,r2,4
    3b6c:	10800017 	ldw	r2,0(r2)
    3b70:	10ffffcc 	andi	r3,r2,65535
    3b74:	00800074 	movhi	r2,1
    3b78:	10ad2d04 	addi	r2,r2,-19276
    3b7c:	10c00c15 	stw	r3,48(r2)
    3b80:	00800074 	movhi	r2,1
    3b84:	10ad2d04 	addi	r2,r2,-19276
    3b88:	10800a17 	ldw	r2,40(r2)
    3b8c:	10800104 	addi	r2,r2,4
    3b90:	10800017 	ldw	r2,0(r2)
    3b94:	1006d43a 	srli	r3,r2,16
    3b98:	00800074 	movhi	r2,1
    3b9c:	10ad2d04 	addi	r2,r2,-19276
    3ba0:	10c00d15 	stw	r3,52(r2)
    3ba4:	00800074 	movhi	r2,1
    3ba8:	10ad2d04 	addi	r2,r2,-19276
    3bac:	10800c17 	ldw	r2,48(r2)
    3bb0:	10801068 	cmpgeui	r2,r2,65
    3bb4:	1000081e 	bne	r2,zero,3bd8 <alt_sys_init+0x198>
    3bb8:	00800074 	movhi	r2,1
    3bbc:	10ad2d04 	addi	r2,r2,-19276
    3bc0:	00c00fc4 	movi	r3,63
    3bc4:	10c00f15 	stw	r3,60(r2)
    3bc8:	00800074 	movhi	r2,1
    3bcc:	10ad2d04 	addi	r2,r2,-19276
    3bd0:	00c00184 	movi	r3,6
    3bd4:	10c01015 	stw	r3,64(r2)
    3bd8:	00800074 	movhi	r2,1
    3bdc:	10ad2d04 	addi	r2,r2,-19276
    3be0:	10800d17 	ldw	r2,52(r2)
    3be4:	10800868 	cmpgeui	r2,r2,33
    3be8:	1000041e 	bne	r2,zero,3bfc <alt_sys_init+0x1bc>
    3bec:	00800074 	movhi	r2,1
    3bf0:	10ad2d04 	addi	r2,r2,-19276
    3bf4:	00c007c4 	movi	r3,31
    3bf8:	10c01115 	stw	r3,68(r2)
    3bfc:	01000074 	movhi	r4,1
    3c00:	212d2d04 	addi	r4,r4,-19276
    3c04:	00075780 	call	7578 <alt_up_char_buffer_init>
    3c08:	01000074 	movhi	r4,1
    3c0c:	212d2d04 	addi	r4,r4,-19276
    3c10:	00039d40 	call	39d4 <alt_dev_reg>
    ALTERA_UP_AVALON_VIDEO_PIXEL_BUFFER_DMA_INIT ( PIXEL_BUFFER_DMA_GREEN, pixel_buffer_dma_green);
    3c14:	00800074 	movhi	r2,1
    3c18:	10ad3f04 	addi	r2,r2,-19204
    3c1c:	10800a17 	ldw	r2,40(r2)
    3c20:	10800017 	ldw	r2,0(r2)
    3c24:	1007883a 	mov	r3,r2
    3c28:	00800074 	movhi	r2,1
    3c2c:	10ad3f04 	addi	r2,r2,-19204
    3c30:	10c00b15 	stw	r3,44(r2)
    3c34:	00800074 	movhi	r2,1
    3c38:	10ad3f04 	addi	r2,r2,-19204
    3c3c:	10800a17 	ldw	r2,40(r2)
    3c40:	10800104 	addi	r2,r2,4
    3c44:	10800017 	ldw	r2,0(r2)
    3c48:	1007883a 	mov	r3,r2
    3c4c:	00800074 	movhi	r2,1
    3c50:	10ad3f04 	addi	r2,r2,-19204
    3c54:	10c00c15 	stw	r3,48(r2)
    3c58:	00800074 	movhi	r2,1
    3c5c:	10ad3f04 	addi	r2,r2,-19204
    3c60:	10800a17 	ldw	r2,40(r2)
    3c64:	10800204 	addi	r2,r2,8
    3c68:	10800017 	ldw	r2,0(r2)
    3c6c:	10ffffcc 	andi	r3,r2,65535
    3c70:	00800074 	movhi	r2,1
    3c74:	10ad3f04 	addi	r2,r2,-19204
    3c78:	10c00f15 	stw	r3,60(r2)
    3c7c:	00800074 	movhi	r2,1
    3c80:	10ad3f04 	addi	r2,r2,-19204
    3c84:	10800a17 	ldw	r2,40(r2)
    3c88:	10800204 	addi	r2,r2,8
    3c8c:	10800017 	ldw	r2,0(r2)
    3c90:	1006d43a 	srli	r3,r2,16
    3c94:	00800074 	movhi	r2,1
    3c98:	10ad3f04 	addi	r2,r2,-19204
    3c9c:	10c01015 	stw	r3,64(r2)
    3ca0:	00800074 	movhi	r2,1
    3ca4:	10ad3f04 	addi	r2,r2,-19204
    3ca8:	10800a17 	ldw	r2,40(r2)
    3cac:	10800304 	addi	r2,r2,12
    3cb0:	10800017 	ldw	r2,0(r2)
    3cb4:	1005d07a 	srai	r2,r2,1
    3cb8:	10c0004c 	andi	r3,r2,1
    3cbc:	00800074 	movhi	r2,1
    3cc0:	10ad3f04 	addi	r2,r2,-19204
    3cc4:	10c00d15 	stw	r3,52(r2)
    3cc8:	00800074 	movhi	r2,1
    3ccc:	10ad3f04 	addi	r2,r2,-19204
    3cd0:	10800a17 	ldw	r2,40(r2)
    3cd4:	10800304 	addi	r2,r2,12
    3cd8:	10800017 	ldw	r2,0(r2)
    3cdc:	1005d13a 	srai	r2,r2,4
    3ce0:	10c003cc 	andi	r3,r2,15
    3ce4:	00800074 	movhi	r2,1
    3ce8:	10ad3f04 	addi	r2,r2,-19204
    3cec:	10c00e15 	stw	r3,56(r2)
    3cf0:	00800074 	movhi	r2,1
    3cf4:	10ad3f04 	addi	r2,r2,-19204
    3cf8:	10800a17 	ldw	r2,40(r2)
    3cfc:	10800304 	addi	r2,r2,12
    3d00:	10800017 	ldw	r2,0(r2)
    3d04:	1005d43a 	srai	r2,r2,16
    3d08:	e0bfff05 	stb	r2,-4(fp)
    3d0c:	00800074 	movhi	r2,1
    3d10:	10ad3f04 	addi	r2,r2,-19204
    3d14:	10800a17 	ldw	r2,40(r2)
    3d18:	10800304 	addi	r2,r2,12
    3d1c:	10800017 	ldw	r2,0(r2)
    3d20:	1004d63a 	srli	r2,r2,24
    3d24:	e0bfff45 	stb	r2,-3(fp)
    3d28:	00800074 	movhi	r2,1
    3d2c:	10ad3f04 	addi	r2,r2,-19204
    3d30:	10800e17 	ldw	r2,56(r2)
    3d34:	10800058 	cmpnei	r2,r2,1
    3d38:	1000041e 	bne	r2,zero,3d4c <alt_sys_init+0x30c>
    3d3c:	00800074 	movhi	r2,1
    3d40:	10ad3f04 	addi	r2,r2,-19204
    3d44:	10001115 	stw	zero,68(r2)
    3d48:	00000e06 	br	3d84 <alt_sys_init+0x344>
    3d4c:	00800074 	movhi	r2,1
    3d50:	10ad3f04 	addi	r2,r2,-19204
    3d54:	10800e17 	ldw	r2,56(r2)
    3d58:	10800098 	cmpnei	r2,r2,2
    3d5c:	1000051e 	bne	r2,zero,3d74 <alt_sys_init+0x334>
    3d60:	00800074 	movhi	r2,1
    3d64:	10ad3f04 	addi	r2,r2,-19204
    3d68:	00c00044 	movi	r3,1
    3d6c:	10c01115 	stw	r3,68(r2)
    3d70:	00000406 	br	3d84 <alt_sys_init+0x344>
    3d74:	00800074 	movhi	r2,1
    3d78:	10ad3f04 	addi	r2,r2,-19204
    3d7c:	00c00084 	movi	r3,2
    3d80:	10c01115 	stw	r3,68(r2)
    3d84:	e0bfff03 	ldbu	r2,-4(fp)
    3d88:	00c00804 	movi	r3,32
    3d8c:	1885c83a 	sub	r2,r3,r2
    3d90:	00ffffc4 	movi	r3,-1
    3d94:	1886d83a 	srl	r3,r3,r2
    3d98:	00800074 	movhi	r2,1
    3d9c:	10ad3f04 	addi	r2,r2,-19204
    3da0:	10c01215 	stw	r3,72(r2)
    3da4:	e0ffff03 	ldbu	r3,-4(fp)
    3da8:	00800074 	movhi	r2,1
    3dac:	10ad3f04 	addi	r2,r2,-19204
    3db0:	10801117 	ldw	r2,68(r2)
    3db4:	1887883a 	add	r3,r3,r2
    3db8:	00800074 	movhi	r2,1
    3dbc:	10ad3f04 	addi	r2,r2,-19204
    3dc0:	10c01315 	stw	r3,76(r2)
    3dc4:	e0bfff43 	ldbu	r2,-3(fp)
    3dc8:	00c00804 	movi	r3,32
    3dcc:	1885c83a 	sub	r2,r3,r2
    3dd0:	00ffffc4 	movi	r3,-1
    3dd4:	1886d83a 	srl	r3,r3,r2
    3dd8:	00800074 	movhi	r2,1
    3ddc:	10ad3f04 	addi	r2,r2,-19204
    3de0:	10c01415 	stw	r3,80(r2)
    3de4:	01000074 	movhi	r4,1
    3de8:	212d3f04 	addi	r4,r4,-19204
    3dec:	00039d40 	call	39d4 <alt_dev_reg>
    ALTERA_UP_SD_CARD_AVALON_INTERFACE_INIT ( SD_CARD, sd_card);
    3df0:	01000074 	movhi	r4,1
    3df4:	212d5404 	addi	r4,r4,-19120
    3df8:	00039d40 	call	39d4 <alt_dev_reg>
}
    3dfc:	0001883a 	nop
    3e00:	e037883a 	mov	sp,fp
    3e04:	dfc00117 	ldw	ra,4(sp)
    3e08:	df000017 	ldw	fp,0(sp)
    3e0c:	dec00204 	addi	sp,sp,8
    3e10:	f800283a 	ret

00003e14 <alt_flash_device_register>:

typedef struct alt_flash_dev alt_flash_dev; 
typedef alt_flash_dev alt_flash_fd;

static ALT_INLINE int alt_flash_device_register( alt_flash_fd* fd)
{
    3e14:	defffd04 	addi	sp,sp,-12
    3e18:	dfc00215 	stw	ra,8(sp)
    3e1c:	df000115 	stw	fp,4(sp)
    3e20:	df000104 	addi	fp,sp,4
    3e24:	e13fff15 	stw	r4,-4(fp)
  extern alt_llist alt_flash_dev_list;

  return alt_dev_llist_insert ((alt_dev_llist*) fd, &alt_flash_dev_list);
    3e28:	d1600b04 	addi	r5,gp,-32724
    3e2c:	e13fff17 	ldw	r4,-4(fp)
    3e30:	0007a800 	call	7a80 <alt_dev_llist_insert>
}
    3e34:	e037883a 	mov	sp,fp
    3e38:	dfc00117 	ldw	ra,4(sp)
    3e3c:	df000017 	ldw	fp,0(sp)
    3e40:	dec00204 	addi	sp,sp,8
    3e44:	f800283a 	ret

00003e48 <alt_flash_cfi_init>:
 * Read the CFI table and fill out the alt_flash_cfi_dev structure with all the 
 * information we need to program the flash.
 * 
 */
int alt_flash_cfi_init( alt_flash_cfi_dev* flash  )
{
    3e48:	defffc04 	addi	sp,sp,-16
    3e4c:	dfc00315 	stw	ra,12(sp)
    3e50:	df000215 	stw	fp,8(sp)
    3e54:	df000204 	addi	fp,sp,8
    3e58:	e13fff15 	stw	r4,-4(fp)
  int ret_code = 0;
    3e5c:	e03ffe15 	stw	zero,-8(fp)
 
  ret_code = alt_read_cfi_width( flash );
    3e60:	e13fff17 	ldw	r4,-4(fp)
    3e64:	00052ac0 	call	52ac <alt_read_cfi_width>
    3e68:	e0bffe15 	stw	r2,-8(fp)
  
  if (!ret_code)
    3e6c:	e0bffe17 	ldw	r2,-8(fp)
    3e70:	1000031e 	bne	r2,zero,3e80 <alt_flash_cfi_init+0x38>
    ret_code = alt_set_flash_width_func( flash );
    3e74:	e13fff17 	ldw	r4,-4(fp)
    3e78:	0004a040 	call	4a04 <alt_set_flash_width_func>
    3e7c:	e0bffe15 	stw	r2,-8(fp)
  
  if (!ret_code)
    3e80:	e0bffe17 	ldw	r2,-8(fp)
    3e84:	1000031e 	bne	r2,zero,3e94 <alt_flash_cfi_init+0x4c>
    ret_code = alt_read_cfi_table( flash );
    3e88:	e13fff17 	ldw	r4,-4(fp)
    3e8c:	0004ce40 	call	4ce4 <alt_read_cfi_table>
    3e90:	e0bffe15 	stw	r2,-8(fp)

  if (!ret_code) 
    3e94:	e0bffe17 	ldw	r2,-8(fp)
    3e98:	1000031e 	bne	r2,zero,3ea8 <alt_flash_cfi_init+0x60>
    ret_code = alt_set_flash_algorithm_func( flash);
    3e9c:	e13fff17 	ldw	r4,-4(fp)
    3ea0:	0004bc80 	call	4bc8 <alt_set_flash_algorithm_func>
    3ea4:	e0bffe15 	stw	r2,-8(fp)

  /*
  *  Register this device as a valid flash device type
  */ 
  if (!ret_code)
    3ea8:	e0bffe17 	ldw	r2,-8(fp)
    3eac:	1000041e 	bne	r2,zero,3ec0 <alt_flash_cfi_init+0x78>
    ret_code = alt_flash_device_register(&(flash->dev));
    3eb0:	e0bfff17 	ldw	r2,-4(fp)
    3eb4:	1009883a 	mov	r4,r2
    3eb8:	0003e140 	call	3e14 <alt_flash_device_register>
    3ebc:	e0bffe15 	stw	r2,-8(fp)
 
  return ret_code;
    3ec0:	e0bffe17 	ldw	r2,-8(fp)
}
    3ec4:	e037883a 	mov	sp,fp
    3ec8:	dfc00117 	ldw	ra,4(sp)
    3ecc:	df000017 	ldw	fp,0(sp)
    3ed0:	dec00204 	addi	sp,sp,8
    3ed4:	f800283a 	ret

00003ed8 <alt_flash_cfi_write>:
 * large buffer to tie up in our programming library, when not all users will 
 * want that functionality.
 */
 int alt_flash_cfi_write( alt_flash_dev* flash_info, int offset, 
                          const void* src_addr, int length )
 {
    3ed8:	defff104 	addi	sp,sp,-60
    3edc:	dfc00e15 	stw	ra,56(sp)
    3ee0:	df000d15 	stw	fp,52(sp)
    3ee4:	df000d04 	addi	fp,sp,52
    3ee8:	e13ffc15 	stw	r4,-16(fp)
    3eec:	e17ffd15 	stw	r5,-12(fp)
    3ef0:	e1bffe15 	stw	r6,-8(fp)
    3ef4:	e1ffff15 	stw	r7,-4(fp)
  int         ret_code = 0;
    3ef8:	e03ff415 	stw	zero,-48(fp)
  int         i,j;
  int         data_to_write;
  int         full_length = length;
    3efc:	e0bfff17 	ldw	r2,-4(fp)
    3f00:	e0bff815 	stw	r2,-32(fp)
  int         current_offset;
  int         start_offset = offset;
    3f04:	e0bffd17 	ldw	r2,-12(fp)
    3f08:	e0bff915 	stw	r2,-28(fp)
  alt_flash_cfi_dev* flash = (alt_flash_cfi_dev*)flash_info;
    3f0c:	e0bffc17 	ldw	r2,-16(fp)
    3f10:	e0bffa15 	stw	r2,-24(fp)

  /*
   * First and foremost which sectors are affected?
   */   
  for(i=0;i<flash->dev.number_of_regions;i++)
    3f14:	e03ff515 	stw	zero,-44(fp)
    3f18:	00008706 	br	4138 <alt_flash_cfi_write+0x260>
  {
    /* Is it in this erase block region?*/
    if((offset >= flash->dev.region_info[i].offset) &&
    3f1c:	e0fffa17 	ldw	r3,-24(fp)
    3f20:	e0bff517 	ldw	r2,-44(fp)
    3f24:	1004913a 	slli	r2,r2,4
    3f28:	1885883a 	add	r2,r3,r2
    3f2c:	10800d04 	addi	r2,r2,52
    3f30:	10800017 	ldw	r2,0(r2)
    3f34:	e0fffd17 	ldw	r3,-12(fp)
    3f38:	18807c16 	blt	r3,r2,412c <alt_flash_cfi_write+0x254>
      (offset < (flash->dev.region_info[i].offset + 
    3f3c:	e0fffa17 	ldw	r3,-24(fp)
    3f40:	e0bff517 	ldw	r2,-44(fp)
    3f44:	1004913a 	slli	r2,r2,4
    3f48:	1885883a 	add	r2,r3,r2
    3f4c:	10800d04 	addi	r2,r2,52
    3f50:	10c00017 	ldw	r3,0(r2)
      flash->dev.region_info[i].region_size)))
    3f54:	e13ffa17 	ldw	r4,-24(fp)
    3f58:	e0bff517 	ldw	r2,-44(fp)
    3f5c:	1004913a 	slli	r2,r2,4
    3f60:	2085883a 	add	r2,r4,r2
    3f64:	10800e04 	addi	r2,r2,56
    3f68:	10800017 	ldw	r2,0(r2)
   */   
  for(i=0;i<flash->dev.number_of_regions;i++)
  {
    /* Is it in this erase block region?*/
    if((offset >= flash->dev.region_info[i].offset) &&
      (offset < (flash->dev.region_info[i].offset + 
    3f6c:	1885883a 	add	r2,r3,r2
   * First and foremost which sectors are affected?
   */   
  for(i=0;i<flash->dev.number_of_regions;i++)
  {
    /* Is it in this erase block region?*/
    if((offset >= flash->dev.region_info[i].offset) &&
    3f70:	e0fffd17 	ldw	r3,-12(fp)
    3f74:	18806d0e 	bge	r3,r2,412c <alt_flash_cfi_write+0x254>
      (offset < (flash->dev.region_info[i].offset + 
      flash->dev.region_info[i].region_size)))
    {
      current_offset = flash->dev.region_info[i].offset;
    3f78:	e0fffa17 	ldw	r3,-24(fp)
    3f7c:	e0bff517 	ldw	r2,-44(fp)
    3f80:	1004913a 	slli	r2,r2,4
    3f84:	1885883a 	add	r2,r3,r2
    3f88:	10800d04 	addi	r2,r2,52
    3f8c:	10800017 	ldw	r2,0(r2)
    3f90:	e0bff715 	stw	r2,-36(fp)

      for(j=0;j<flash->dev.region_info[i].number_of_blocks;j++)
    3f94:	e03ff615 	stw	zero,-40(fp)
    3f98:	00005c06 	br	410c <alt_flash_cfi_write+0x234>
      {
        if ((offset >= current_offset ) && 
    3f9c:	e0fffd17 	ldw	r3,-12(fp)
    3fa0:	e0bff717 	ldw	r2,-36(fp)
    3fa4:	18804d16 	blt	r3,r2,40dc <alt_flash_cfi_write+0x204>
            (offset < (current_offset + 
            flash->dev.region_info[i].block_size)))
    3fa8:	e0fffa17 	ldw	r3,-24(fp)
    3fac:	e0bff517 	ldw	r2,-44(fp)
    3fb0:	10800104 	addi	r2,r2,4
    3fb4:	1004913a 	slli	r2,r2,4
    3fb8:	1885883a 	add	r2,r3,r2
    3fbc:	10c00017 	ldw	r3,0(r2)
      current_offset = flash->dev.region_info[i].offset;

      for(j=0;j<flash->dev.region_info[i].number_of_blocks;j++)
      {
        if ((offset >= current_offset ) && 
            (offset < (current_offset + 
    3fc0:	e0bff717 	ldw	r2,-36(fp)
    3fc4:	1885883a 	add	r2,r3,r2
    {
      current_offset = flash->dev.region_info[i].offset;

      for(j=0;j<flash->dev.region_info[i].number_of_blocks;j++)
      {
        if ((offset >= current_offset ) && 
    3fc8:	e0fffd17 	ldw	r3,-12(fp)
    3fcc:	1880430e 	bge	r3,r2,40dc <alt_flash_cfi_write+0x204>
        {
          /*
           * Check if the contents of the block are different
           * from the data we wish to put there
           */
          data_to_write = ( current_offset + flash->dev.region_info[i].block_size 
    3fd0:	e0fffa17 	ldw	r3,-24(fp)
    3fd4:	e0bff517 	ldw	r2,-44(fp)
    3fd8:	10800104 	addi	r2,r2,4
    3fdc:	1004913a 	slli	r2,r2,4
    3fe0:	1885883a 	add	r2,r3,r2
    3fe4:	10c00017 	ldw	r3,0(r2)
    3fe8:	e0bff717 	ldw	r2,-36(fp)
    3fec:	1887883a 	add	r3,r3,r2
    3ff0:	e0bffd17 	ldw	r2,-12(fp)
    3ff4:	1885c83a 	sub	r2,r3,r2
    3ff8:	e0bffb15 	stw	r2,-20(fp)
                            - offset); 
          data_to_write = MIN(data_to_write, length);
    3ffc:	e0fffb17 	ldw	r3,-20(fp)
    4000:	e0bfff17 	ldw	r2,-4(fp)
    4004:	1880010e 	bge	r3,r2,400c <alt_flash_cfi_write+0x134>
    4008:	1805883a 	mov	r2,r3
    400c:	e0bffb15 	stw	r2,-20(fp)
          if(memcmp(src_addr, 
                    (alt_u8*)flash->dev.base_addr+offset,
    4010:	e0bffa17 	ldw	r2,-24(fp)
    4014:	10c00a17 	ldw	r3,40(r2)
           * from the data we wish to put there
           */
          data_to_write = ( current_offset + flash->dev.region_info[i].block_size 
                            - offset); 
          data_to_write = MIN(data_to_write, length);
          if(memcmp(src_addr, 
    4018:	e0bffd17 	ldw	r2,-12(fp)
    401c:	1885883a 	add	r2,r3,r2
    4020:	e0fffb17 	ldw	r3,-20(fp)
    4024:	180d883a 	mov	r6,r3
    4028:	100b883a 	mov	r5,r2
    402c:	e13ffe17 	ldw	r4,-8(fp)
    4030:	00091a80 	call	91a8 <memcmp>
    4034:	10001326 	beq	r2,zero,4084 <alt_flash_cfi_write+0x1ac>
                    (alt_u8*)flash->dev.base_addr+offset,
                    data_to_write))
          {
            ret_code = (*flash->dev.erase_block)( &flash->dev, current_offset);
    4038:	e0bffa17 	ldw	r2,-24(fp)
    403c:	10800817 	ldw	r2,32(r2)
    4040:	e0fffa17 	ldw	r3,-24(fp)
    4044:	e17ff717 	ldw	r5,-36(fp)
    4048:	1809883a 	mov	r4,r3
    404c:	103ee83a 	callr	r2
    4050:	e0bff415 	stw	r2,-48(fp)

            if (!ret_code)
    4054:	e0bff417 	ldw	r2,-48(fp)
    4058:	10000a1e 	bne	r2,zero,4084 <alt_flash_cfi_write+0x1ac>
            {
              ret_code = (*flash->dev.write_block)( 
    405c:	e0bffa17 	ldw	r2,-24(fp)
    4060:	10800917 	ldw	r2,36(r2)
    4064:	e13ffa17 	ldw	r4,-24(fp)
    4068:	e0fffb17 	ldw	r3,-20(fp)
    406c:	d8c00015 	stw	r3,0(sp)
    4070:	e1fffe17 	ldw	r7,-8(fp)
    4074:	e1bffd17 	ldw	r6,-12(fp)
    4078:	e17ff717 	ldw	r5,-36(fp)
    407c:	103ee83a 	callr	r2
    4080:	e0bff415 	stw	r2,-48(fp)
                                                  data_to_write);
            }
          }    
    
          /* Was this the last block? */    
          if ((length == data_to_write) || ret_code)
    4084:	e0ffff17 	ldw	r3,-4(fp)
    4088:	e0bffb17 	ldw	r2,-20(fp)
    408c:	18802e26 	beq	r3,r2,4148 <alt_flash_cfi_write+0x270>
    4090:	e0bff417 	ldw	r2,-48(fp)
    4094:	10002c1e 	bne	r2,zero,4148 <alt_flash_cfi_write+0x270>
          {
            goto finished;
          }
          
          length -= data_to_write;
    4098:	e0ffff17 	ldw	r3,-4(fp)
    409c:	e0bffb17 	ldw	r2,-20(fp)
    40a0:	1885c83a 	sub	r2,r3,r2
    40a4:	e0bfff15 	stw	r2,-4(fp)
          offset = current_offset + flash->dev.region_info[i].block_size;
    40a8:	e0fffa17 	ldw	r3,-24(fp)
    40ac:	e0bff517 	ldw	r2,-44(fp)
    40b0:	10800104 	addi	r2,r2,4
    40b4:	1004913a 	slli	r2,r2,4
    40b8:	1885883a 	add	r2,r3,r2
    40bc:	10c00017 	ldw	r3,0(r2)
    40c0:	e0bff717 	ldw	r2,-36(fp)
    40c4:	1885883a 	add	r2,r3,r2
    40c8:	e0bffd15 	stw	r2,-12(fp)
          src_addr = (alt_u8*)src_addr + data_to_write;
    40cc:	e0bffb17 	ldw	r2,-20(fp)
    40d0:	e0fffe17 	ldw	r3,-8(fp)
    40d4:	1885883a 	add	r2,r3,r2
    40d8:	e0bffe15 	stw	r2,-8(fp)
        }
        current_offset += flash->dev.region_info[i].block_size;
    40dc:	e0fffa17 	ldw	r3,-24(fp)
    40e0:	e0bff517 	ldw	r2,-44(fp)
    40e4:	10800104 	addi	r2,r2,4
    40e8:	1004913a 	slli	r2,r2,4
    40ec:	1885883a 	add	r2,r3,r2
    40f0:	10800017 	ldw	r2,0(r2)
    40f4:	e0fff717 	ldw	r3,-36(fp)
    40f8:	1885883a 	add	r2,r3,r2
    40fc:	e0bff715 	stw	r2,-36(fp)
      (offset < (flash->dev.region_info[i].offset + 
      flash->dev.region_info[i].region_size)))
    {
      current_offset = flash->dev.region_info[i].offset;

      for(j=0;j<flash->dev.region_info[i].number_of_blocks;j++)
    4100:	e0bff617 	ldw	r2,-40(fp)
    4104:	10800044 	addi	r2,r2,1
    4108:	e0bff615 	stw	r2,-40(fp)
    410c:	e0fffa17 	ldw	r3,-24(fp)
    4110:	e0bff517 	ldw	r2,-44(fp)
    4114:	1004913a 	slli	r2,r2,4
    4118:	1885883a 	add	r2,r3,r2
    411c:	10800f04 	addi	r2,r2,60
    4120:	10800017 	ldw	r2,0(r2)
    4124:	e0fff617 	ldw	r3,-40(fp)
    4128:	18bf9c16 	blt	r3,r2,3f9c <__alt_mem_onchip_memory+0xf7803f9c>
  alt_flash_cfi_dev* flash = (alt_flash_cfi_dev*)flash_info;

  /*
   * First and foremost which sectors are affected?
   */   
  for(i=0;i<flash->dev.number_of_regions;i++)
    412c:	e0bff517 	ldw	r2,-44(fp)
    4130:	10800044 	addi	r2,r2,1
    4134:	e0bff515 	stw	r2,-44(fp)
    4138:	e0bffa17 	ldw	r2,-24(fp)
    413c:	10800c17 	ldw	r2,48(r2)
    4140:	e0fff517 	ldw	r3,-44(fp)
    4144:	18bf7516 	blt	r3,r2,3f1c <__alt_mem_onchip_memory+0xf7803f1c>
      }     
    } 
  }
finished:    

  alt_dcache_flush((alt_u8*)flash->dev.base_addr+start_offset, full_length);
    4148:	e0bffa17 	ldw	r2,-24(fp)
    414c:	10c00a17 	ldw	r3,40(r2)
    4150:	e0bff917 	ldw	r2,-28(fp)
    4154:	1885883a 	add	r2,r3,r2
    4158:	e0fff817 	ldw	r3,-32(fp)
    415c:	180b883a 	mov	r5,r3
    4160:	1009883a 	mov	r4,r2
    4164:	00079840 	call	7984 <alt_dcache_flush>
  return ret_code;
    4168:	e0bff417 	ldw	r2,-48(fp)
}
    416c:	e037883a 	mov	sp,fp
    4170:	dfc00117 	ldw	ra,4(sp)
    4174:	df000017 	ldw	fp,0(sp)
    4178:	dec00204 	addi	sp,sp,8
    417c:	f800283a 	ret

00004180 <alt_flash_cfi_get_info>:
 * 
 *  Pass the table of erase blocks to the user
 */
int alt_flash_cfi_get_info( alt_flash_fd* fd, flash_region** info, 
                            int* number_of_regions)
{
    4180:	defffa04 	addi	sp,sp,-24
    4184:	df000515 	stw	fp,20(sp)
    4188:	df000504 	addi	fp,sp,20
    418c:	e13ffd15 	stw	r4,-12(fp)
    4190:	e17ffe15 	stw	r5,-8(fp)
    4194:	e1bfff15 	stw	r6,-4(fp)
  int ret_code = 0;
    4198:	e03ffb15 	stw	zero,-20(fp)
  alt_flash_dev* flash = (alt_flash_dev*)fd;
    419c:	e0bffd17 	ldw	r2,-12(fp)
    41a0:	e0bffc15 	stw	r2,-16(fp)

  *number_of_regions = flash->number_of_regions;
    41a4:	e0bffc17 	ldw	r2,-16(fp)
    41a8:	10c00c17 	ldw	r3,48(r2)
    41ac:	e0bfff17 	ldw	r2,-4(fp)
    41b0:	10c00015 	stw	r3,0(r2)

  if (!flash->number_of_regions)
    41b4:	e0bffc17 	ldw	r2,-16(fp)
    41b8:	10800c17 	ldw	r2,48(r2)
    41bc:	1000031e 	bne	r2,zero,41cc <alt_flash_cfi_get_info+0x4c>
  {
    ret_code = -EIO;
    41c0:	00bffec4 	movi	r2,-5
    41c4:	e0bffb15 	stw	r2,-20(fp)
    41c8:	00000b06 	br	41f8 <alt_flash_cfi_get_info+0x78>
  }
  else if (flash->number_of_regions > ALT_MAX_NUMBER_OF_FLASH_REGIONS)
    41cc:	e0bffc17 	ldw	r2,-16(fp)
    41d0:	10800c17 	ldw	r2,48(r2)
    41d4:	10800250 	cmplti	r2,r2,9
    41d8:	1000031e 	bne	r2,zero,41e8 <alt_flash_cfi_get_info+0x68>
  {
    ret_code = -ENOMEM;
    41dc:	00bffd04 	movi	r2,-12
    41e0:	e0bffb15 	stw	r2,-20(fp)
    41e4:	00000406 	br	41f8 <alt_flash_cfi_get_info+0x78>
  }
  else
  {
    *info = &flash->region_info[0];
    41e8:	e0bffc17 	ldw	r2,-16(fp)
    41ec:	10c00d04 	addi	r3,r2,52
    41f0:	e0bffe17 	ldw	r2,-8(fp)
    41f4:	10c00015 	stw	r3,0(r2)
  }

  return ret_code;
    41f8:	e0bffb17 	ldw	r2,-20(fp)
}
    41fc:	e037883a 	mov	sp,fp
    4200:	df000017 	ldw	fp,0(sp)
    4204:	dec00104 	addi	sp,sp,4
    4208:	f800283a 	ret

0000420c <alt_flash_cfi_read>:
 *  Read from an area in flash, you could use memcopy yourself
 *  for these flash types, but we're trying to be generic and future proof
 */
int alt_flash_cfi_read( alt_flash_dev* flash_info, int offset, 
                        void* dest_addr, int length )
{
    420c:	defff904 	addi	sp,sp,-28
    4210:	dfc00615 	stw	ra,24(sp)
    4214:	df000515 	stw	fp,20(sp)
    4218:	df000504 	addi	fp,sp,20
    421c:	e13ffc15 	stw	r4,-16(fp)
    4220:	e17ffd15 	stw	r5,-12(fp)
    4224:	e1bffe15 	stw	r6,-8(fp)
    4228:	e1ffff15 	stw	r7,-4(fp)
  alt_flash_cfi_dev* flash = (alt_flash_cfi_dev*)flash_info;
    422c:	e0bffc17 	ldw	r2,-16(fp)
    4230:	e0bffb15 	stw	r2,-20(fp)
  memcpy(dest_addr, (alt_u8*)flash->dev.base_addr+offset, length);
    4234:	e0bffb17 	ldw	r2,-20(fp)
    4238:	10c00a17 	ldw	r3,40(r2)
    423c:	e0bffd17 	ldw	r2,-12(fp)
    4240:	1885883a 	add	r2,r3,r2
    4244:	e0ffff17 	ldw	r3,-4(fp)
    4248:	180d883a 	mov	r6,r3
    424c:	100b883a 	mov	r5,r2
    4250:	e13ffe17 	ldw	r4,-8(fp)
    4254:	00017080 	call	1708 <memcpy>
  return 0;
    4258:	0005883a 	mov	r2,zero
}
    425c:	e037883a 	mov	sp,fp
    4260:	dfc00117 	ldw	ra,4(sp)
    4264:	df000017 	ldw	fp,0(sp)
    4268:	dec00204 	addi	sp,sp,8
    426c:	f800283a 	ret

00004270 <alt_write_value_to_flash>:
* It writes the largest word size that the flash can support
* so if it's an 8 bit flash it writes bytes
* 16 bit half word etc.
*/
void alt_write_value_to_flash(alt_flash_cfi_dev* flash, int offset, const alt_u8* src_addr)
{
    4270:	defffa04 	addi	sp,sp,-24
    4274:	df000515 	stw	fp,20(sp)
    4278:	df000504 	addi	fp,sp,20
    427c:	e13ffd15 	stw	r4,-12(fp)
    4280:	e17ffe15 	stw	r5,-8(fp)
    4284:	e1bfff15 	stw	r6,-4(fp)
  alt_u16 half_word_value;
  alt_u32 word_value;

  if (flash->mode_width == 1)
    4288:	e0bffd17 	ldw	r2,-12(fp)
    428c:	10802f17 	ldw	r2,188(r2)
    4290:	10800058 	cmpnei	r2,r2,1
    4294:	1000091e 	bne	r2,zero,42bc <alt_write_value_to_flash+0x4c>
  {
    IOWR_8DIRECT(flash->dev.base_addr, offset, *src_addr);
    4298:	e0bffd17 	ldw	r2,-12(fp)
    429c:	10c00a17 	ldw	r3,40(r2)
    42a0:	e0bffe17 	ldw	r2,-8(fp)
    42a4:	1885883a 	add	r2,r3,r2
    42a8:	e0ffff17 	ldw	r3,-4(fp)
    42ac:	18c00003 	ldbu	r3,0(r3)
    42b0:	18c03fcc 	andi	r3,r3,255
    42b4:	10c00025 	stbio	r3,0(r2)
    word_value |= ((alt_u32)(*(src_addr + 2)) << 16);
    word_value |= ((alt_u32)(*(src_addr + 3)) << 24);
    IOWR_32DIRECT(flash->dev.base_addr, offset, word_value);
  }

  return;
    42b8:	00003f06 	br	43b8 <alt_write_value_to_flash+0x148>

  if (flash->mode_width == 1)
  {
    IOWR_8DIRECT(flash->dev.base_addr, offset, *src_addr);
  }
  else if (flash->mode_width == 2)
    42bc:	e0bffd17 	ldw	r2,-12(fp)
    42c0:	10802f17 	ldw	r2,188(r2)
    42c4:	10800098 	cmpnei	r2,r2,2
    42c8:	1000141e 	bne	r2,zero,431c <alt_write_value_to_flash+0xac>
  {
    half_word_value = (alt_u16)(*src_addr);
    42cc:	e0bfff17 	ldw	r2,-4(fp)
    42d0:	10800003 	ldbu	r2,0(r2)
    42d4:	10803fcc 	andi	r2,r2,255
    42d8:	e0bffb0d 	sth	r2,-20(fp)
    half_word_value |= (alt_u16)(*(src_addr + 1)) << 8;
    42dc:	e0bfff17 	ldw	r2,-4(fp)
    42e0:	10800044 	addi	r2,r2,1
    42e4:	10800003 	ldbu	r2,0(r2)
    42e8:	10803fcc 	andi	r2,r2,255
    42ec:	1004923a 	slli	r2,r2,8
    42f0:	1007883a 	mov	r3,r2
    42f4:	e0bffb0b 	ldhu	r2,-20(fp)
    42f8:	1884b03a 	or	r2,r3,r2
    42fc:	e0bffb0d 	sth	r2,-20(fp)
    IOWR_16DIRECT(flash->dev.base_addr, offset, half_word_value);
    4300:	e0bffd17 	ldw	r2,-12(fp)
    4304:	10c00a17 	ldw	r3,40(r2)
    4308:	e0bffe17 	ldw	r2,-8(fp)
    430c:	1885883a 	add	r2,r3,r2
    4310:	e0fffb0b 	ldhu	r3,-20(fp)
    4314:	10c0002d 	sthio	r3,0(r2)
    word_value |= ((alt_u32)(*(src_addr + 2)) << 16);
    word_value |= ((alt_u32)(*(src_addr + 3)) << 24);
    IOWR_32DIRECT(flash->dev.base_addr, offset, word_value);
  }

  return;
    4318:	00002706 	br	43b8 <alt_write_value_to_flash+0x148>
  {
    half_word_value = (alt_u16)(*src_addr);
    half_word_value |= (alt_u16)(*(src_addr + 1)) << 8;
    IOWR_16DIRECT(flash->dev.base_addr, offset, half_word_value);
  }
  else if (flash->mode_width == 4)
    431c:	e0bffd17 	ldw	r2,-12(fp)
    4320:	10802f17 	ldw	r2,188(r2)
    4324:	10800118 	cmpnei	r2,r2,4
    4328:	1000231e 	bne	r2,zero,43b8 <alt_write_value_to_flash+0x148>
  {
    word_value = (alt_u32)(*src_addr);
    432c:	e0bfff17 	ldw	r2,-4(fp)
    4330:	10800003 	ldbu	r2,0(r2)
    4334:	10803fcc 	andi	r2,r2,255
    4338:	e0bffc15 	stw	r2,-16(fp)
    word_value |= ((alt_u32)(*(src_addr + 1)) << 8);
    433c:	e0bfff17 	ldw	r2,-4(fp)
    4340:	10800044 	addi	r2,r2,1
    4344:	10800003 	ldbu	r2,0(r2)
    4348:	10803fcc 	andi	r2,r2,255
    434c:	1004923a 	slli	r2,r2,8
    4350:	e0fffc17 	ldw	r3,-16(fp)
    4354:	1884b03a 	or	r2,r3,r2
    4358:	e0bffc15 	stw	r2,-16(fp)
    word_value |= ((alt_u32)(*(src_addr + 2)) << 16);
    435c:	e0bfff17 	ldw	r2,-4(fp)
    4360:	10800084 	addi	r2,r2,2
    4364:	10800003 	ldbu	r2,0(r2)
    4368:	10803fcc 	andi	r2,r2,255
    436c:	1004943a 	slli	r2,r2,16
    4370:	e0fffc17 	ldw	r3,-16(fp)
    4374:	1884b03a 	or	r2,r3,r2
    4378:	e0bffc15 	stw	r2,-16(fp)
    word_value |= ((alt_u32)(*(src_addr + 3)) << 24);
    437c:	e0bfff17 	ldw	r2,-4(fp)
    4380:	108000c4 	addi	r2,r2,3
    4384:	10800003 	ldbu	r2,0(r2)
    4388:	10803fcc 	andi	r2,r2,255
    438c:	1004963a 	slli	r2,r2,24
    4390:	e0fffc17 	ldw	r3,-16(fp)
    4394:	1884b03a 	or	r2,r3,r2
    4398:	e0bffc15 	stw	r2,-16(fp)
    IOWR_32DIRECT(flash->dev.base_addr, offset, word_value);
    439c:	e0bffd17 	ldw	r2,-12(fp)
    43a0:	10c00a17 	ldw	r3,40(r2)
    43a4:	e0bffe17 	ldw	r2,-8(fp)
    43a8:	1885883a 	add	r2,r3,r2
    43ac:	e0fffc17 	ldw	r3,-16(fp)
    43b0:	10c00035 	stwio	r3,0(r2)
  }

  return;
    43b4:	0001883a 	nop
    43b8:	0001883a 	nop
}
    43bc:	e037883a 	mov	sp,fp
    43c0:	df000017 	ldw	fp,0(sp)
    43c4:	dec00104 	addi	sp,sp,4
    43c8:	f800283a 	ret

000043cc <alt_flash_program_block>:
*/
int alt_flash_program_block(  alt_flash_cfi_dev* flash, const int offset, 
                        const alt_u8* src_addr, 
                        const int length,
                        alt_program_word_fn program_word_func)
{
    43cc:	defff304 	addi	sp,sp,-52
    43d0:	dfc00c15 	stw	ra,48(sp)
    43d4:	df000b15 	stw	fp,44(sp)
    43d8:	df000b04 	addi	fp,sp,44
    43dc:	e13ffc15 	stw	r4,-16(fp)
    43e0:	e17ffd15 	stw	r5,-12(fp)
    43e4:	e1bffe15 	stw	r6,-8(fp)
    43e8:	e1ffff15 	stw	r7,-4(fp)
  int     ret_code = 0;
    43ec:	e03ff515 	stw	zero,-44(fp)

  /*
   * First take care of any writes which are on none native boundaries
   * as far as the flash is concerned.
   */
  bytes_to_preserve = ((int)((alt_u8*)flash->dev.base_addr + offset) % 
    43f0:	e0bffc17 	ldw	r2,-16(fp)
    43f4:	10c00a17 	ldw	r3,40(r2)
    43f8:	e0bffd17 	ldw	r2,-12(fp)
    43fc:	1885883a 	add	r2,r3,r2
    4400:	1007883a 	mov	r3,r2
                      flash->mode_width);
    4404:	e0bffc17 	ldw	r2,-16(fp)
    4408:	10802f17 	ldw	r2,188(r2)

  /*
   * First take care of any writes which are on none native boundaries
   * as far as the flash is concerned.
   */
  bytes_to_preserve = ((int)((alt_u8*)flash->dev.base_addr + offset) % 
    440c:	100b883a 	mov	r5,r2
    4410:	1809883a 	mov	r4,r3
    4414:	0002f600 	call	2f60 <__modsi3>
    4418:	e0bff815 	stw	r2,-32(fp)
                      flash->mode_width);
  if ( bytes_to_preserve != 0)
    441c:	e0bff817 	ldw	r2,-32(fp)
    4420:	10003b26 	beq	r2,zero,4510 <alt_flash_program_block+0x144>
  {
    unaligned_bytes = flash->mode_width - bytes_to_preserve;
    4424:	e0bffc17 	ldw	r2,-16(fp)
    4428:	10c02f17 	ldw	r3,188(r2)
    442c:	e0bff817 	ldw	r2,-32(fp)
    4430:	1885c83a 	sub	r2,r3,r2
    4434:	e0bff915 	stw	r2,-28(fp)
    /*
     * Read the bytes we wish to preserve out of flash
     */
    for (i=0;i<bytes_to_preserve;i++)
    4438:	e03ff615 	stw	zero,-40(fp)
    443c:	00001206 	br	4488 <alt_flash_program_block+0xbc>
    {
      unaligned[i] = IORD_8DIRECT(flash->dev.base_addr, 
    4440:	e0bffc17 	ldw	r2,-16(fp)
    4444:	10800a17 	ldw	r2,40(r2)
    4448:	e13ffd17 	ldw	r4,-12(fp)
    444c:	e0fff817 	ldw	r3,-32(fp)
    4450:	20c9c83a 	sub	r4,r4,r3
    4454:	e0fff617 	ldw	r3,-40(fp)
    4458:	20c7883a 	add	r3,r4,r3
    445c:	10c5883a 	add	r2,r2,r3
    4460:	10800023 	ldbuio	r2,0(r2)
    4464:	10803fcc 	andi	r2,r2,255
    4468:	1009883a 	mov	r4,r2
    446c:	e0fffb04 	addi	r3,fp,-20
    4470:	e0bff617 	ldw	r2,-40(fp)
    4474:	1885883a 	add	r2,r3,r2
    4478:	11000005 	stb	r4,0(r2)
  {
    unaligned_bytes = flash->mode_width - bytes_to_preserve;
    /*
     * Read the bytes we wish to preserve out of flash
     */
    for (i=0;i<bytes_to_preserve;i++)
    447c:	e0bff617 	ldw	r2,-40(fp)
    4480:	10800044 	addi	r2,r2,1
    4484:	e0bff615 	stw	r2,-40(fp)
    4488:	e0fff617 	ldw	r3,-40(fp)
    448c:	e0bff817 	ldw	r2,-32(fp)
    4490:	18bfeb16 	blt	r3,r2,4440 <__alt_mem_onchip_memory+0xf7804440>
    {
      unaligned[i] = IORD_8DIRECT(flash->dev.base_addr, 
                                offset-bytes_to_preserve+i);
    }

    for (i=0;i<unaligned_bytes;i++)
    4494:	e03ff615 	stw	zero,-40(fp)
    4498:	00000d06 	br	44d0 <alt_flash_program_block+0x104>
    {
      unaligned[bytes_to_preserve + i] = *(alt_u8*)(src_addr + i);
    449c:	e0fff817 	ldw	r3,-32(fp)
    44a0:	e0bff617 	ldw	r2,-40(fp)
    44a4:	1885883a 	add	r2,r3,r2
    44a8:	e0fff617 	ldw	r3,-40(fp)
    44ac:	e13ffe17 	ldw	r4,-8(fp)
    44b0:	20c7883a 	add	r3,r4,r3
    44b4:	18c00003 	ldbu	r3,0(r3)
    44b8:	e13ffb04 	addi	r4,fp,-20
    44bc:	2085883a 	add	r2,r4,r2
    44c0:	10c00005 	stb	r3,0(r2)
    {
      unaligned[i] = IORD_8DIRECT(flash->dev.base_addr, 
                                offset-bytes_to_preserve+i);
    }

    for (i=0;i<unaligned_bytes;i++)
    44c4:	e0bff617 	ldw	r2,-40(fp)
    44c8:	10800044 	addi	r2,r2,1
    44cc:	e0bff615 	stw	r2,-40(fp)
    44d0:	e0fff617 	ldw	r3,-40(fp)
    44d4:	e0bff917 	ldw	r2,-28(fp)
    44d8:	18bff016 	blt	r3,r2,449c <__alt_mem_onchip_memory+0xf780449c>
    {
      unaligned[bytes_to_preserve + i] = *(alt_u8*)(src_addr + i);
    }
    
    ret_code = (*program_word_func)(flash, offset-bytes_to_preserve, unaligned);
    44dc:	e0fffd17 	ldw	r3,-12(fp)
    44e0:	e0bff817 	ldw	r2,-32(fp)
    44e4:	1887c83a 	sub	r3,r3,r2
    44e8:	e13ffb04 	addi	r4,fp,-20
    44ec:	e0800217 	ldw	r2,8(fp)
    44f0:	200d883a 	mov	r6,r4
    44f4:	180b883a 	mov	r5,r3
    44f8:	e13ffc17 	ldw	r4,-16(fp)
    44fc:	103ee83a 	callr	r2
    4500:	e0bff515 	stw	r2,-44(fp)
    i = unaligned_bytes;
    4504:	e0bff917 	ldw	r2,-28(fp)
    4508:	e0bff615 	stw	r2,-40(fp)
    450c:	00000106 	br	4514 <alt_flash_program_block+0x148>
  }
  else
  {
    i = 0;
    4510:	e03ff615 	stw	zero,-40(fp)
  }

  unaligned_end_bytes = (offset+length) % flash->mode_width;
    4514:	e0fffd17 	ldw	r3,-12(fp)
    4518:	e0bfff17 	ldw	r2,-4(fp)
    451c:	1887883a 	add	r3,r3,r2
    4520:	e0bffc17 	ldw	r2,-16(fp)
    4524:	10802f17 	ldw	r2,188(r2)
    4528:	100b883a 	mov	r5,r2
    452c:	1809883a 	mov	r4,r3
    4530:	0002f600 	call	2f60 <__modsi3>
    4534:	e0bffa15 	stw	r2,-24(fp)
  while ((ret_code == 0) && (i < (length-unaligned_end_bytes)))
    4538:	00001106 	br	4580 <alt_flash_program_block+0x1b4>
  {
    ret_code = (*program_word_func)(flash, offset+i, src_addr+i);
    453c:	e0fffd17 	ldw	r3,-12(fp)
    4540:	e0bff617 	ldw	r2,-40(fp)
    4544:	1889883a 	add	r4,r3,r2
    4548:	e0bff617 	ldw	r2,-40(fp)
    454c:	e0fffe17 	ldw	r3,-8(fp)
    4550:	1887883a 	add	r3,r3,r2
    4554:	e0800217 	ldw	r2,8(fp)
    4558:	180d883a 	mov	r6,r3
    455c:	200b883a 	mov	r5,r4
    4560:	e13ffc17 	ldw	r4,-16(fp)
    4564:	103ee83a 	callr	r2
    4568:	e0bff515 	stw	r2,-44(fp)
    i += flash->mode_width;     
    456c:	e0bffc17 	ldw	r2,-16(fp)
    4570:	10802f17 	ldw	r2,188(r2)
    4574:	e0fff617 	ldw	r3,-40(fp)
    4578:	1885883a 	add	r2,r3,r2
    457c:	e0bff615 	stw	r2,-40(fp)
  {
    i = 0;
  }

  unaligned_end_bytes = (offset+length) % flash->mode_width;
  while ((ret_code == 0) && (i < (length-unaligned_end_bytes)))
    4580:	e0bff517 	ldw	r2,-44(fp)
    4584:	1000051e 	bne	r2,zero,459c <alt_flash_program_block+0x1d0>
    4588:	e0ffff17 	ldw	r3,-4(fp)
    458c:	e0bffa17 	ldw	r2,-24(fp)
    4590:	1885c83a 	sub	r2,r3,r2
    4594:	e0fff617 	ldw	r3,-40(fp)
    4598:	18bfe816 	blt	r3,r2,453c <__alt_mem_onchip_memory+0xf780453c>

  /*
   * Now take care of any writes at the end of the buffer which are on none 
   * native boundaries as far as the flash is concerned.
   */
  if (unaligned_end_bytes && !ret_code)
    459c:	e0bffa17 	ldw	r2,-24(fp)
    45a0:	10003c26 	beq	r2,zero,4694 <alt_flash_program_block+0x2c8>
    45a4:	e0bff517 	ldw	r2,-44(fp)
    45a8:	10003a1e 	bne	r2,zero,4694 <alt_flash_program_block+0x2c8>
  {
    bytes_to_preserve = flash->mode_width - unaligned_end_bytes;
    45ac:	e0bffc17 	ldw	r2,-16(fp)
    45b0:	10c02f17 	ldw	r3,188(r2)
    45b4:	e0bffa17 	ldw	r2,-24(fp)
    45b8:	1885c83a 	sub	r2,r3,r2
    45bc:	e0bff815 	stw	r2,-32(fp)
    
    for (j=0;j<unaligned_end_bytes;j++)
    45c0:	e03ff715 	stw	zero,-36(fp)
    45c4:	00000d06 	br	45fc <alt_flash_program_block+0x230>
    {
      unaligned[j] = *(alt_u8*)(src_addr+i+j);
    45c8:	e0fff617 	ldw	r3,-40(fp)
    45cc:	e0bff717 	ldw	r2,-36(fp)
    45d0:	1885883a 	add	r2,r3,r2
    45d4:	e0fffe17 	ldw	r3,-8(fp)
    45d8:	1885883a 	add	r2,r3,r2
    45dc:	10c00003 	ldbu	r3,0(r2)
    45e0:	e13ffb04 	addi	r4,fp,-20
    45e4:	e0bff717 	ldw	r2,-36(fp)
    45e8:	2085883a 	add	r2,r4,r2
    45ec:	10c00005 	stb	r3,0(r2)
   */
  if (unaligned_end_bytes && !ret_code)
  {
    bytes_to_preserve = flash->mode_width - unaligned_end_bytes;
    
    for (j=0;j<unaligned_end_bytes;j++)
    45f0:	e0bff717 	ldw	r2,-36(fp)
    45f4:	10800044 	addi	r2,r2,1
    45f8:	e0bff715 	stw	r2,-36(fp)
    45fc:	e0fff717 	ldw	r3,-36(fp)
    4600:	e0bffa17 	ldw	r2,-24(fp)
    4604:	18bff016 	blt	r3,r2,45c8 <__alt_mem_onchip_memory+0xf78045c8>
    {
      unaligned[j] = *(alt_u8*)(src_addr+i+j);
    }
    
    for (j=0;j<bytes_to_preserve;j++)
    4608:	e03ff715 	stw	zero,-36(fp)
    460c:	00001406 	br	4660 <alt_flash_program_block+0x294>
    {
      unaligned[unaligned_end_bytes+j] = IORD_8DIRECT(flash->dev.base_addr, 
    4610:	e0fffa17 	ldw	r3,-24(fp)
    4614:	e0bff717 	ldw	r2,-36(fp)
    4618:	1885883a 	add	r2,r3,r2
    461c:	e0fffc17 	ldw	r3,-16(fp)
    4620:	18c00a17 	ldw	r3,40(r3)
    4624:	e17ffd17 	ldw	r5,-12(fp)
    4628:	e13fff17 	ldw	r4,-4(fp)
    462c:	290b883a 	add	r5,r5,r4
    4630:	e13ff717 	ldw	r4,-36(fp)
    4634:	2909883a 	add	r4,r5,r4
    4638:	1907883a 	add	r3,r3,r4
    463c:	18c00023 	ldbuio	r3,0(r3)
    4640:	18c03fcc 	andi	r3,r3,255
    4644:	1809883a 	mov	r4,r3
    4648:	e0fffb04 	addi	r3,fp,-20
    464c:	1885883a 	add	r2,r3,r2
    4650:	11000005 	stb	r4,0(r2)
    for (j=0;j<unaligned_end_bytes;j++)
    {
      unaligned[j] = *(alt_u8*)(src_addr+i+j);
    }
    
    for (j=0;j<bytes_to_preserve;j++)
    4654:	e0bff717 	ldw	r2,-36(fp)
    4658:	10800044 	addi	r2,r2,1
    465c:	e0bff715 	stw	r2,-36(fp)
    4660:	e0fff717 	ldw	r3,-36(fp)
    4664:	e0bff817 	ldw	r2,-32(fp)
    4668:	18bfe916 	blt	r3,r2,4610 <__alt_mem_onchip_memory+0xf7804610>
    {
      unaligned[unaligned_end_bytes+j] = IORD_8DIRECT(flash->dev.base_addr, 
                                                      offset+length+j);
    }

    ret_code = (*program_word_func)(flash, offset+i, unaligned);      
    466c:	e0fffd17 	ldw	r3,-12(fp)
    4670:	e0bff617 	ldw	r2,-40(fp)
    4674:	1887883a 	add	r3,r3,r2
    4678:	e13ffb04 	addi	r4,fp,-20
    467c:	e0800217 	ldw	r2,8(fp)
    4680:	200d883a 	mov	r6,r4
    4684:	180b883a 	mov	r5,r3
    4688:	e13ffc17 	ldw	r4,-16(fp)
    468c:	103ee83a 	callr	r2
    4690:	e0bff515 	stw	r2,-44(fp)
  }

  return ret_code;
    4694:	e0bff517 	ldw	r2,-44(fp)
}
    4698:	e037883a 	mov	sp,fp
    469c:	dfc00117 	ldw	ra,4(sp)
    46a0:	df000017 	ldw	fp,0(sp)
    46a4:	dec00204 	addi	sp,sp,8
    46a8:	f800283a 	ret

000046ac <alt_read_query_entry_8bit>:

/*
 *  Read an 8 bit value from the CFI query table in flash
 */
alt_u8 alt_read_query_entry_8bit( alt_flash_cfi_dev* flash, int address)
{
    46ac:	defffd04 	addi	sp,sp,-12
    46b0:	df000215 	stw	fp,8(sp)
    46b4:	df000204 	addi	fp,sp,8
    46b8:	e13ffe15 	stw	r4,-8(fp)
    46bc:	e17fff15 	stw	r5,-4(fp)
  return IORD_8DIRECT((alt_u8*)flash->dev.base_addr, address);
    46c0:	e0bffe17 	ldw	r2,-8(fp)
    46c4:	10c00a17 	ldw	r3,40(r2)
    46c8:	e0bfff17 	ldw	r2,-4(fp)
    46cc:	1885883a 	add	r2,r3,r2
    46d0:	10800023 	ldbuio	r2,0(r2)
    46d4:	10803fcc 	andi	r2,r2,255
}
    46d8:	e037883a 	mov	sp,fp
    46dc:	df000017 	ldw	fp,0(sp)
    46e0:	dec00104 	addi	sp,sp,4
    46e4:	f800283a 	ret

000046e8 <alt_read_query_entry_16bit>:

alt_u8 alt_read_query_entry_16bit( alt_flash_cfi_dev* flash, int address)
{
    46e8:	defffd04 	addi	sp,sp,-12
    46ec:	df000215 	stw	fp,8(sp)
    46f0:	df000204 	addi	fp,sp,8
    46f4:	e13ffe15 	stw	r4,-8(fp)
    46f8:	e17fff15 	stw	r5,-4(fp)
  return (IORD_16DIRECT((alt_u8*)flash->dev.base_addr, address*2) & 0xff);
    46fc:	e0bffe17 	ldw	r2,-8(fp)
    4700:	10c00a17 	ldw	r3,40(r2)
    4704:	e0bfff17 	ldw	r2,-4(fp)
    4708:	1085883a 	add	r2,r2,r2
    470c:	1885883a 	add	r2,r3,r2
    4710:	1080002b 	ldhuio	r2,0(r2)
    4714:	10bfffcc 	andi	r2,r2,65535
}
    4718:	e037883a 	mov	sp,fp
    471c:	df000017 	ldw	fp,0(sp)
    4720:	dec00104 	addi	sp,sp,4
    4724:	f800283a 	ret

00004728 <alt_read_query_entry_32bit>:

alt_u8 alt_read_query_entry_32bit( alt_flash_cfi_dev* flash, int address)
{
    4728:	defffd04 	addi	sp,sp,-12
    472c:	df000215 	stw	fp,8(sp)
    4730:	df000204 	addi	fp,sp,8
    4734:	e13ffe15 	stw	r4,-8(fp)
    4738:	e17fff15 	stw	r5,-4(fp)
  return (IORD_32DIRECT((alt_u8*)flash->dev.base_addr, address*4) & 0xff);
    473c:	e0bffe17 	ldw	r2,-8(fp)
    4740:	10c00a17 	ldw	r3,40(r2)
    4744:	e0bfff17 	ldw	r2,-4(fp)
    4748:	1085883a 	add	r2,r2,r2
    474c:	1085883a 	add	r2,r2,r2
    4750:	1885883a 	add	r2,r3,r2
    4754:	10800037 	ldwio	r2,0(r2)
}
    4758:	e037883a 	mov	sp,fp
    475c:	df000017 	ldw	fp,0(sp)
    4760:	dec00104 	addi	sp,sp,4
    4764:	f800283a 	ret

00004768 <alt_write_flash_command_8bit_device_8bit_mode>:

/*
 * Write an 8 bit command to a flash
 */
void alt_write_flash_command_8bit_device_8bit_mode( void* base_addr, int offset, alt_u8 value)
{
    4768:	defffc04 	addi	sp,sp,-16
    476c:	df000315 	stw	fp,12(sp)
    4770:	df000304 	addi	fp,sp,12
    4774:	e13ffd15 	stw	r4,-12(fp)
    4778:	e17ffe15 	stw	r5,-8(fp)
    477c:	3005883a 	mov	r2,r6
    4780:	e0bfff05 	stb	r2,-4(fp)
  IOWR_8DIRECT(base_addr, offset, value);
    4784:	e0bffe17 	ldw	r2,-8(fp)
    4788:	e0fffd17 	ldw	r3,-12(fp)
    478c:	1885883a 	add	r2,r3,r2
    4790:	e0ffff03 	ldbu	r3,-4(fp)
    4794:	10c00025 	stbio	r3,0(r2)
  return;
    4798:	0001883a 	nop
}
    479c:	e037883a 	mov	sp,fp
    47a0:	df000017 	ldw	fp,0(sp)
    47a4:	dec00104 	addi	sp,sp,4
    47a8:	f800283a 	ret

000047ac <alt_write_flash_command_16bit_device_8bit_mode>:

void alt_write_flash_command_16bit_device_8bit_mode( void* base_addr, int offset, alt_u8 value)
{
    47ac:	defffc04 	addi	sp,sp,-16
    47b0:	df000315 	stw	fp,12(sp)
    47b4:	df000304 	addi	fp,sp,12
    47b8:	e13ffd15 	stw	r4,-12(fp)
    47bc:	e17ffe15 	stw	r5,-8(fp)
    47c0:	3005883a 	mov	r2,r6
    47c4:	e0bfff05 	stb	r2,-4(fp)
  if (offset % 2)
    47c8:	e0bffe17 	ldw	r2,-8(fp)
    47cc:	1080004c 	andi	r2,r2,1
    47d0:	10000826 	beq	r2,zero,47f4 <alt_write_flash_command_16bit_device_8bit_mode+0x48>
  {
    IOWR_8DIRECT(base_addr, offset*2, value);
    47d4:	e0bffe17 	ldw	r2,-8(fp)
    47d8:	1085883a 	add	r2,r2,r2
    47dc:	1007883a 	mov	r3,r2
    47e0:	e0bffd17 	ldw	r2,-12(fp)
    47e4:	10c5883a 	add	r2,r2,r3
    47e8:	e0ffff03 	ldbu	r3,-4(fp)
    47ec:	10c00025 	stbio	r3,0(r2)
  }
  else
  {
    IOWR_8DIRECT(base_addr, (offset*2)+1, value);
  }
  return;
    47f0:	00000806 	br	4814 <alt_write_flash_command_16bit_device_8bit_mode+0x68>
  {
    IOWR_8DIRECT(base_addr, offset*2, value);
  }
  else
  {
    IOWR_8DIRECT(base_addr, (offset*2)+1, value);
    47f4:	e0bffe17 	ldw	r2,-8(fp)
    47f8:	1085883a 	add	r2,r2,r2
    47fc:	10800044 	addi	r2,r2,1
    4800:	e0fffd17 	ldw	r3,-12(fp)
    4804:	1885883a 	add	r2,r3,r2
    4808:	e0ffff03 	ldbu	r3,-4(fp)
    480c:	10c00025 	stbio	r3,0(r2)
  }
  return;
    4810:	0001883a 	nop
}
    4814:	e037883a 	mov	sp,fp
    4818:	df000017 	ldw	fp,0(sp)
    481c:	dec00104 	addi	sp,sp,4
    4820:	f800283a 	ret

00004824 <alt_write_flash_command_32bit_device_8bit_mode>:

void alt_write_flash_command_32bit_device_8bit_mode( void* base_addr, int offset, alt_u8 value)
{
    4824:	defffc04 	addi	sp,sp,-16
    4828:	df000315 	stw	fp,12(sp)
    482c:	df000304 	addi	fp,sp,12
    4830:	e13ffd15 	stw	r4,-12(fp)
    4834:	e17ffe15 	stw	r5,-8(fp)
    4838:	3005883a 	mov	r2,r6
    483c:	e0bfff05 	stb	r2,-4(fp)
  IOWR_8DIRECT(base_addr, offset*4, value);
    4840:	e0bffe17 	ldw	r2,-8(fp)
    4844:	1085883a 	add	r2,r2,r2
    4848:	1085883a 	add	r2,r2,r2
    484c:	1007883a 	mov	r3,r2
    4850:	e0bffd17 	ldw	r2,-12(fp)
    4854:	10c5883a 	add	r2,r2,r3
    4858:	e0ffff03 	ldbu	r3,-4(fp)
    485c:	10c00025 	stbio	r3,0(r2)
  return;
    4860:	0001883a 	nop
}
    4864:	e037883a 	mov	sp,fp
    4868:	df000017 	ldw	fp,0(sp)
    486c:	dec00104 	addi	sp,sp,4
    4870:	f800283a 	ret

00004874 <alt_write_flash_command_16bit_device_16bit_mode>:

void alt_write_flash_command_16bit_device_16bit_mode( void* base_addr, int offset, alt_u8 value)
{
    4874:	defffc04 	addi	sp,sp,-16
    4878:	df000315 	stw	fp,12(sp)
    487c:	df000304 	addi	fp,sp,12
    4880:	e13ffd15 	stw	r4,-12(fp)
    4884:	e17ffe15 	stw	r5,-8(fp)
    4888:	3005883a 	mov	r2,r6
    488c:	e0bfff05 	stb	r2,-4(fp)
  IOWR_16DIRECT(base_addr, offset*2, ((alt_u16)value)& 0x00ff);
    4890:	e0bffe17 	ldw	r2,-8(fp)
    4894:	1085883a 	add	r2,r2,r2
    4898:	1007883a 	mov	r3,r2
    489c:	e0bffd17 	ldw	r2,-12(fp)
    48a0:	10c5883a 	add	r2,r2,r3
    48a4:	e0ffff03 	ldbu	r3,-4(fp)
    48a8:	10c0002d 	sthio	r3,0(r2)
  return;
    48ac:	0001883a 	nop
}
    48b0:	e037883a 	mov	sp,fp
    48b4:	df000017 	ldw	fp,0(sp)
    48b8:	dec00104 	addi	sp,sp,4
    48bc:	f800283a 	ret

000048c0 <alt_write_flash_command_32bit_device_16bit_mode>:

void alt_write_flash_command_32bit_device_16bit_mode( void* base_addr, int offset, alt_u8 value)
{
    48c0:	defffc04 	addi	sp,sp,-16
    48c4:	df000315 	stw	fp,12(sp)
    48c8:	df000304 	addi	fp,sp,12
    48cc:	e13ffd15 	stw	r4,-12(fp)
    48d0:	e17ffe15 	stw	r5,-8(fp)
    48d4:	3005883a 	mov	r2,r6
    48d8:	e0bfff05 	stb	r2,-4(fp)
  IOWR_16DIRECT(base_addr, offset*4, ((alt_u16)value)& 0x00ff);
    48dc:	e0bffe17 	ldw	r2,-8(fp)
    48e0:	1085883a 	add	r2,r2,r2
    48e4:	1085883a 	add	r2,r2,r2
    48e8:	1007883a 	mov	r3,r2
    48ec:	e0bffd17 	ldw	r2,-12(fp)
    48f0:	10c5883a 	add	r2,r2,r3
    48f4:	e0ffff03 	ldbu	r3,-4(fp)
    48f8:	10c0002d 	sthio	r3,0(r2)
  return;
    48fc:	0001883a 	nop
}
    4900:	e037883a 	mov	sp,fp
    4904:	df000017 	ldw	fp,0(sp)
    4908:	dec00104 	addi	sp,sp,4
    490c:	f800283a 	ret

00004910 <alt_write_flash_command_32bit_device_32bit_mode>:

void alt_write_flash_command_32bit_device_32bit_mode( void* base_addr, int offset, alt_u8 value)
{
    4910:	defffc04 	addi	sp,sp,-16
    4914:	df000315 	stw	fp,12(sp)
    4918:	df000304 	addi	fp,sp,12
    491c:	e13ffd15 	stw	r4,-12(fp)
    4920:	e17ffe15 	stw	r5,-8(fp)
    4924:	3005883a 	mov	r2,r6
    4928:	e0bfff05 	stb	r2,-4(fp)
  IOWR_32DIRECT(base_addr, offset*4, ((alt_u32)value)& 0x000000ff);
    492c:	e0bffe17 	ldw	r2,-8(fp)
    4930:	1085883a 	add	r2,r2,r2
    4934:	1085883a 	add	r2,r2,r2
    4938:	1007883a 	mov	r3,r2
    493c:	e0bffd17 	ldw	r2,-12(fp)
    4940:	10c5883a 	add	r2,r2,r3
    4944:	e0ffff03 	ldbu	r3,-4(fp)
    4948:	10c00035 	stwio	r3,0(r2)
  return;
    494c:	0001883a 	nop
}
    4950:	e037883a 	mov	sp,fp
    4954:	df000017 	ldw	fp,0(sp)
    4958:	dec00104 	addi	sp,sp,4
    495c:	f800283a 	ret

00004960 <alt_write_native_8bit>:

/*
 * Write the value passed to the flash
 */
void alt_write_native_8bit( void* address, alt_u32 value)
{
    4960:	defffd04 	addi	sp,sp,-12
    4964:	df000215 	stw	fp,8(sp)
    4968:	df000204 	addi	fp,sp,8
    496c:	e13ffe15 	stw	r4,-8(fp)
    4970:	e17fff15 	stw	r5,-4(fp)
  IOWR_8DIRECT(address, 0, (alt_u8)(value&0xff));
    4974:	e0bfff17 	ldw	r2,-4(fp)
    4978:	10c03fcc 	andi	r3,r2,255
    497c:	e0bffe17 	ldw	r2,-8(fp)
    4980:	10c00025 	stbio	r3,0(r2)
  return;
    4984:	0001883a 	nop
}
    4988:	e037883a 	mov	sp,fp
    498c:	df000017 	ldw	fp,0(sp)
    4990:	dec00104 	addi	sp,sp,4
    4994:	f800283a 	ret

00004998 <alt_write_native_16bit>:

void alt_write_native_16bit( void* address, alt_u32 value)
{
    4998:	defffd04 	addi	sp,sp,-12
    499c:	df000215 	stw	fp,8(sp)
    49a0:	df000204 	addi	fp,sp,8
    49a4:	e13ffe15 	stw	r4,-8(fp)
    49a8:	e17fff15 	stw	r5,-4(fp)
  IOWR_16DIRECT(address, 0, ((alt_u16)value)& 0xffff);
    49ac:	e0bfff17 	ldw	r2,-4(fp)
    49b0:	10ffffcc 	andi	r3,r2,65535
    49b4:	e0bffe17 	ldw	r2,-8(fp)
    49b8:	10c0002d 	sthio	r3,0(r2)
  return;
    49bc:	0001883a 	nop
}
    49c0:	e037883a 	mov	sp,fp
    49c4:	df000017 	ldw	fp,0(sp)
    49c8:	dec00104 	addi	sp,sp,4
    49cc:	f800283a 	ret

000049d0 <alt_write_native_32bit>:

void alt_write_native_32bit( void* address, alt_u32 value)
{
    49d0:	defffd04 	addi	sp,sp,-12
    49d4:	df000215 	stw	fp,8(sp)
    49d8:	df000204 	addi	fp,sp,8
    49dc:	e13ffe15 	stw	r4,-8(fp)
    49e0:	e17fff15 	stw	r5,-4(fp)
  IOWR_32DIRECT(address, 0, value);
    49e4:	e0ffff17 	ldw	r3,-4(fp)
    49e8:	e0bffe17 	ldw	r2,-8(fp)
    49ec:	10c00035 	stwio	r3,0(r2)
  return;
    49f0:	0001883a 	nop
}
    49f4:	e037883a 	mov	sp,fp
    49f8:	df000017 	ldw	fp,0(sp)
    49fc:	dec00104 	addi	sp,sp,4
    4a00:	f800283a 	ret

00004a04 <alt_set_flash_width_func>:
 * 
 * Setup the function pointers for writing a byte to the flash for the width
 * of the device
 */
int alt_set_flash_width_func( alt_flash_cfi_dev* flash)
{ 
    4a04:	defffd04 	addi	sp,sp,-12
    4a08:	df000215 	stw	fp,8(sp)
    4a0c:	df000204 	addi	fp,sp,8
    4a10:	e13fff15 	stw	r4,-4(fp)
  int ret_code = 0;
    4a14:	e03ffe15 	stw	zero,-8(fp)
  
  switch(flash->mode_width)
    4a18:	e0bfff17 	ldw	r2,-4(fp)
    4a1c:	10802f17 	ldw	r2,188(r2)
    4a20:	10c000a0 	cmpeqi	r3,r2,2
    4a24:	1800231e 	bne	r3,zero,4ab4 <alt_set_flash_width_func+0xb0>
    4a28:	10c00120 	cmpeqi	r3,r2,4
    4a2c:	1800371e 	bne	r3,zero,4b0c <alt_set_flash_width_func+0x108>
    4a30:	10800060 	cmpeqi	r2,r2,1
    4a34:	10003e26 	beq	r2,zero,4b30 <alt_set_flash_width_func+0x12c>
  {
    case 1:
    {
      flash->write_native = alt_write_native_8bit;
    4a38:	e0ffff17 	ldw	r3,-4(fp)
    4a3c:	00800034 	movhi	r2,0
    4a40:	10925804 	addi	r2,r2,18784
    4a44:	18803615 	stw	r2,216(r3)

      if (flash->device_width == 1)
    4a48:	e0bfff17 	ldw	r2,-4(fp)
    4a4c:	10803017 	ldw	r2,192(r2)
    4a50:	10800058 	cmpnei	r2,r2,1
    4a54:	1000051e 	bne	r2,zero,4a6c <alt_set_flash_width_func+0x68>
      {
        flash->write_command = alt_write_flash_command_8bit_device_8bit_mode;
    4a58:	e0ffff17 	ldw	r3,-4(fp)
    4a5c:	00800034 	movhi	r2,0
    4a60:	1091da04 	addi	r2,r2,18280
    4a64:	18803415 	stw	r2,208(r3)
      }
      else if (flash->device_width == 4)
      {
        flash->write_command = alt_write_flash_command_32bit_device_8bit_mode;
      }
      break;
    4a68:	00003406 	br	4b3c <alt_set_flash_width_func+0x138>

      if (flash->device_width == 1)
      {
        flash->write_command = alt_write_flash_command_8bit_device_8bit_mode;
      }
      else if (flash->device_width == 2)
    4a6c:	e0bfff17 	ldw	r2,-4(fp)
    4a70:	10803017 	ldw	r2,192(r2)
    4a74:	10800098 	cmpnei	r2,r2,2
    4a78:	1000051e 	bne	r2,zero,4a90 <alt_set_flash_width_func+0x8c>
      {
        flash->write_command = alt_write_flash_command_16bit_device_8bit_mode;
    4a7c:	e0ffff17 	ldw	r3,-4(fp)
    4a80:	00800034 	movhi	r2,0
    4a84:	1091eb04 	addi	r2,r2,18348
    4a88:	18803415 	stw	r2,208(r3)
      }
      else if (flash->device_width == 4)
      {
        flash->write_command = alt_write_flash_command_32bit_device_8bit_mode;
      }
      break;
    4a8c:	00002b06 	br	4b3c <alt_set_flash_width_func+0x138>
      }
      else if (flash->device_width == 2)
      {
        flash->write_command = alt_write_flash_command_16bit_device_8bit_mode;
      }
      else if (flash->device_width == 4)
    4a90:	e0bfff17 	ldw	r2,-4(fp)
    4a94:	10803017 	ldw	r2,192(r2)
    4a98:	10800118 	cmpnei	r2,r2,4
    4a9c:	1000271e 	bne	r2,zero,4b3c <alt_set_flash_width_func+0x138>
      {
        flash->write_command = alt_write_flash_command_32bit_device_8bit_mode;
    4aa0:	e0ffff17 	ldw	r3,-4(fp)
    4aa4:	00800034 	movhi	r2,0
    4aa8:	10920904 	addi	r2,r2,18468
    4aac:	18803415 	stw	r2,208(r3)
      }
      break;
    4ab0:	00002206 	br	4b3c <alt_set_flash_width_func+0x138>
    }
    case 2:
    {
      flash->write_native = alt_write_native_16bit;
    4ab4:	e0ffff17 	ldw	r3,-4(fp)
    4ab8:	00800034 	movhi	r2,0
    4abc:	10926604 	addi	r2,r2,18840
    4ac0:	18803615 	stw	r2,216(r3)

      if (flash->device_width == 2)
    4ac4:	e0bfff17 	ldw	r2,-4(fp)
    4ac8:	10803017 	ldw	r2,192(r2)
    4acc:	10800098 	cmpnei	r2,r2,2
    4ad0:	1000051e 	bne	r2,zero,4ae8 <alt_set_flash_width_func+0xe4>
      {
        flash->write_command = alt_write_flash_command_16bit_device_16bit_mode;
    4ad4:	e0ffff17 	ldw	r3,-4(fp)
    4ad8:	00800034 	movhi	r2,0
    4adc:	10921d04 	addi	r2,r2,18548
    4ae0:	18803415 	stw	r2,208(r3)
      else if (flash->device_width == 4)
      {
        flash->write_command = alt_write_flash_command_32bit_device_16bit_mode;
      }

      break;
    4ae4:	00001706 	br	4b44 <alt_set_flash_width_func+0x140>

      if (flash->device_width == 2)
      {
        flash->write_command = alt_write_flash_command_16bit_device_16bit_mode;
      }
      else if (flash->device_width == 4)
    4ae8:	e0bfff17 	ldw	r2,-4(fp)
    4aec:	10803017 	ldw	r2,192(r2)
    4af0:	10800118 	cmpnei	r2,r2,4
    4af4:	1000131e 	bne	r2,zero,4b44 <alt_set_flash_width_func+0x140>
      {
        flash->write_command = alt_write_flash_command_32bit_device_16bit_mode;
    4af8:	e0ffff17 	ldw	r3,-4(fp)
    4afc:	00800034 	movhi	r2,0
    4b00:	10923004 	addi	r2,r2,18624
    4b04:	18803415 	stw	r2,208(r3)
      }

      break;
    4b08:	00000e06 	br	4b44 <alt_set_flash_width_func+0x140>
    }
    case 4:
    {
      flash->write_native = alt_write_native_32bit;
    4b0c:	e0ffff17 	ldw	r3,-4(fp)
    4b10:	00800034 	movhi	r2,0
    4b14:	10927404 	addi	r2,r2,18896
    4b18:	18803615 	stw	r2,216(r3)
      flash->write_command = alt_write_flash_command_32bit_device_32bit_mode;
    4b1c:	e0ffff17 	ldw	r3,-4(fp)
    4b20:	00800034 	movhi	r2,0
    4b24:	10924404 	addi	r2,r2,18704
    4b28:	18803415 	stw	r2,208(r3)
      break;
    4b2c:	00000606 	br	4b48 <alt_set_flash_width_func+0x144>
    }
    default:
    {
      ret_code = -EACCES;
    4b30:	00bffcc4 	movi	r2,-13
    4b34:	e0bffe15 	stw	r2,-8(fp)
    4b38:	00000306 	br	4b48 <alt_set_flash_width_func+0x144>
      }
      else if (flash->device_width == 4)
      {
        flash->write_command = alt_write_flash_command_32bit_device_8bit_mode;
      }
      break;
    4b3c:	0001883a 	nop
    4b40:	00000106 	br	4b48 <alt_set_flash_width_func+0x144>
      else if (flash->device_width == 4)
      {
        flash->write_command = alt_write_flash_command_32bit_device_16bit_mode;
      }

      break;
    4b44:	0001883a 	nop
    {
      ret_code = -EACCES;
    }
  }

  if (!ret_code)
    4b48:	e0bffe17 	ldw	r2,-8(fp)
    4b4c:	1000191e 	bne	r2,zero,4bb4 <alt_set_flash_width_func+0x1b0>
  {
    switch(flash->device_width)
    4b50:	e0bfff17 	ldw	r2,-4(fp)
    4b54:	10803017 	ldw	r2,192(r2)
    4b58:	10c000a0 	cmpeqi	r3,r2,2
    4b5c:	1800091e 	bne	r3,zero,4b84 <alt_set_flash_width_func+0x180>
    4b60:	10c00120 	cmpeqi	r3,r2,4
    4b64:	18000c1e 	bne	r3,zero,4b98 <alt_set_flash_width_func+0x194>
    4b68:	10800060 	cmpeqi	r2,r2,1
    4b6c:	10000f26 	beq	r2,zero,4bac <alt_set_flash_width_func+0x1a8>
    {
      case 1:
      {
        flash->read_query = alt_read_query_entry_8bit;
    4b70:	e0ffff17 	ldw	r3,-4(fp)
    4b74:	00800034 	movhi	r2,0
    4b78:	1091ab04 	addi	r2,r2,18092
    4b7c:	18803515 	stw	r2,212(r3)
        break;
    4b80:	00000c06 	br	4bb4 <alt_set_flash_width_func+0x1b0>
      }
      case 2:
      {
        flash->read_query = alt_read_query_entry_16bit;
    4b84:	e0ffff17 	ldw	r3,-4(fp)
    4b88:	00800034 	movhi	r2,0
    4b8c:	1091ba04 	addi	r2,r2,18152
    4b90:	18803515 	stw	r2,212(r3)
        break;
    4b94:	00000706 	br	4bb4 <alt_set_flash_width_func+0x1b0>
      }
      case 4:
      {
        flash->read_query = alt_read_query_entry_32bit;
    4b98:	e0ffff17 	ldw	r3,-4(fp)
    4b9c:	00800034 	movhi	r2,0
    4ba0:	1091ca04 	addi	r2,r2,18216
    4ba4:	18803515 	stw	r2,212(r3)
        break;
    4ba8:	00000206 	br	4bb4 <alt_set_flash_width_func+0x1b0>
      }
      default:
      {
        ret_code = -EACCES;
    4bac:	00bffcc4 	movi	r2,-13
    4bb0:	e0bffe15 	stw	r2,-8(fp)
      }
    }
  }

  return ret_code;
    4bb4:	e0bffe17 	ldw	r2,-8(fp)
}
    4bb8:	e037883a 	mov	sp,fp
    4bbc:	df000017 	ldw	fp,0(sp)
    4bc0:	dec00104 	addi	sp,sp,4
    4bc4:	f800283a 	ret

00004bc8 <alt_set_flash_algorithm_func>:
 * 
 * Setup the function pointers to the functions for this algorithm
 * 
 */
int alt_set_flash_algorithm_func( alt_flash_cfi_dev* flash)
{
    4bc8:	defffd04 	addi	sp,sp,-12
    4bcc:	df000215 	stw	fp,8(sp)
    4bd0:	df000204 	addi	fp,sp,8
    4bd4:	e13fff15 	stw	r4,-4(fp)
  int ret_code = 0;
    4bd8:	e03ffe15 	stw	zero,-8(fp)
 
  switch(flash->algorithm)
    4bdc:	e0bfff17 	ldw	r2,-4(fp)
    4be0:	10802e17 	ldw	r2,184(r2)
    4be4:	10c000a0 	cmpeqi	r3,r2,2
    4be8:	1800051e 	bne	r3,zero,4c00 <alt_set_flash_algorithm_func+0x38>
    4bec:	10c000e0 	cmpeqi	r3,r2,3
    4bf0:	18000c1e 	bne	r3,zero,4c24 <alt_set_flash_algorithm_func+0x5c>
    4bf4:	10800060 	cmpeqi	r2,r2,1
    4bf8:	10000a1e 	bne	r2,zero,4c24 <alt_set_flash_algorithm_func+0x5c>
    4bfc:	00001206 	br	4c48 <alt_set_flash_algorithm_func+0x80>
  {
    case CFI_ALG_AMD:
    {
      flash->dev.erase_block = alt_erase_block_amd;
    4c00:	e0ffff17 	ldw	r3,-4(fp)
    4c04:	00800074 	movhi	r2,1
    4c08:	10a12a04 	addi	r2,r2,-31576
    4c0c:	18800815 	stw	r2,32(r3)
      flash->dev.write_block = alt_program_amd;
    4c10:	e0ffff17 	ldw	r3,-4(fp)
    4c14:	00800074 	movhi	r2,1
    4c18:	10a11004 	addi	r2,r2,-31680
    4c1c:	18800915 	stw	r2,36(r3)
      break;
    4c20:	00000b06 	br	4c50 <alt_set_flash_algorithm_func+0x88>
    }
    case CFI_ALG_INTEL:
    case CFI_ALG_INTEL_STRATA:
    {
      flash->dev.erase_block = alt_erase_block_intel;
    4c24:	e0ffff17 	ldw	r3,-4(fp)
    4c28:	00800074 	movhi	r2,1
    4c2c:	10a24804 	addi	r2,r2,-30432
    4c30:	18800815 	stw	r2,32(r3)
      flash->dev.write_block = alt_program_intel;
    4c34:	e0ffff17 	ldw	r3,-4(fp)
    4c38:	00800074 	movhi	r2,1
    4c3c:	10a22804 	addi	r2,r2,-30560
    4c40:	18800915 	stw	r2,36(r3)
      break;
    4c44:	00000206 	br	4c50 <alt_set_flash_algorithm_func+0x88>
    }
    default:
    {
      ret_code = -EIO;
    4c48:	00bffec4 	movi	r2,-5
    4c4c:	e0bffe15 	stw	r2,-8(fp)
    }
  } 
  return ret_code;  
    4c50:	e0bffe17 	ldw	r2,-8(fp)
}
    4c54:	e037883a 	mov	sp,fp
    4c58:	df000017 	ldw	fp,0(sp)
    4c5c:	dec00104 	addi	sp,sp,4
    4c60:	f800283a 	ret

00004c64 <alt_read_16bit_query_entry>:
 * read_16bit_query_entry
 * 
 * Read a 16 bit entry from the CFI Query table
 */
static alt_u16 alt_read_16bit_query_entry(alt_flash_cfi_dev* flash, int address)
{
    4c64:	defffb04 	addi	sp,sp,-20
    4c68:	dfc00415 	stw	ra,16(sp)
    4c6c:	df000315 	stw	fp,12(sp)
    4c70:	df000304 	addi	fp,sp,12
    4c74:	e13ffe15 	stw	r4,-8(fp)
    4c78:	e17fff15 	stw	r5,-4(fp)
  alt_u16 ret_code;

  ret_code = (*flash->read_query)( flash, address);
    4c7c:	e0bffe17 	ldw	r2,-8(fp)
    4c80:	10803517 	ldw	r2,212(r2)
    4c84:	e17fff17 	ldw	r5,-4(fp)
    4c88:	e13ffe17 	ldw	r4,-8(fp)
    4c8c:	103ee83a 	callr	r2
    4c90:	10803fcc 	andi	r2,r2,255
    4c94:	e0bffd0d 	sth	r2,-12(fp)
  ret_code |= (((int)(*flash->read_query)(flash, address+1)) << 8);                   
    4c98:	e0bffe17 	ldw	r2,-8(fp)
    4c9c:	10803517 	ldw	r2,212(r2)
    4ca0:	e0ffff17 	ldw	r3,-4(fp)
    4ca4:	18c00044 	addi	r3,r3,1
    4ca8:	180b883a 	mov	r5,r3
    4cac:	e13ffe17 	ldw	r4,-8(fp)
    4cb0:	103ee83a 	callr	r2
    4cb4:	10803fcc 	andi	r2,r2,255
    4cb8:	1004923a 	slli	r2,r2,8
    4cbc:	1007883a 	mov	r3,r2
    4cc0:	e0bffd0b 	ldhu	r2,-12(fp)
    4cc4:	1884b03a 	or	r2,r3,r2
    4cc8:	e0bffd0d 	sth	r2,-12(fp)

  return ret_code;
    4ccc:	e0bffd0b 	ldhu	r2,-12(fp)
}
    4cd0:	e037883a 	mov	sp,fp
    4cd4:	dfc00117 	ldw	ra,4(sp)
    4cd8:	df000017 	ldw	fp,0(sp)
    4cdc:	dec00204 	addi	sp,sp,8
    4ce0:	f800283a 	ret

00004ce4 <alt_read_cfi_table>:
 * read_cfi_table
 * 
 * Read the CFI Table
 */
int alt_read_cfi_table(alt_flash_cfi_dev* flash)
{
    4ce4:	defff304 	addi	sp,sp,-52
    4ce8:	dfc00c15 	stw	ra,48(sp)
    4cec:	df000b15 	stw	fp,44(sp)
    4cf0:	df000b04 	addi	fp,sp,44
    4cf4:	e13fff15 	stw	r4,-4(fp)
  int   i,j;
  int   device_size;
  int   ret_code = 0;
    4cf8:	e03ff715 	stw	zero,-36(fp)
  int   size = 0;
    4cfc:	e03ff815 	stw	zero,-32(fp)
  int   swap;
  int   typical_timeout;
  int   max_timeout;
  int   offset = 0;
    4d00:	e03ff915 	stw	zero,-28(fp)
   
  /*
  * Check that the Primary Vendor Specific table
  * starts with the letters PRI                                                         
  */
  ret_code = alt_check_primary_table(flash);
    4d04:	e13fff17 	ldw	r4,-4(fp)
    4d08:	0005a1c0 	call	5a1c <alt_check_primary_table>
    4d0c:	e0bff715 	stw	r2,-36(fp)

  if (!ret_code)
    4d10:	e0bff717 	ldw	r2,-36(fp)
    4d14:	10015f1e 	bne	r2,zero,5294 <alt_read_cfi_table+0x5b0>
  {
    flash->algorithm = (*flash->read_query)(flash, 0x13);
    4d18:	e0bfff17 	ldw	r2,-4(fp)
    4d1c:	10803517 	ldw	r2,212(r2)
    4d20:	014004c4 	movi	r5,19
    4d24:	e13fff17 	ldw	r4,-4(fp)
    4d28:	103ee83a 	callr	r2
    4d2c:	10c03fcc 	andi	r3,r2,255
    4d30:	e0bfff17 	ldw	r2,-4(fp)
    4d34:	10c02e15 	stw	r3,184(r2)
  
    /* 
     * Let's read the write timeout values from the flash 
     * 
     */
    typical_timeout = (*flash->read_query)( flash, 0x1f);
    4d38:	e0bfff17 	ldw	r2,-4(fp)
    4d3c:	10803517 	ldw	r2,212(r2)
    4d40:	014007c4 	movi	r5,31
    4d44:	e13fff17 	ldw	r4,-4(fp)
    4d48:	103ee83a 	callr	r2
    4d4c:	10803fcc 	andi	r2,r2,255
    4d50:	e0bffa15 	stw	r2,-24(fp)
    max_timeout = (*flash->read_query)( flash, 0x23);
    4d54:	e0bfff17 	ldw	r2,-4(fp)
    4d58:	10803517 	ldw	r2,212(r2)
    4d5c:	014008c4 	movi	r5,35
    4d60:	e13fff17 	ldw	r4,-4(fp)
    4d64:	103ee83a 	callr	r2
    4d68:	10803fcc 	andi	r2,r2,255
    4d6c:	e0bffb15 	stw	r2,-20(fp)
    
    if ((typical_timeout == 0 ) || (max_timeout == 0))
    4d70:	e0bffa17 	ldw	r2,-24(fp)
    4d74:	10000226 	beq	r2,zero,4d80 <alt_read_cfi_table+0x9c>
    4d78:	e0bffb17 	ldw	r2,-20(fp)
    4d7c:	1000041e 	bne	r2,zero,4d90 <alt_read_cfi_table+0xac>
    {
      flash->write_timeout = 1000; /* 1ms should be more than enough */
    4d80:	e0bfff17 	ldw	r2,-4(fp)
